; Listing generated by Microsoft (R) Optimizing Compiler Version 19.33.31630.0 

include listing.inc

INCLUDELIB OLDNAMES

PUBLIC	??_C@_0BC@EOODALEL@Unknown?5exception@		; `string'
PUBLIC	??_C@_0P@GHFPNOJB@bad?5allocation@		; `string'
PUBLIC	??_C@_0DK@CKLHOJNA@Alignment?5must?5be?5at?5least?5size@ ; `string'
PUBLIC	??_C@_1MG@ODDCIJJL@?$AAC?$AA?3?$AA?2?$AAU?$AAs?$AAe?$AAr?$AAs?$AA?2?$AAm?$AAa?$AAr?$AAi?$AAj?$AA?2@ ; `string'
PUBLIC	??_C@_1PM@EGIIFBMJ@?$AAa?$AAl?$AAi?$AAg?$AAn?$AAm?$AAe?$AAn?$AAt?$AA?5?$AA?$DO?$AA?$DN?$AA?5?$AAs?$AAi@ ; `string'
PUBLIC	??_C@_0BL@HFNNJIJB@dat?1test_images?4idx3?9ubyte@ ; `string'
PUBLIC	??_C@_0BL@GJACGMHJ@dat?1test_labels?4idx1?9ubyte@ ; `string'
PUBLIC	??_C@_1MO@IEDNFCAN@?$AAC?$AA?3?$AA?2?$AAU?$AAs?$AAe?$AAr?$AAs?$AA?2?$AAm?$AAa?$AAr?$AAi?$AAj?$AA?2@ ; `string'
PUBLIC	??_C@_1BBE@FLFGDPIJ@?$AA?$CI?$AA?$CI?$AAS?$AAi?$AAz?$AAe?$AAA?$AAt?$AAC?$AAo?$AAm?$AAp?$AAi?$AAl?$AAe@ ; `string'
PUBLIC	??_C@_0CP@LINCKCAG@Invalid?5sizes?5when?5resizing?5a?5m@ ; `string'
PUBLIC	??_C@_1DBO@BCDCEIEF@?$AA?$CI?$AA?$CB?$AA?$CI?$AAR?$AAo?$AAw?$AAs?$AAA?$AAt?$AAC?$AAo?$AAm?$AAp?$AAi?$AAl@ ; `string'
PUBLIC	??_R4exception@std@@6B@				; std::exception::`RTTI Complete Object Locator'
PUBLIC	??_R0?AVbad_alloc@std@@@8			; std::bad_alloc `RTTI Type Descriptor'
PUBLIC	??_R2bad_alloc@std@@8				; std::bad_alloc::`RTTI Base Class Array'
PUBLIC	??_R1A@?0A@EA@exception@std@@8			; std::exception::`RTTI Base Class Descriptor at (0,-1,0,64)'
PUBLIC	??_R1A@?0A@EA@bad_alloc@std@@8			; std::bad_alloc::`RTTI Base Class Descriptor at (0,-1,0,64)'
PUBLIC	??_7bad_alloc@std@@6B@				; std::bad_alloc::`vftable'
PUBLIC	??_R2exception@std@@8				; std::exception::`RTTI Base Class Array'
PUBLIC	??_7exception@std@@6B@				; std::exception::`vftable'
PUBLIC	??_R3exception@std@@8				; std::exception::`RTTI Class Hierarchy Descriptor'
PUBLIC	_CTA2?AVbad_alloc@std@@
PUBLIC	??_R4bad_alloc@std@@6B@				; std::bad_alloc::`RTTI Complete Object Locator'
PUBLIC	_CT??_R0?AVbad_alloc@std@@@8??0bad_alloc@std@@QEAA@AEBV01@@Z24
PUBLIC	??_R3bad_alloc@std@@8				; std::bad_alloc::`RTTI Class Hierarchy Descriptor'
PUBLIC	_CT??_R0?AVexception@std@@@8??0exception@std@@QEAA@AEBV01@@Z24
PUBLIC	??_R0?AVexception@std@@@8			; std::exception `RTTI Type Descriptor'
PUBLIC	_TI2?AVbad_alloc@std@@
EXTRN	__imp_malloc:PROC
EXTRN	??_L@YAXPEAX_K1P6AX0@Z2@Z:PROC			; `eh vector constructor iterator'
EXTRN	__imp__wassert:PROC
EXTRN	??_7type_info@@6B@:BYTE				; type_info::`vftable'
EXTRN	__imp___std_terminate:PROC
EXTRN	__imp_free:PROC
EXTRN	??_U@YAPEAX_K@Z:PROC				; operator new[]
EXTRN	??3@YAXPEAX_K@Z:PROC				; operator delete
EXTRN	__imp___std_exception_copy:PROC
EXTRN	??_M@YAXPEAX_K1P6AX0@Z@Z:PROC			; `eh vector destructor iterator'
EXTRN	??_V@YAXPEAX_K@Z:PROC				; operator delete[]
EXTRN	??_V@YAXPEAXW4align_val_t@std@@@Z:PROC		; operator delete[]
EXTRN	??_V@YAXPEAX@Z:PROC				; operator delete[]
EXTRN	__imp___std_exception_destroy:PROC
EXTRN	__security_check_cookie:PROC
EXTRN	__imp___CxxFrameHandler4:PROC
;	COMDAT _TI2?AVbad_alloc@std@@
xdata$x	SEGMENT
_TI2?AVbad_alloc@std@@ DD 00H
	DD	imagerel ??1bad_alloc@std@@UEAA@XZ
	DD	00H
	DD	imagerel _CTA2?AVbad_alloc@std@@
xdata$x	ENDS
;	COMDAT ??_R0?AVexception@std@@@8
data$r	SEGMENT
??_R0?AVexception@std@@@8 DQ FLAT:??_7type_info@@6B@	; std::exception `RTTI Type Descriptor'
	DQ	0000000000000000H
	DB	'.?AVexception@std@@', 00H
data$r	ENDS
;	COMDAT _CT??_R0?AVexception@std@@@8??0exception@std@@QEAA@AEBV01@@Z24
xdata$x	SEGMENT
_CT??_R0?AVexception@std@@@8??0exception@std@@QEAA@AEBV01@@Z24 DD 00H
	DD	imagerel ??_R0?AVexception@std@@@8
	DD	00H
	DD	0ffffffffH
	ORG $+4
	DD	018H
	DD	imagerel ??0exception@std@@QEAA@AEBV01@@Z
xdata$x	ENDS
;	COMDAT ??_R3bad_alloc@std@@8
rdata$r	SEGMENT
??_R3bad_alloc@std@@8 DD 00H				; std::bad_alloc::`RTTI Class Hierarchy Descriptor'
	DD	00H
	DD	02H
	DD	imagerel ??_R2bad_alloc@std@@8
rdata$r	ENDS
;	COMDAT _CT??_R0?AVbad_alloc@std@@@8??0bad_alloc@std@@QEAA@AEBV01@@Z24
xdata$x	SEGMENT
_CT??_R0?AVbad_alloc@std@@@8??0bad_alloc@std@@QEAA@AEBV01@@Z24 DD 010H
	DD	imagerel ??_R0?AVbad_alloc@std@@@8
	DD	00H
	DD	0ffffffffH
	ORG $+4
	DD	018H
	DD	imagerel ??0bad_alloc@std@@QEAA@AEBV01@@Z
xdata$x	ENDS
;	COMDAT ??_R4bad_alloc@std@@6B@
rdata$r	SEGMENT
??_R4bad_alloc@std@@6B@ DD 01H				; std::bad_alloc::`RTTI Complete Object Locator'
	DD	00H
	DD	00H
	DD	imagerel ??_R0?AVbad_alloc@std@@@8
	DD	imagerel ??_R3bad_alloc@std@@8
	DD	imagerel ??_R4bad_alloc@std@@6B@
rdata$r	ENDS
;	COMDAT _CTA2?AVbad_alloc@std@@
xdata$x	SEGMENT
_CTA2?AVbad_alloc@std@@ DD 02H
	DD	imagerel _CT??_R0?AVbad_alloc@std@@@8??0bad_alloc@std@@QEAA@AEBV01@@Z24
	DD	imagerel _CT??_R0?AVexception@std@@@8??0exception@std@@QEAA@AEBV01@@Z24
xdata$x	ENDS
;	COMDAT ??_R3exception@std@@8
rdata$r	SEGMENT
??_R3exception@std@@8 DD 00H				; std::exception::`RTTI Class Hierarchy Descriptor'
	DD	00H
	DD	01H
	DD	imagerel ??_R2exception@std@@8
rdata$r	ENDS
;	COMDAT ??_7exception@std@@6B@
CONST	SEGMENT
??_7exception@std@@6B@ DQ FLAT:??_R4exception@std@@6B@	; std::exception::`vftable'
	DQ	FLAT:??_Eexception@std@@UEAAPEAXI@Z
	DQ	FLAT:?what@exception@std@@UEBAPEBDXZ
CONST	ENDS
;	COMDAT ??_R2exception@std@@8
rdata$r	SEGMENT
??_R2exception@std@@8 DD imagerel ??_R1A@?0A@EA@exception@std@@8 ; std::exception::`RTTI Base Class Array'
	ORG $+3
rdata$r	ENDS
;	COMDAT ??_7bad_alloc@std@@6B@
CONST	SEGMENT
??_7bad_alloc@std@@6B@ DQ FLAT:??_R4bad_alloc@std@@6B@	; std::bad_alloc::`vftable'
	DQ	FLAT:??_Ebad_alloc@std@@UEAAPEAXI@Z
	DQ	FLAT:?what@exception@std@@UEBAPEBDXZ
CONST	ENDS
;	COMDAT ??_R1A@?0A@EA@bad_alloc@std@@8
rdata$r	SEGMENT
??_R1A@?0A@EA@bad_alloc@std@@8 DD imagerel ??_R0?AVbad_alloc@std@@@8 ; std::bad_alloc::`RTTI Base Class Descriptor at (0,-1,0,64)'
	DD	01H
	DD	00H
	DD	0ffffffffH
	DD	00H
	DD	040H
	DD	imagerel ??_R3bad_alloc@std@@8
rdata$r	ENDS
;	COMDAT ??_R1A@?0A@EA@exception@std@@8
rdata$r	SEGMENT
??_R1A@?0A@EA@exception@std@@8 DD imagerel ??_R0?AVexception@std@@@8 ; std::exception::`RTTI Base Class Descriptor at (0,-1,0,64)'
	DD	00H
	DD	00H
	DD	0ffffffffH
	DD	00H
	DD	040H
	DD	imagerel ??_R3exception@std@@8
rdata$r	ENDS
;	COMDAT ??_R2bad_alloc@std@@8
rdata$r	SEGMENT
??_R2bad_alloc@std@@8 DD imagerel ??_R1A@?0A@EA@bad_alloc@std@@8 ; std::bad_alloc::`RTTI Base Class Array'
	DD	imagerel ??_R1A@?0A@EA@exception@std@@8
	ORG $+3
rdata$r	ENDS
;	COMDAT ??_R0?AVbad_alloc@std@@@8
data$r	SEGMENT
??_R0?AVbad_alloc@std@@@8 DQ FLAT:??_7type_info@@6B@	; std::bad_alloc `RTTI Type Descriptor'
	DQ	0000000000000000H
	DB	'.?AVbad_alloc@std@@', 00H
data$r	ENDS
;	COMDAT ??_R4exception@std@@6B@
rdata$r	SEGMENT
??_R4exception@std@@6B@ DD 01H				; std::exception::`RTTI Complete Object Locator'
	DD	00H
	DD	00H
	DD	imagerel ??_R0?AVexception@std@@@8
	DD	imagerel ??_R3exception@std@@8
	DD	imagerel ??_R4exception@std@@6B@
rdata$r	ENDS
;	COMDAT ??_C@_1DBO@BCDCEIEF@?$AA?$CI?$AA?$CB?$AA?$CI?$AAR?$AAo?$AAw?$AAs?$AAA?$AAt?$AAC?$AAo?$AAm?$AAp?$AAi?$AAl@
CONST	SEGMENT
??_C@_1DBO@BCDCEIEF@?$AA?$CI?$AA?$CB?$AA?$CI?$AAR?$AAo?$AAw?$AAs?$AAA?$AAt?$AAC?$AAo?$AAm?$AAp?$AAi?$AAl@ DB '('
	DB	00H, '!', 00H, '(', 00H, 'R', 00H, 'o', 00H, 'w', 00H, 's', 00H
	DB	'A', 00H, 't', 00H, 'C', 00H, 'o', 00H, 'm', 00H, 'p', 00H, 'i'
	DB	00H, 'l', 00H, 'e', 00H, 'T', 00H, 'i', 00H, 'm', 00H, 'e', 00H
	DB	'!', 00H, '=', 00H, 'D', 00H, 'y', 00H, 'n', 00H, 'a', 00H, 'm'
	DB	00H, 'i', 00H, 'c', 00H, ')', 00H, ' ', 00H, '|', 00H, '|', 00H
	DB	' ', 00H, '(', 00H, 'r', 00H, 'o', 00H, 'w', 00H, 's', 00H, '='
	DB	00H, '=', 00H, 'R', 00H, 'o', 00H, 'w', 00H, 's', 00H, 'A', 00H
	DB	't', 00H, 'C', 00H, 'o', 00H, 'm', 00H, 'p', 00H, 'i', 00H, 'l'
	DB	00H, 'e', 00H, 'T', 00H, 'i', 00H, 'm', 00H, 'e', 00H, ')', 00H
	DB	')', 00H, ' ', 00H, '&', 00H, '&', 00H, ' ', 00H, '(', 00H, '!'
	DB	00H, '(', 00H, 'C', 00H, 'o', 00H, 'l', 00H, 's', 00H, 'A', 00H
	DB	't', 00H, 'C', 00H, 'o', 00H, 'm', 00H, 'p', 00H, 'i', 00H, 'l'
	DB	00H, 'e', 00H, 'T', 00H, 'i', 00H, 'm', 00H, 'e', 00H, '!', 00H
	DB	'=', 00H, 'D', 00H, 'y', 00H, 'n', 00H, 'a', 00H, 'm', 00H, 'i'
	DB	00H, 'c', 00H, ')', 00H, ' ', 00H, '|', 00H, '|', 00H, ' ', 00H
	DB	'(', 00H, 'c', 00H, 'o', 00H, 'l', 00H, 's', 00H, '=', 00H, '='
	DB	00H, 'C', 00H, 'o', 00H, 'l', 00H, 's', 00H, 'A', 00H, 't', 00H
	DB	'C', 00H, 'o', 00H, 'm', 00H, 'p', 00H, 'i', 00H, 'l', 00H, 'e'
	DB	00H, 'T', 00H, 'i', 00H, 'm', 00H, 'e', 00H, ')', 00H, ')', 00H
	DB	' ', 00H, '&', 00H, '&', 00H, ' ', 00H, '(', 00H, '!', 00H, '('
	DB	00H, 'R', 00H, 'o', 00H, 'w', 00H, 's', 00H, 'A', 00H, 't', 00H
	DB	'C', 00H, 'o', 00H, 'm', 00H, 'p', 00H, 'i', 00H, 'l', 00H, 'e'
	DB	00H, 'T', 00H, 'i', 00H, 'm', 00H, 'e', 00H, '=', 00H, '=', 00H
	DB	'D', 00H, 'y', 00H, 'n', 00H, 'a', 00H, 'm', 00H, 'i', 00H, 'c'
	DB	00H, ' ', 00H, '&', 00H, '&', 00H, ' ', 00H, 'M', 00H, 'a', 00H
	DB	'x', 00H, 'R', 00H, 'o', 00H, 'w', 00H, 's', 00H, 'A', 00H, 't'
	DB	00H, 'C', 00H, 'o', 00H, 'm', 00H, 'p', 00H, 'i', 00H, 'l', 00H
	DB	'e', 00H, 'T', 00H, 'i', 00H, 'm', 00H, 'e', 00H, '!', 00H, '='
	DB	00H, 'D', 00H, 'y', 00H, 'n', 00H, 'a', 00H, 'm', 00H, 'i', 00H
	DB	'c', 00H, ')', 00H, ' ', 00H, '|', 00H, '|', 00H, ' ', 00H, '('
	DB	00H, 'r', 00H, 'o', 00H, 'w', 00H, 's', 00H, '<', 00H, '=', 00H
	DB	'M', 00H, 'a', 00H, 'x', 00H, 'R', 00H, 'o', 00H, 'w', 00H, 's'
	DB	00H, 'A', 00H, 't', 00H, 'C', 00H, 'o', 00H, 'm', 00H, 'p', 00H
	DB	'i', 00H, 'l', 00H, 'e', 00H, 'T', 00H, 'i', 00H, 'm', 00H, 'e'
	DB	00H, ')', 00H, ')', 00H, ' ', 00H, '&', 00H, '&', 00H, ' ', 00H
	DB	'(', 00H, '!', 00H, '(', 00H, 'C', 00H, 'o', 00H, 'l', 00H, 's'
	DB	00H, 'A', 00H, 't', 00H, 'C', 00H, 'o', 00H, 'm', 00H, 'p', 00H
	DB	'i', 00H, 'l', 00H, 'e', 00H, 'T', 00H, 'i', 00H, 'm', 00H, 'e'
	DB	00H, '=', 00H, '=', 00H, 'D', 00H, 'y', 00H, 'n', 00H, 'a', 00H
	DB	'm', 00H, 'i', 00H, 'c', 00H, ' ', 00H, '&', 00H, '&', 00H, ' '
	DB	00H, 'M', 00H, 'a', 00H, 'x', 00H, 'C', 00H, 'o', 00H, 'l', 00H
	DB	's', 00H, 'A', 00H, 't', 00H, 'C', 00H, 'o', 00H, 'm', 00H, 'p'
	DB	00H, 'i', 00H, 'l', 00H, 'e', 00H, 'T', 00H, 'i', 00H, 'm', 00H
	DB	'e', 00H, '!', 00H, '=', 00H, 'D', 00H, 'y', 00H, 'n', 00H, 'a'
	DB	00H, 'm', 00H, 'i', 00H, 'c', 00H, ')', 00H, ' ', 00H, '|', 00H
	DB	'|', 00H, ' ', 00H, '(', 00H, 'c', 00H, 'o', 00H, 'l', 00H, 's'
	DB	00H, '<', 00H, '=', 00H, 'M', 00H, 'a', 00H, 'x', 00H, 'C', 00H
	DB	'o', 00H, 'l', 00H, 's', 00H, 'A', 00H, 't', 00H, 'C', 00H, 'o'
	DB	00H, 'm', 00H, 'p', 00H, 'i', 00H, 'l', 00H, 'e', 00H, 'T', 00H
	DB	'i', 00H, 'm', 00H, 'e', 00H, ')', 00H, ')', 00H, ' ', 00H, '&'
	DB	00H, '&', 00H, ' ', 00H, 'r', 00H, 'o', 00H, 'w', 00H, 's', 00H
	DB	'>', 00H, '=', 00H, '0', 00H, ' ', 00H, '&', 00H, '&', 00H, ' '
	DB	00H, 'c', 00H, 'o', 00H, 'l', 00H, 's', 00H, '>', 00H, '=', 00H
	DB	'0', 00H, ' ', 00H, '&', 00H, '&', 00H, ' ', 00H, '"', 00H, 'I'
	DB	00H, 'n', 00H, 'v', 00H, 'a', 00H, 'l', 00H, 'i', 00H, 'd', 00H
	DB	' ', 00H, 's', 00H, 'i', 00H, 'z', 00H, 'e', 00H, 's', 00H, ' '
	DB	00H, 'w', 00H, 'h', 00H, 'e', 00H, 'n', 00H, ' ', 00H, 'r', 00H
	DB	'e', 00H, 's', 00H, 'i', 00H, 'z', 00H, 'i', 00H, 'n', 00H, 'g'
	DB	00H, ' ', 00H, 'a', 00H, ' ', 00H, 'm', 00H, 'a', 00H, 't', 00H
	DB	'r', 00H, 'i', 00H, 'x', 00H, ' ', 00H, 'o', 00H, 'r', 00H, ' '
	DB	00H, 'a', 00H, 'r', 00H, 'r', 00H, 'a', 00H, 'y', 00H, '.', 00H
	DB	'"', 00H, 00H, 00H				; `string'
CONST	ENDS
;	COMDAT ??_C@_0CP@LINCKCAG@Invalid?5sizes?5when?5resizing?5a?5m@
CONST	SEGMENT
??_C@_0CP@LINCKCAG@Invalid?5sizes?5when?5resizing?5a?5m@ DB 'Invalid size'
	DB	's when resizing a matrix or array.', 00H	; `string'
CONST	ENDS
;	COMDAT ??_C@_1BBE@FLFGDPIJ@?$AA?$CI?$AA?$CI?$AAS?$AAi?$AAz?$AAe?$AAA?$AAt?$AAC?$AAo?$AAm?$AAp?$AAi?$AAl?$AAe@
CONST	SEGMENT
??_C@_1BBE@FLFGDPIJ@?$AA?$CI?$AA?$CI?$AAS?$AAi?$AAz?$AAe?$AAA?$AAt?$AAC?$AAo?$AAm?$AAp?$AAi?$AAl?$AAe@ DB '('
	DB	00H, '(', 00H, 'S', 00H, 'i', 00H, 'z', 00H, 'e', 00H, 'A', 00H
	DB	't', 00H, 'C', 00H, 'o', 00H, 'm', 00H, 'p', 00H, 'i', 00H, 'l'
	DB	00H, 'e', 00H, 'T', 00H, 'i', 00H, 'm', 00H, 'e', 00H, ' ', 00H
	DB	'=', 00H, '=', 00H, ' ', 00H, 'D', 00H, 'y', 00H, 'n', 00H, 'a'
	DB	00H, 'm', 00H, 'i', 00H, 'c', 00H, ' ', 00H, '&', 00H, '&', 00H
	DB	' ', 00H, '(', 00H, 'M', 00H, 'a', 00H, 'x', 00H, 'S', 00H, 'i'
	DB	00H, 'z', 00H, 'e', 00H, 'A', 00H, 't', 00H, 'C', 00H, 'o', 00H
	DB	'm', 00H, 'p', 00H, 'i', 00H, 'l', 00H, 'e', 00H, 'T', 00H, 'i'
	DB	00H, 'm', 00H, 'e', 00H, '=', 00H, '=', 00H, 'D', 00H, 'y', 00H
	DB	'n', 00H, 'a', 00H, 'm', 00H, 'i', 00H, 'c', 00H, ' ', 00H, '|'
	DB	00H, '|', 00H, ' ', 00H, 's', 00H, 'i', 00H, 'z', 00H, 'e', 00H
	DB	'<', 00H, '=', 00H, 'M', 00H, 'a', 00H, 'x', 00H, 'S', 00H, 'i'
	DB	00H, 'z', 00H, 'e', 00H, 'A', 00H, 't', 00H, 'C', 00H, 'o', 00H
	DB	'm', 00H, 'p', 00H, 'i', 00H, 'l', 00H, 'e', 00H, 'T', 00H, 'i'
	DB	00H, 'm', 00H, 'e', 00H, ')', 00H, ')', 00H, ' ', 00H, '|', 00H
	DB	'|', 00H, ' ', 00H, 'S', 00H, 'i', 00H, 'z', 00H, 'e', 00H, 'A'
	DB	00H, 't', 00H, 'C', 00H, 'o', 00H, 'm', 00H, 'p', 00H, 'i', 00H
	DB	'l', 00H, 'e', 00H, 'T', 00H, 'i', 00H, 'm', 00H, 'e', 00H, ' '
	DB	00H, '=', 00H, '=', 00H, ' ', 00H, 's', 00H, 'i', 00H, 'z', 00H
	DB	'e', 00H, ')', 00H, ' ', 00H, '&', 00H, '&', 00H, ' ', 00H, 's'
	DB	00H, 'i', 00H, 'z', 00H, 'e', 00H, '>', 00H, '=', 00H, '0', 00H
	DB	00H, 00H					; `string'
CONST	ENDS
;	COMDAT ??_C@_1MO@IEDNFCAN@?$AAC?$AA?3?$AA?2?$AAU?$AAs?$AAe?$AAr?$AAs?$AA?2?$AAm?$AAa?$AAr?$AAi?$AAj?$AA?2@
CONST	SEGMENT
??_C@_1MO@IEDNFCAN@?$AAC?$AA?3?$AA?2?$AAU?$AAs?$AAe?$AAr?$AAs?$AA?2?$AAm?$AAa?$AAr?$AAi?$AAj?$AA?2@ DB 'C'
	DB	00H, ':', 00H, '\', 00H, 'U', 00H, 's', 00H, 'e', 00H, 'r', 00H
	DB	's', 00H, '\', 00H, 'm', 00H, 'a', 00H, 'r', 00H, 'i', 00H, 'j'
	DB	00H, '\', 00H, 'O', 00H, 'n', 00H, 'e', 00H, 'D', 00H, 'r', 00H
	DB	'i', 00H, 'v', 00H, 'e', 00H, '\', 00H, 'D', 00H, 'o', 00H, 'c'
	DB	00H, 'u', 00H, 'm', 00H, 'e', 00H, 'n', 00H, 't', 00H, 'e', 00H
	DB	'n', 00H, '\', 00H, 'G', 00H, 'i', 00H, 't', 00H, 'H', 00H, 'u'
	DB	00H, 'b', 00H, '\', 00H, 'N', 00H, 'e', 00H, 'u', 00H, 'r', 00H
	DB	'a', 00H, 'l', 00H, '_', 00H, 'N', 00H, 'e', 00H, 't', 00H, 'w'
	DB	00H, 'o', 00H, 'r', 00H, 'k', 00H, '\', 00H, 'd', 00H, 'e', 00H
	DB	'p', 00H, 'e', 00H, 'n', 00H, 'd', 00H, 'e', 00H, 'n', 00H, 'c'
	DB	00H, 'i', 00H, 'e', 00H, 's', 00H, '\', 00H, 'E', 00H, 'i', 00H
	DB	'g', 00H, 'e', 00H, 'n', 00H, '\', 00H, 's', 00H, 'r', 00H, 'c'
	DB	00H, '\', 00H, 'C', 00H, 'o', 00H, 'r', 00H, 'e', 00H, '\', 00H
	DB	'P', 00H, 'l', 00H, 'a', 00H, 'i', 00H, 'n', 00H, 'O', 00H, 'b'
	DB	00H, 'j', 00H, 'e', 00H, 'c', 00H, 't', 00H, 'B', 00H, 'a', 00H
	DB	's', 00H, 'e', 00H, '.', 00H, 'h', 00H, 00H, 00H ; `string'
CONST	ENDS
;	COMDAT ??_C@_0BL@GJACGMHJ@dat?1test_labels?4idx1?9ubyte@
CONST	SEGMENT
??_C@_0BL@GJACGMHJ@dat?1test_labels?4idx1?9ubyte@ DB 'dat/test_labels.idx'
	DB	'1-ubyte', 00H				; `string'
CONST	ENDS
;	COMDAT ??_C@_0BL@HFNNJIJB@dat?1test_images?4idx3?9ubyte@
CONST	SEGMENT
??_C@_0BL@HFNNJIJB@dat?1test_images?4idx3?9ubyte@ DB 'dat/test_images.idx'
	DB	'3-ubyte', 00H				; `string'
CONST	ENDS
;	COMDAT ??_C@_1PM@EGIIFBMJ@?$AAa?$AAl?$AAi?$AAg?$AAn?$AAm?$AAe?$AAn?$AAt?$AA?5?$AA?$DO?$AA?$DN?$AA?5?$AAs?$AAi@
CONST	SEGMENT
??_C@_1PM@EGIIFBMJ@?$AAa?$AAl?$AAi?$AAg?$AAn?$AAm?$AAe?$AAn?$AAt?$AA?5?$AA?$DO?$AA?$DN?$AA?5?$AAs?$AAi@ DB 'a'
	DB	00H, 'l', 00H, 'i', 00H, 'g', 00H, 'n', 00H, 'm', 00H, 'e', 00H
	DB	'n', 00H, 't', 00H, ' ', 00H, '>', 00H, '=', 00H, ' ', 00H, 's'
	DB	00H, 'i', 00H, 'z', 00H, 'e', 00H, 'o', 00H, 'f', 00H, '(', 00H
	DB	'v', 00H, 'o', 00H, 'i', 00H, 'd', 00H, '*', 00H, ')', 00H, ' '
	DB	00H, '&', 00H, '&', 00H, ' ', 00H, '(', 00H, 'a', 00H, 'l', 00H
	DB	'i', 00H, 'g', 00H, 'n', 00H, 'm', 00H, 'e', 00H, 'n', 00H, 't'
	DB	00H, ' ', 00H, '&', 00H, ' ', 00H, '(', 00H, 'a', 00H, 'l', 00H
	DB	'i', 00H, 'g', 00H, 'n', 00H, 'm', 00H, 'e', 00H, 'n', 00H, 't'
	DB	00H, '-', 00H, '1', 00H, ')', 00H, ')', 00H, ' ', 00H, '=', 00H
	DB	'=', 00H, ' ', 00H, '0', 00H, ' ', 00H, '&', 00H, '&', 00H, ' '
	DB	00H, '"', 00H, 'A', 00H, 'l', 00H, 'i', 00H, 'g', 00H, 'n', 00H
	DB	'm', 00H, 'e', 00H, 'n', 00H, 't', 00H, ' ', 00H, 'm', 00H, 'u'
	DB	00H, 's', 00H, 't', 00H, ' ', 00H, 'b', 00H, 'e', 00H, ' ', 00H
	DB	'a', 00H, 't', 00H, ' ', 00H, 'l', 00H, 'e', 00H, 'a', 00H, 's'
	DB	00H, 't', 00H, ' ', 00H, 's', 00H, 'i', 00H, 'z', 00H, 'e', 00H
	DB	'o', 00H, 'f', 00H, '(', 00H, 'v', 00H, 'o', 00H, 'i', 00H, 'd'
	DB	00H, '*', 00H, ')', 00H, ' ', 00H, 'a', 00H, 'n', 00H, 'd', 00H
	DB	' ', 00H, 'a', 00H, ' ', 00H, 'p', 00H, 'o', 00H, 'w', 00H, 'e'
	DB	00H, 'r', 00H, ' ', 00H, 'o', 00H, 'f', 00H, ' ', 00H, '2', 00H
	DB	'"', 00H, 00H, 00H				; `string'
CONST	ENDS
;	COMDAT ??_C@_1MG@ODDCIJJL@?$AAC?$AA?3?$AA?2?$AAU?$AAs?$AAe?$AAr?$AAs?$AA?2?$AAm?$AAa?$AAr?$AAi?$AAj?$AA?2@
CONST	SEGMENT
??_C@_1MG@ODDCIJJL@?$AAC?$AA?3?$AA?2?$AAU?$AAs?$AAe?$AAr?$AAs?$AA?2?$AAm?$AAa?$AAr?$AAi?$AAj?$AA?2@ DB 'C'
	DB	00H, ':', 00H, '\', 00H, 'U', 00H, 's', 00H, 'e', 00H, 'r', 00H
	DB	's', 00H, '\', 00H, 'm', 00H, 'a', 00H, 'r', 00H, 'i', 00H, 'j'
	DB	00H, '\', 00H, 'O', 00H, 'n', 00H, 'e', 00H, 'D', 00H, 'r', 00H
	DB	'i', 00H, 'v', 00H, 'e', 00H, '\', 00H, 'D', 00H, 'o', 00H, 'c'
	DB	00H, 'u', 00H, 'm', 00H, 'e', 00H, 'n', 00H, 't', 00H, 'e', 00H
	DB	'n', 00H, '\', 00H, 'G', 00H, 'i', 00H, 't', 00H, 'H', 00H, 'u'
	DB	00H, 'b', 00H, '\', 00H, 'N', 00H, 'e', 00H, 'u', 00H, 'r', 00H
	DB	'a', 00H, 'l', 00H, '_', 00H, 'N', 00H, 'e', 00H, 't', 00H, 'w'
	DB	00H, 'o', 00H, 'r', 00H, 'k', 00H, '\', 00H, 'd', 00H, 'e', 00H
	DB	'p', 00H, 'e', 00H, 'n', 00H, 'd', 00H, 'e', 00H, 'n', 00H, 'c'
	DB	00H, 'i', 00H, 'e', 00H, 's', 00H, '\', 00H, 'E', 00H, 'i', 00H
	DB	'g', 00H, 'e', 00H, 'n', 00H, '\', 00H, 's', 00H, 'r', 00H, 'c'
	DB	00H, '\', 00H, 'C', 00H, 'o', 00H, 'r', 00H, 'e', 00H, '\', 00H
	DB	'u', 00H, 't', 00H, 'i', 00H, 'l', 00H, '\', 00H, 'M', 00H, 'e'
	DB	00H, 'm', 00H, 'o', 00H, 'r', 00H, 'y', 00H, '.', 00H, 'h', 00H
	DB	00H, 00H					; `string'
CONST	ENDS
;	COMDAT ??_C@_0DK@CKLHOJNA@Alignment?5must?5be?5at?5least?5size@
CONST	SEGMENT
??_C@_0DK@CKLHOJNA@Alignment?5must?5be?5at?5least?5size@ DB 'Alignment mu'
	DB	'st be at least sizeof(void*) and a power of 2', 00H ; `string'
CONST	ENDS
;	COMDAT ??_C@_0P@GHFPNOJB@bad?5allocation@
CONST	SEGMENT
??_C@_0P@GHFPNOJB@bad?5allocation@ DB 'bad allocation', 00H ; `string'
CONST	ENDS
;	COMDAT ??_C@_0BC@EOODALEL@Unknown?5exception@
CONST	SEGMENT
??_C@_0BC@EOODALEL@Unknown?5exception@ DB 'Unknown exception', 00H ; `string'
CONST	ENDS
PUBLIC	??$construct_elements_of_array@N@internal@Eigen@@YAPEANPEAN_K@Z ; Eigen::internal::construct_elements_of_array<double>
PUBLIC	??$conditional_aligned_malloc@$00@internal@Eigen@@YAPEAX_K@Z ; Eigen::internal::conditional_aligned_malloc<1>
PUBLIC	??$check_size_for_overflow@N@internal@Eigen@@YAX_K@Z ; Eigen::internal::check_size_for_overflow<double>
PUBLIC	??$conditional_aligned_free@$00@internal@Eigen@@YAXPEAX@Z ; Eigen::internal::conditional_aligned_free<1>
PUBLIC	??$destruct_elements_of_array@N@internal@Eigen@@YAXPEAN_K@Z ; Eigen::internal::destruct_elements_of_array<double>
PUBLIC	?derived@?$BaseExpr@V?$SymbolExpr@Usymbolic_last_tag@internal@Eigen@@@symbolic@Eigen@@@symbolic@Eigen@@QEBAAEBV?$SymbolExpr@Usymbolic_last_tag@internal@Eigen@@@23@XZ ; Eigen::symbolic::BaseExpr<Eigen::symbolic::SymbolExpr<Eigen::internal::symbolic_last_tag> >::derived
PUBLIC	??0?$AddExpr@V?$SymbolExpr@Usymbolic_last_tag@internal@Eigen@@@symbolic@Eigen@@V?$ValueExpr@V?$FixedInt@$00@internal@Eigen@@@23@@symbolic@Eigen@@QEAA@AEBV?$SymbolExpr@Usymbolic_last_tag@internal@Eigen@@@12@AEBV?$ValueExpr@V?$FixedInt@$00@internal@Eigen@@@12@@Z ; Eigen::symbolic::AddExpr<Eigen::symbolic::SymbolExpr<Eigen::internal::symbolic_last_tag>,Eigen::symbolic::ValueExpr<Eigen::internal::FixedInt<1> > >::AddExpr<Eigen::symbolic::SymbolExpr<Eigen::internal::symbolic_last_tag>,Eigen::symbolic::ValueExpr<Eigen::internal::FixedInt<1> > >
PUBLIC	??0?$ValueExpr@V?$FixedInt@$00@internal@Eigen@@@symbolic@Eigen@@QEAA@XZ ; Eigen::symbolic::ValueExpr<Eigen::internal::FixedInt<1> >::ValueExpr<Eigen::internal::FixedInt<1> >
PUBLIC	??0?$FixedInt@$00@internal@Eigen@@QEAA@XZ	; Eigen::internal::FixedInt<1>::FixedInt<1>
PUBLIC	??$conditional_aligned_new_auto@N$00@internal@Eigen@@YAPEAN_K@Z ; Eigen::internal::conditional_aligned_new_auto<double,1>
PUBLIC	??$run@_J@?$check_rows_cols_for_overflow@$0?0@internal@Eigen@@SAX_J0@Z ; Eigen::internal::check_rows_cols_for_overflow<-1>::run<__int64>
PUBLIC	??$conditional_aligned_delete_auto@N$00@internal@Eigen@@YAXPEAN_K@Z ; Eigen::internal::conditional_aligned_delete_auto<double,1>
PUBLIC	??$?H$00@?$BaseExpr@V?$SymbolExpr@Usymbolic_last_tag@internal@Eigen@@@symbolic@Eigen@@@symbolic@Eigen@@QEBA?AV?$AddExpr@V?$SymbolExpr@Usymbolic_last_tag@internal@Eigen@@@symbolic@Eigen@@V?$ValueExpr@V?$FixedInt@$00@internal@Eigen@@@23@@12@V?$FixedInt@$00@internal@2@@Z ; Eigen::symbolic::BaseExpr<Eigen::symbolic::SymbolExpr<Eigen::internal::symbolic_last_tag> >::operator+<1>
PUBLIC	??0?$DenseBase@V?$Matrix@N$0?0$0?0$0A@$0?0$0?0@Eigen@@@Eigen@@IEAA@XZ ; Eigen::DenseBase<Eigen::Matrix<double,-1,-1,0,-1,-1> >::DenseBase<Eigen::Matrix<double,-1,-1,0,-1,-1> >
PUBLIC	??0?$DenseStorage@N$0?0$0?0$0?0$0A@@Eigen@@QEAA@XZ ; Eigen::DenseStorage<double,-1,-1,-1,0>::DenseStorage<double,-1,-1,-1,0>
PUBLIC	??0?$DenseBase@V?$Matrix@N$0?0$00$0A@$0?0$00@Eigen@@@Eigen@@IEAA@XZ ; Eigen::DenseBase<Eigen::Matrix<double,-1,1,0,-1,1> >::DenseBase<Eigen::Matrix<double,-1,1,0,-1,1> >
PUBLIC	??0?$DenseStorage@N$0?0$0?0$00$0A@@Eigen@@QEAA@XZ ; Eigen::DenseStorage<double,-1,-1,1,0>::DenseStorage<double,-1,-1,1,0>
PUBLIC	??0?$DenseBase@V?$Matrix@N$0?0$0CNI@$0A@$0?0$0CNI@@Eigen@@@Eigen@@IEAA@XZ ; Eigen::DenseBase<Eigen::Matrix<double,-1,728,0,-1,728> >::DenseBase<Eigen::Matrix<double,-1,728,0,-1,728> >
PUBLIC	??0?$DenseStorage@N$0?0$0?0$0CNI@$0A@@Eigen@@QEAA@XZ ; Eigen::DenseStorage<double,-1,-1,728,0>::DenseStorage<double,-1,-1,728,0>
PUBLIC	??0?$MatrixBase@V?$Matrix@N$0?0$0?0$0A@$0?0$0?0@Eigen@@@Eigen@@IEAA@XZ ; Eigen::MatrixBase<Eigen::Matrix<double,-1,-1,0,-1,-1> >::MatrixBase<Eigen::Matrix<double,-1,-1,0,-1,-1> >
PUBLIC	??0?$MatrixBase@V?$Matrix@N$0?0$00$0A@$0?0$00@Eigen@@@Eigen@@IEAA@XZ ; Eigen::MatrixBase<Eigen::Matrix<double,-1,1,0,-1,1> >::MatrixBase<Eigen::Matrix<double,-1,1,0,-1,1> >
PUBLIC	??0?$MatrixBase@V?$Matrix@N$0?0$0CNI@$0A@$0?0$0CNI@@Eigen@@@Eigen@@IEAA@XZ ; Eigen::MatrixBase<Eigen::Matrix<double,-1,728,0,-1,728> >::MatrixBase<Eigen::Matrix<double,-1,728,0,-1,728> >
PUBLIC	?resize@?$DenseStorage@N$0?0$0?0$0?0$0A@@Eigen@@QEAAX_J00@Z ; Eigen::DenseStorage<double,-1,-1,-1,0>::resize
PUBLIC	??0?$PlainObjectBase@V?$Matrix@N$0?0$0?0$0A@$0?0$0?0@Eigen@@@Eigen@@IEAA@XZ ; Eigen::PlainObjectBase<Eigen::Matrix<double,-1,-1,0,-1,-1> >::PlainObjectBase<Eigen::Matrix<double,-1,-1,0,-1,-1> >
PUBLIC	?_check_template_params@?$PlainObjectBase@V?$Matrix@N$0?0$0?0$0A@$0?0$0?0@Eigen@@@Eigen@@SAXXZ ; Eigen::PlainObjectBase<Eigen::Matrix<double,-1,-1,0,-1,-1> >::_check_template_params
PUBLIC	?resize@?$DenseStorage@N$0?0$0?0$00$0A@@Eigen@@QEAAX_J00@Z ; Eigen::DenseStorage<double,-1,-1,1,0>::resize
PUBLIC	??0?$PlainObjectBase@V?$Matrix@N$0?0$00$0A@$0?0$00@Eigen@@@Eigen@@IEAA@XZ ; Eigen::PlainObjectBase<Eigen::Matrix<double,-1,1,0,-1,1> >::PlainObjectBase<Eigen::Matrix<double,-1,1,0,-1,1> >
PUBLIC	?_check_template_params@?$PlainObjectBase@V?$Matrix@N$0?0$00$0A@$0?0$00@Eigen@@@Eigen@@SAXXZ ; Eigen::PlainObjectBase<Eigen::Matrix<double,-1,1,0,-1,1> >::_check_template_params
PUBLIC	??0?$PlainObjectBase@V?$Matrix@N$0?0$0CNI@$0A@$0?0$0CNI@@Eigen@@@Eigen@@IEAA@XZ ; Eigen::PlainObjectBase<Eigen::Matrix<double,-1,728,0,-1,728> >::PlainObjectBase<Eigen::Matrix<double,-1,728,0,-1,728> >
PUBLIC	?_check_template_params@?$PlainObjectBase@V?$Matrix@N$0?0$0CNI@$0A@$0?0$0CNI@@Eigen@@@Eigen@@SAXXZ ; Eigen::PlainObjectBase<Eigen::Matrix<double,-1,728,0,-1,728> >::_check_template_params
PUBLIC	??1?$DenseStorage@N$0?0$0?0$0?0$0A@@Eigen@@QEAA@XZ ; Eigen::DenseStorage<double,-1,-1,-1,0>::~DenseStorage<double,-1,-1,-1,0>
PUBLIC	?resize@?$PlainObjectBase@V?$Matrix@N$0?0$0?0$0A@$0?0$0?0@Eigen@@@Eigen@@QEAAX_J0@Z ; Eigen::PlainObjectBase<Eigen::Matrix<double,-1,-1,0,-1,-1> >::resize
PUBLIC	??0?$Matrix@N$0?0$0?0$0A@$0?0$0?0@Eigen@@QEAA@XZ ; Eigen::Matrix<double,-1,-1,0,-1,-1>::Matrix<double,-1,-1,0,-1,-1>
PUBLIC	??1?$DenseStorage@N$0?0$0?0$00$0A@@Eigen@@QEAA@XZ ; Eigen::DenseStorage<double,-1,-1,1,0>::~DenseStorage<double,-1,-1,1,0>
PUBLIC	?resize@?$PlainObjectBase@V?$Matrix@N$0?0$00$0A@$0?0$00@Eigen@@@Eigen@@QEAAX_J@Z ; Eigen::PlainObjectBase<Eigen::Matrix<double,-1,1,0,-1,1> >::resize
PUBLIC	??0?$Matrix@N$0?0$00$0A@$0?0$00@Eigen@@QEAA@XZ	; Eigen::Matrix<double,-1,1,0,-1,1>::Matrix<double,-1,1,0,-1,1>
PUBLIC	??1?$DenseStorage@N$0?0$0?0$0CNI@$0A@@Eigen@@QEAA@XZ ; Eigen::DenseStorage<double,-1,-1,728,0>::~DenseStorage<double,-1,-1,728,0>
PUBLIC	??0?$Matrix@N$0?0$0CNI@$0A@$0?0$0CNI@@Eigen@@QEAA@XZ ; Eigen::Matrix<double,-1,728,0,-1,728>::Matrix<double,-1,728,0,-1,728>
PUBLIC	??1?$PlainObjectBase@V?$Matrix@N$0?0$00$0A@$0?0$00@Eigen@@@Eigen@@QEAA@XZ ; Eigen::PlainObjectBase<Eigen::Matrix<double,-1,1,0,-1,1> >::~PlainObjectBase<Eigen::Matrix<double,-1,1,0,-1,1> >
PUBLIC	??1?$Matrix@N$0?0$00$0A@$0?0$00@Eigen@@QEAA@XZ	; Eigen::Matrix<double,-1,1,0,-1,1>::~Matrix<double,-1,1,0,-1,1>
PUBLIC	??1?$PlainObjectBase@V?$Matrix@N$0?0$0?0$0A@$0?0$0?0@Eigen@@@Eigen@@QEAA@XZ ; Eigen::PlainObjectBase<Eigen::Matrix<double,-1,-1,0,-1,-1> >::~PlainObjectBase<Eigen::Matrix<double,-1,-1,0,-1,-1> >
PUBLIC	??1?$Matrix@N$0?0$0?0$0A@$0?0$0?0@Eigen@@QEAA@XZ ; Eigen::Matrix<double,-1,-1,0,-1,-1>::~Matrix<double,-1,-1,0,-1,-1>
PUBLIC	??_G?$Matrix@N$0?0$0CNI@$0A@$0?0$0CNI@@Eigen@@QEAAPEAXI@Z ; Eigen::Matrix<double,-1,728,0,-1,728>::`scalar deleting destructor'
PUBLIC	??_E?$Matrix@N$0?0$00$0A@$0?0$00@Eigen@@QEAAPEAXI@Z ; Eigen::Matrix<double,-1,1,0,-1,1>::`vector deleting destructor'
PUBLIC	??_E?$Matrix@N$0?0$0?0$0A@$0?0$0?0@Eigen@@QEAAPEAXI@Z ; Eigen::Matrix<double,-1,-1,0,-1,-1>::`vector deleting destructor'
PUBLIC	??1?$PlainObjectBase@V?$Matrix@N$0?0$0CNI@$0A@$0?0$0CNI@@Eigen@@@Eigen@@QEAA@XZ ; Eigen::PlainObjectBase<Eigen::Matrix<double,-1,728,0,-1,728> >::~PlainObjectBase<Eigen::Matrix<double,-1,728,0,-1,728> >
PUBLIC	??1?$Matrix@N$0?0$0CNI@$0A@$0?0$0CNI@@Eigen@@QEAA@XZ ; Eigen::Matrix<double,-1,728,0,-1,728>::~Matrix<double,-1,728,0,-1,728>
PUBLIC	??0?$SymbolExpr@Usymbolic_last_tag@internal@Eigen@@@symbolic@Eigen@@QEAA@XZ ; Eigen::symbolic::SymbolExpr<Eigen::internal::symbolic_last_tag>::SymbolExpr<Eigen::internal::symbolic_last_tag>
PUBLIC	??R?$FixedInt@$00@internal@Eigen@@QEBA?AV012@XZ	; Eigen::internal::FixedInt<1>::operator()
PUBLIC	??1?$Data@CV?$Matrix@N$0BM@$0BM@$0A@$0BM@$0BM@@Eigen@@@Neural@@QEAA@XZ ; Neural::Data<signed char,Eigen::Matrix<double,28,28,0,28,28> >::~Data<signed char,Eigen::Matrix<double,28,28,0,28,28> >
PUBLIC	??0?$Network@$0CNI@$09@Neural@@QEAA@_KZZ	; Neural::Network<728,10>::Network<728,10>
PUBLIC	??1?$Network@$0CNI@$09@Neural@@QEAA@XZ		; Neural::Network<728,10>::~Network<728,10>
PUBLIC	??1Data_Set@Mnist@@QEAA@XZ			; Mnist::Data_Set::~Data_Set
PUBLIC	?__autoclassinit2@?$Network@$0CNI@$09@Neural@@QEAAX_K@Z ; Neural::Network<728,10>::__autoclassinit2
PUBLIC	main
PUBLIC	??0all_t@internal@Eigen@@QEAA@XZ		; Eigen::internal::all_t::all_t
PUBLIC	??_H@YAXPEAX_K1P6APEAX0@Z@Z			; `vector constructor iterator'
PUBLIC	?aligned_free@internal@Eigen@@YAXPEAX@Z		; Eigen::internal::aligned_free
PUBLIC	?aligned_malloc@internal@Eigen@@YAPEAX_K@Z	; Eigen::internal::aligned_malloc
PUBLIC	?check_that_malloc_is_allowed@internal@Eigen@@YAXXZ ; Eigen::internal::check_that_malloc_is_allowed
PUBLIC	?handmade_aligned_free@internal@Eigen@@YAXPEAX@Z ; Eigen::internal::handmade_aligned_free
PUBLIC	?handmade_aligned_malloc@internal@Eigen@@YAPEAX_K0@Z ; Eigen::internal::handmade_aligned_malloc
PUBLIC	?throw_std_bad_alloc@internal@Eigen@@YAXXZ	; Eigen::internal::throw_std_bad_alloc
PUBLIC	??0bad_alloc@std@@QEAA@AEBV01@@Z		; std::bad_alloc::bad_alloc
PUBLIC	??1bad_alloc@std@@UEAA@XZ			; std::bad_alloc::~bad_alloc
PUBLIC	??_Gbad_alloc@std@@UEAAPEAXI@Z			; std::bad_alloc::`scalar deleting destructor'
PUBLIC	??0bad_alloc@std@@QEAA@XZ			; std::bad_alloc::bad_alloc
PUBLIC	??_Gexception@std@@UEAAPEAXI@Z			; std::exception::`scalar deleting destructor'
PUBLIC	?what@exception@std@@UEBAPEBDXZ			; std::exception::what
PUBLIC	??1exception@std@@UEAA@XZ			; std::exception::~exception
PUBLIC	??0exception@std@@QEAA@AEBV01@@Z		; std::exception::exception
PUBLIC	??0exception@std@@QEAA@QEBDH@Z			; std::exception::exception
PUBLIC	??2@YAPEAX_KPEAX@Z				; operator new
PUBLIC	__real@406fe00000000000
EXTRN	__std_terminate:PROC
EXTRN	??_Eexception@std@@UEAAPEAXI@Z:PROC		; std::exception::`vector deleting destructor'
EXTRN	??_Ebad_alloc@std@@UEAAPEAXI@Z:PROC		; std::bad_alloc::`vector deleting destructor'
EXTRN	_CxxThrowException:PROC
EXTRN	__CxxFrameHandler4:PROC
EXTRN	__GSHandlerCheck:PROC
EXTRN	__GSHandlerCheck_EH4:PROC
EXTRN	memcpy:PROC
EXTRN	memmove:PROC
EXTRN	memset:PROC
EXTRN	__security_cookie:QWORD
EXTRN	_fltused:DWORD
;	COMDAT pdata
pdata	SEGMENT
$pdata$??$conditional_aligned_malloc@$00@internal@Eigen@@YAPEAX_K@Z DD imagerel $LN16@conditiona
	DD	imagerel $LN16@conditiona+69
	DD	imagerel $unwind$??$conditional_aligned_malloc@$00@internal@Eigen@@YAPEAX_K@Z
pdata	ENDS
;	COMDAT pdata
pdata	SEGMENT
$pdata$??$check_size_for_overflow@N@internal@Eigen@@YAX_K@Z DD imagerel $LN7@check_size
	DD	imagerel $LN7@check_size+30
	DD	imagerel $unwind$??$check_size_for_overflow@N@internal@Eigen@@YAX_K@Z
pdata	ENDS
;	COMDAT pdata
pdata	SEGMENT
$pdata$??$conditional_aligned_new_auto@N$00@internal@Eigen@@YAPEAN_K@Z DD imagerel $LN32@conditiona
	DD	imagerel $LN32@conditiona+38
	DD	imagerel $unwind$??$conditional_aligned_new_auto@N$00@internal@Eigen@@YAPEAN_K@Z
pdata	ENDS
;	COMDAT pdata
pdata	SEGMENT
$pdata$0$??$conditional_aligned_new_auto@N$00@internal@Eigen@@YAPEAN_K@Z DD imagerel $LN32@conditiona+38
	DD	imagerel $LN32@conditiona+105
	DD	imagerel $chain$0$??$conditional_aligned_new_auto@N$00@internal@Eigen@@YAPEAN_K@Z
pdata	ENDS
;	COMDAT pdata
pdata	SEGMENT
$pdata$1$??$conditional_aligned_new_auto@N$00@internal@Eigen@@YAPEAN_K@Z DD imagerel $LN32@conditiona+105
	DD	imagerel $LN32@conditiona+111
	DD	imagerel $chain$1$??$conditional_aligned_new_auto@N$00@internal@Eigen@@YAPEAN_K@Z
pdata	ENDS
;	COMDAT pdata
pdata	SEGMENT
$pdata$2$??$conditional_aligned_new_auto@N$00@internal@Eigen@@YAPEAN_K@Z DD imagerel $LN32@conditiona+111
	DD	imagerel $LN32@conditiona+117
	DD	imagerel $chain$2$??$conditional_aligned_new_auto@N$00@internal@Eigen@@YAPEAN_K@Z
pdata	ENDS
;	COMDAT pdata
pdata	SEGMENT
$pdata$??$run@_J@?$check_rows_cols_for_overflow@$0?0@internal@Eigen@@SAX_J0@Z DD imagerel $LN9@run
	DD	imagerel $LN9@run+48
	DD	imagerel $unwind$??$run@_J@?$check_rows_cols_for_overflow@$0?0@internal@Eigen@@SAX_J0@Z
pdata	ENDS
;	COMDAT pdata
pdata	SEGMENT
$pdata$?resize@?$DenseStorage@N$0?0$0?0$0?0$0A@@Eigen@@QEAAX_J00@Z DD imagerel $LN18@resize
	DD	imagerel $LN18@resize+136
	DD	imagerel $unwind$?resize@?$DenseStorage@N$0?0$0?0$0?0$0A@@Eigen@@QEAAX_J00@Z
pdata	ENDS
;	COMDAT pdata
pdata	SEGMENT
$pdata$?resize@?$DenseStorage@N$0?0$0?0$00$0A@@Eigen@@QEAAX_J00@Z DD imagerel $LN18@resize
	DD	imagerel $LN18@resize+131
	DD	imagerel $unwind$?resize@?$DenseStorage@N$0?0$0?0$00$0A@@Eigen@@QEAAX_J00@Z
pdata	ENDS
;	COMDAT pdata
pdata	SEGMENT
$pdata$?resize@?$PlainObjectBase@V?$Matrix@N$0?0$0?0$0A@$0?0$0?0@Eigen@@@Eigen@@QEAAX_J0@Z DD imagerel $LN29@resize
	DD	imagerel $LN29@resize+99
	DD	imagerel $unwind$?resize@?$PlainObjectBase@V?$Matrix@N$0?0$0?0$0A@$0?0$0?0@Eigen@@@Eigen@@QEAAX_J0@Z
pdata	ENDS
;	COMDAT pdata
pdata	SEGMENT
$pdata$0$?resize@?$PlainObjectBase@V?$Matrix@N$0?0$0?0$0A@$0?0$0?0@Eigen@@@Eigen@@QEAAX_J0@Z DD imagerel $LN29@resize+99
	DD	imagerel $LN29@resize+188
	DD	imagerel $chain$0$?resize@?$PlainObjectBase@V?$Matrix@N$0?0$0?0$0A@$0?0$0?0@Eigen@@@Eigen@@QEAAX_J0@Z
pdata	ENDS
;	COMDAT pdata
pdata	SEGMENT
$pdata$1$?resize@?$PlainObjectBase@V?$Matrix@N$0?0$0?0$0A@$0?0$0?0@Eigen@@@Eigen@@QEAAX_J0@Z DD imagerel $LN29@resize+188
	DD	imagerel $LN29@resize+194
	DD	imagerel $chain$1$?resize@?$PlainObjectBase@V?$Matrix@N$0?0$0?0$0A@$0?0$0?0@Eigen@@@Eigen@@QEAAX_J0@Z
pdata	ENDS
;	COMDAT pdata
pdata	SEGMENT
$pdata$?resize@?$PlainObjectBase@V?$Matrix@N$0?0$00$0A@$0?0$00@Eigen@@@Eigen@@QEAAX_J@Z DD imagerel $LN39@resize
	DD	imagerel $LN39@resize+124
	DD	imagerel $unwind$?resize@?$PlainObjectBase@V?$Matrix@N$0?0$00$0A@$0?0$00@Eigen@@@Eigen@@QEAAX_J@Z
pdata	ENDS
;	COMDAT pdata
pdata	SEGMENT
$pdata$??_G?$Matrix@N$0?0$0CNI@$0A@$0?0$0CNI@@Eigen@@QEAAPEAXI@Z DD imagerel $LN24
	DD	imagerel $LN24+49
	DD	imagerel $unwind$??_G?$Matrix@N$0?0$0CNI@$0A@$0?0$0CNI@@Eigen@@QEAAPEAXI@Z
pdata	ENDS
;	COMDAT pdata
pdata	SEGMENT
$pdata$??_E?$Matrix@N$0?0$00$0A@$0?0$00@Eigen@@QEAAPEAXI@Z DD imagerel $LN26@vector
	DD	imagerel $LN26@vector+58
	DD	imagerel $unwind$??_E?$Matrix@N$0?0$00$0A@$0?0$00@Eigen@@QEAAPEAXI@Z
pdata	ENDS
;	COMDAT pdata
pdata	SEGMENT
$pdata$??_E?$Matrix@N$0?0$0?0$0A@$0?0$0?0@Eigen@@QEAAPEAXI@Z DD imagerel $LN26@vector
	DD	imagerel $LN26@vector+62
	DD	imagerel $unwind$??_E?$Matrix@N$0?0$0?0$0A@$0?0$0?0@Eigen@@QEAAPEAXI@Z
pdata	ENDS
;	COMDAT pdata
pdata	SEGMENT
$pdata$??1?$Data@CV?$Matrix@N$0BM@$0BM@$0A@$0BM@$0BM@@Eigen@@@Neural@@QEAA@XZ DD imagerel $LN7@Data
	DD	imagerel $LN7@Data+52
	DD	imagerel $unwind$??1?$Data@CV?$Matrix@N$0BM@$0BM@$0A@$0BM@$0BM@@Eigen@@@Neural@@QEAA@XZ
pdata	ENDS
;	COMDAT pdata
pdata	SEGMENT
$pdata$??0?$Network@$0CNI@$09@Neural@@QEAA@_KZZ DD imagerel $LN126@Network
	DD	imagerel $LN126@Network+744
	DD	imagerel $unwind$??0?$Network@$0CNI@$09@Neural@@QEAA@_KZZ
pdata	ENDS
;	COMDAT pdata
pdata	SEGMENT
$pdata$?dtor$1@?0???0?$Network@$0CNI@$09@Neural@@QEAA@_KZZ@4HA DD imagerel ?dtor$1@?0???0?$Network@$0CNI@$09@Neural@@QEAA@_KZZ@4HA
	DD	imagerel ?dtor$1@?0???0?$Network@$0CNI@$09@Neural@@QEAA@_KZZ@4HA+62
	DD	imagerel $unwind$?dtor$1@?0???0?$Network@$0CNI@$09@Neural@@QEAA@_KZZ@4HA
pdata	ENDS
;	COMDAT pdata
pdata	SEGMENT
$pdata$?dtor$2@?0???0?$Network@$0CNI@$09@Neural@@QEAA@_KZZ@4HA DD imagerel ?dtor$2@?0???0?$Network@$0CNI@$09@Neural@@QEAA@_KZZ@4HA
	DD	imagerel ?dtor$2@?0???0?$Network@$0CNI@$09@Neural@@QEAA@_KZZ@4HA+62
	DD	imagerel $unwind$?dtor$2@?0???0?$Network@$0CNI@$09@Neural@@QEAA@_KZZ@4HA
pdata	ENDS
;	COMDAT pdata
pdata	SEGMENT
$pdata$??1?$Network@$0CNI@$09@Neural@@QEAA@XZ DD imagerel $LN98
	DD	imagerel $LN98+184
	DD	imagerel $unwind$??1?$Network@$0CNI@$09@Neural@@QEAA@XZ
pdata	ENDS
;	COMDAT pdata
pdata	SEGMENT
$pdata$??1Data_Set@Mnist@@QEAA@XZ DD imagerel $LN9@Data_Set
	DD	imagerel $LN9@Data_Set+52
	DD	imagerel $unwind$??1Data_Set@Mnist@@QEAA@XZ
pdata	ENDS
;	COMDAT pdata
pdata	SEGMENT
$pdata$main DD	imagerel $LN161
	DD	imagerel $LN161+646
	DD	imagerel $unwind$main
pdata	ENDS
;	COMDAT pdata
pdata	SEGMENT
$pdata$??_H@YAXPEAX_K1P6APEAX0@Z@Z DD imagerel $LN12@vector
	DD	imagerel $LN12@vector+53
	DD	imagerel $unwind$??_H@YAXPEAX_K1P6APEAX0@Z@Z
pdata	ENDS
;	COMDAT pdata
pdata	SEGMENT
$pdata$?aligned_malloc@internal@Eigen@@YAPEAX_K@Z DD imagerel $LN13@aligned_ma
	DD	imagerel $LN13@aligned_ma+69
	DD	imagerel $unwind$?aligned_malloc@internal@Eigen@@YAPEAX_K@Z
pdata	ENDS
;	COMDAT pdata
pdata	SEGMENT
$pdata$?handmade_aligned_malloc@internal@Eigen@@YAPEAX_K0@Z DD imagerel $LN7@handmade_a
	DD	imagerel $LN7@handmade_a+55
	DD	imagerel $unwind$?handmade_aligned_malloc@internal@Eigen@@YAPEAX_K0@Z
pdata	ENDS
;	COMDAT pdata
pdata	SEGMENT
$pdata$?throw_std_bad_alloc@internal@Eigen@@YAXXZ DD imagerel $LN4@throw_std_
	DD	imagerel $LN4@throw_std_+32
	DD	imagerel $unwind$?throw_std_bad_alloc@internal@Eigen@@YAXXZ
pdata	ENDS
;	COMDAT pdata
pdata	SEGMENT
$pdata$??0bad_alloc@std@@QEAA@AEBV01@@Z DD imagerel $LN7@bad_alloc
	DD	imagerel $LN7@bad_alloc+63
	DD	imagerel $unwind$??0bad_alloc@std@@QEAA@AEBV01@@Z
pdata	ENDS
;	COMDAT pdata
pdata	SEGMENT
$pdata$??_Gbad_alloc@std@@UEAAPEAXI@Z DD imagerel $LN12@scalar
	DD	imagerel $LN12@scalar+67
	DD	imagerel $unwind$??_Gbad_alloc@std@@UEAAPEAXI@Z
pdata	ENDS
;	COMDAT pdata
pdata	SEGMENT
$pdata$??_Gexception@std@@UEAAPEAXI@Z DD imagerel $LN9@scalar
	DD	imagerel $LN9@scalar+67
	DD	imagerel $unwind$??_Gexception@std@@UEAAPEAXI@Z
pdata	ENDS
;	COMDAT pdata
pdata	SEGMENT
$pdata$??0exception@std@@QEAA@AEBV01@@Z DD imagerel $LN5@exception
	DD	imagerel $LN5@exception+53
	DD	imagerel $unwind$??0exception@std@@QEAA@AEBV01@@Z
;	COMDAT __real@406fe00000000000
CONST	SEGMENT
__real@406fe00000000000 DQ 0406fe00000000000r	; 255
CONST	ENDS
;	COMDAT xdata
xdata	SEGMENT
$unwind$??0exception@std@@QEAA@AEBV01@@Z DQ 03002320600020601r ; 1.96423e-77
xdata	ENDS
;	COMDAT xdata
xdata	SEGMENT
$unwind$??_Gexception@std@@UEAAPEAXI@Z DQ 00006340a00040a01r ; 8.62672e-309
	DD	07006320aH
xdata	ENDS
;	COMDAT xdata
xdata	SEGMENT
$unwind$??_Gbad_alloc@std@@UEAAPEAXI@Z DQ 00006340a00040a01r ; 8.62672e-309
	DD	07006320aH
xdata	ENDS
;	COMDAT xdata
xdata	SEGMENT
$unwind$??0bad_alloc@std@@QEAA@AEBV01@@Z DQ 03002320600020601r ; 1.96423e-77
xdata	ENDS
;	COMDAT xdata
xdata	SEGMENT
$unwind$?throw_std_bad_alloc@internal@Eigen@@YAXXZ DQ 00000820400010401r ; 7.06285e-310
xdata	ENDS
;	COMDAT xdata
xdata	SEGMENT
$unwind$?handmade_aligned_malloc@internal@Eigen@@YAPEAX_K0@Z DQ 00000420400010401r ; 3.58617e-310
xdata	ENDS
;	COMDAT xdata
xdata	SEGMENT
$unwind$?aligned_malloc@internal@Eigen@@YAPEAX_K@Z DQ 03002320600020601r ; 1.96423e-77
xdata	ENDS
;	COMDAT xdata
xdata	SEGMENT
$unwind$??_H@YAXPEAX_K1P6APEAX0@Z@Z DQ 00006340f00040f01r ; 8.62683e-309
	DD	0700b320fH
xdata	ENDS
;	COMDAT xdata
xdata	SEGMENT
$ip2state$main DB 08H
	DB	0aeH
	DB	00H
	DB	016H
	DB	02H
	DB	081H, 05H
	DB	04H
	DB	0aeH
	DB	00H
xdata	ENDS
;	COMDAT xdata
xdata	SEGMENT
$stateUnwindMap$main DB 04H
	DB	0aH
	DD	imagerel ??1?$Network@$0CNI@$09@Neural@@QEAA@XZ
	DB	090H
	DB	03eH
	DD	imagerel __imp___std_terminate
xdata	ENDS
;	COMDAT xdata
xdata	SEGMENT
$cppxdata$main DB 028H
	DD	imagerel $stateUnwindMap$main
	DD	imagerel $ip2state$main
xdata	ENDS
;	COMDAT xdata
xdata	SEGMENT
$unwind$main DD	0f3419H
	DD	086825H
	DD	01a641fH
	DD	019541fH
	DD	018341fH
	DD	012011fH
	DD	0e016f018H
	DD	0c012d014H
	DD	07010H
	DD	imagerel __GSHandlerCheck_EH4
	DD	imagerel $cppxdata$main
	DD	072H
xdata	ENDS
;	COMDAT xdata
xdata	SEGMENT
$unwind$??1Data_Set@Mnist@@QEAA@XZ DQ 03002320600020601r ; 1.96423e-77
xdata	ENDS
;	COMDAT xdata
xdata	SEGMENT
$ip2state$??1?$Network@$0CNI@$09@Neural@@QEAA@XZ DB 04H
	DB	'R'
	DB	02H
	DB	0a4H
	DB	00H
xdata	ENDS
;	COMDAT xdata
xdata	SEGMENT
$stateUnwindMap$??1?$Network@$0CNI@$09@Neural@@QEAA@XZ DB 02H
	DB	0eH
	DD	imagerel __imp___std_terminate
xdata	ENDS
;	COMDAT xdata
xdata	SEGMENT
$cppxdata$??1?$Network@$0CNI@$09@Neural@@QEAA@XZ DB 068H
	DD	imagerel $stateUnwindMap$??1?$Network@$0CNI@$09@Neural@@QEAA@XZ
	DD	imagerel $ip2state$??1?$Network@$0CNI@$09@Neural@@QEAA@XZ
xdata	ENDS
;	COMDAT xdata
xdata	SEGMENT
$unwind$??1?$Network@$0CNI@$09@Neural@@QEAA@XZ DD 040a19H
	DD	06340aH
	DD	07006320aH
	DD	imagerel __CxxFrameHandler4
	DD	imagerel $cppxdata$??1?$Network@$0CNI@$09@Neural@@QEAA@XZ
xdata	ENDS
;	COMDAT xdata
xdata	SEGMENT
$unwind$?dtor$2@?0???0?$Network@$0CNI@$09@Neural@@QEAA@_KZZ@4HA DQ 05002320600020601r ; 2.6336e+77
xdata	ENDS
;	COMDAT xdata
xdata	SEGMENT
$unwind$?dtor$1@?0???0?$Network@$0CNI@$09@Neural@@QEAA@_KZZ@4HA DQ 05002320600020601r ; 2.6336e+77
xdata	ENDS
;	COMDAT xdata
xdata	SEGMENT
$ip2state$??0?$Network@$0CNI@$09@Neural@@QEAA@_KZZ DQ 05a0264045a02c80er ; 3.89033e+125
	DQ	0280004990202e106r		; 5.08158e-116
	DB	02H
xdata	ENDS
;	COMDAT xdata
xdata	SEGMENT
$stateUnwindMap$??0?$Network@$0CNI@$09@Neural@@QEAA@_KZZ DW 0c06H
	DD	imagerel ??1?$Matrix@N$0?0$0CNI@$0A@$0?0$0CNI@@Eigen@@QEAA@XZ
	DW	03680H
	DD	imagerel ?dtor$1@?0???0?$Network@$0CNI@$09@Neural@@QEAA@_KZZ@4HA
	DB	05eH
	DD	imagerel ?dtor$2@?0???0?$Network@$0CNI@$09@Neural@@QEAA@_KZZ@4HA
xdata	ENDS
;	COMDAT xdata
xdata	SEGMENT
$cppxdata$??0?$Network@$0CNI@$09@Neural@@QEAA@_KZZ DB 028H
	DD	imagerel $stateUnwindMap$??0?$Network@$0CNI@$09@Neural@@QEAA@_KZZ
	DD	imagerel $ip2state$??0?$Network@$0CNI@$09@Neural@@QEAA@_KZZ
xdata	ENDS
;	COMDAT xdata
xdata	SEGMENT
$unwind$??0?$Network@$0CNI@$09@Neural@@QEAA@_KZZ DQ 0f01ba21f00091f11r ; -1.07253e+232
	DQ	07013c015d017e019r		; 7.66569e+231
	DQ	00000301050116012r		; 2.61097e-310
	DD	imagerel __CxxFrameHandler4
	DD	imagerel $cppxdata$??0?$Network@$0CNI@$09@Neural@@QEAA@_KZZ
xdata	ENDS
;	COMDAT xdata
xdata	SEGMENT
$unwind$??1?$Data@CV?$Matrix@N$0BM@$0BM@$0A@$0BM@$0BM@@Eigen@@@Neural@@QEAA@XZ DQ 03002320600020601r ; 1.96423e-77
xdata	ENDS
;	COMDAT xdata
xdata	SEGMENT
$ip2state$??_E?$Matrix@N$0?0$0?0$0A@$0?0$0?0@Eigen@@QEAAPEAXI@Z DW 03202H
	DB	00H
xdata	ENDS
;	COMDAT xdata
xdata	SEGMENT
$cppxdata$??_E?$Matrix@N$0?0$0?0$0A@$0?0$0?0@Eigen@@QEAAPEAXI@Z DB 060H
	DD	imagerel $ip2state$??_E?$Matrix@N$0?0$0?0$0A@$0?0$0?0@Eigen@@QEAAPEAXI@Z
xdata	ENDS
;	COMDAT xdata
xdata	SEGMENT
$unwind$??_E?$Matrix@N$0?0$0?0$0A@$0?0$0?0@Eigen@@QEAAPEAXI@Z DQ 03002320600020619r ; 1.96423e-77
	DD	imagerel __CxxFrameHandler4
	DD	imagerel $cppxdata$??_E?$Matrix@N$0?0$0?0$0A@$0?0$0?0@Eigen@@QEAAPEAXI@Z
xdata	ENDS
;	COMDAT xdata
xdata	SEGMENT
$ip2state$??_E?$Matrix@N$0?0$00$0A@$0?0$00@Eigen@@QEAAPEAXI@Z DW 03202H
	DB	00H
xdata	ENDS
;	COMDAT xdata
xdata	SEGMENT
$cppxdata$??_E?$Matrix@N$0?0$00$0A@$0?0$00@Eigen@@QEAAPEAXI@Z DB 060H
	DD	imagerel $ip2state$??_E?$Matrix@N$0?0$00$0A@$0?0$00@Eigen@@QEAAPEAXI@Z
xdata	ENDS
;	COMDAT xdata
xdata	SEGMENT
$unwind$??_E?$Matrix@N$0?0$00$0A@$0?0$00@Eigen@@QEAAPEAXI@Z DQ 03002320600020619r ; 1.96423e-77
	DD	imagerel __CxxFrameHandler4
	DD	imagerel $cppxdata$??_E?$Matrix@N$0?0$00$0A@$0?0$00@Eigen@@QEAAPEAXI@Z
xdata	ENDS
;	COMDAT xdata
xdata	SEGMENT
$unwind$??_G?$Matrix@N$0?0$0CNI@$0A@$0?0$0CNI@@Eigen@@QEAAPEAXI@Z DD 020601H
	DD	030023206H
xdata	ENDS
;	COMDAT xdata
xdata	SEGMENT
$unwind$?resize@?$PlainObjectBase@V?$Matrix@N$0?0$00$0A@$0?0$00@Eigen@@@Eigen@@QEAAX_J@Z DQ 00006340a00040a01r ; 8.62672e-309
	DD	07006320aH
xdata	ENDS
;	COMDAT xdata
xdata	SEGMENT
$chain$1$?resize@?$PlainObjectBase@V?$Matrix@N$0?0$0?0$0A@$0?0$0?0@Eigen@@@Eigen@@QEAAX_J0@Z DD 021H
	DD	imagerel $LN29@resize
	DD	imagerel $LN29@resize+99
	DD	imagerel $unwind$?resize@?$PlainObjectBase@V?$Matrix@N$0?0$0?0$0A@$0?0$0?0@Eigen@@@Eigen@@QEAAX_J0@Z
xdata	ENDS
;	COMDAT xdata
xdata	SEGMENT
$chain$0$?resize@?$PlainObjectBase@V?$Matrix@N$0?0$0?0$0A@$0?0$0?0@Eigen@@@Eigen@@QEAAX_J0@Z DQ 00006540500020521r ; 8.80045e-309
	DD	imagerel $LN29@resize
	DD	imagerel $LN29@resize+99
	DD	imagerel $unwind$?resize@?$PlainObjectBase@V?$Matrix@N$0?0$0?0$0A@$0?0$0?0@Eigen@@@Eigen@@QEAAX_J0@Z
xdata	ENDS
;	COMDAT xdata
xdata	SEGMENT
$unwind$?resize@?$PlainObjectBase@V?$Matrix@N$0?0$0?0$0A@$0?0$0?0@Eigen@@@Eigen@@QEAAX_J0@Z DQ 00008640f00060f01r ; 1.16689e-308
	DQ	0700b320f0007340fr		; 5.2777e+231
xdata	ENDS
;	COMDAT xdata
xdata	SEGMENT
$unwind$?resize@?$DenseStorage@N$0?0$0?0$00$0A@@Eigen@@QEAAX_J00@Z DQ 00007640f00060f01r ; 1.02782e-308
	DQ	0700b320f0006340fr		; 5.2777e+231
xdata	ENDS
;	COMDAT xdata
xdata	SEGMENT
$unwind$?resize@?$DenseStorage@N$0?0$0?0$0?0$0A@@Eigen@@QEAAX_J00@Z DQ 00008641400081401r ; 1.1669e-308
	DQ	00006341400075414r		; 8.62693e-309
	DD	070103214H
xdata	ENDS
;	COMDAT xdata
xdata	SEGMENT
$unwind$??$run@_J@?$check_rows_cols_for_overflow@$0?0@internal@Eigen@@SAX_J0@Z DQ 00000420400010401r ; 3.58617e-310
xdata	ENDS
;	COMDAT xdata
xdata	SEGMENT
$chain$2$??$conditional_aligned_new_auto@N$00@internal@Eigen@@YAPEAN_K@Z DQ 00004340000020021r ; 5.84516e-309
	DD	imagerel $LN32@conditiona
	DD	imagerel $LN32@conditiona+38
	DD	imagerel $unwind$??$conditional_aligned_new_auto@N$00@internal@Eigen@@YAPEAN_K@Z
xdata	ENDS
;	COMDAT xdata
xdata	SEGMENT
$chain$1$??$conditional_aligned_new_auto@N$00@internal@Eigen@@YAPEAN_K@Z DD 021H
	DD	imagerel $LN32@conditiona
	DD	imagerel $LN32@conditiona+38
	DD	imagerel $unwind$??$conditional_aligned_new_auto@N$00@internal@Eigen@@YAPEAN_K@Z
xdata	ENDS
;	COMDAT xdata
xdata	SEGMENT
$chain$0$??$conditional_aligned_new_auto@N$00@internal@Eigen@@YAPEAN_K@Z DQ 00004340500020521r ; 5.84527e-309
	DD	imagerel $LN32@conditiona
	DD	imagerel $LN32@conditiona+38
	DD	imagerel $unwind$??$conditional_aligned_new_auto@N$00@internal@Eigen@@YAPEAN_K@Z
xdata	ENDS
;	COMDAT xdata
xdata	SEGMENT
$unwind$??$conditional_aligned_new_auto@N$00@internal@Eigen@@YAPEAN_K@Z DQ 00000420400010401r ; 3.58617e-310
xdata	ENDS
;	COMDAT xdata
xdata	SEGMENT
$unwind$??$check_size_for_overflow@N@internal@Eigen@@YAX_K@Z DQ 00000420400010401r ; 3.58617e-310
xdata	ENDS
;	COMDAT xdata
xdata	SEGMENT
$unwind$??$conditional_aligned_malloc@$00@internal@Eigen@@YAPEAX_K@Z DQ 03002320600020601r ; 1.96423e-77
xdata	ENDS
; Function compile flags: /Ogtpy
; File C:\Users\marij\OneDrive\Documenten\GitHub\Neural_Network\src\main.cpp
; File C:\Users\marij\OneDrive\Documenten\GitHub\Neural_Network\src\mnist.cpp
; File C:\Users\marij\OneDrive\Documenten\GitHub\Neural_Network\dependencies\Eigen\src\Core\DenseCoeffsBase.h
; File C:\Users\marij\OneDrive\Documenten\GitHub\Neural_Network\src\mnist.cpp
; File C:\Users\marij\OneDrive\Documenten\GitHub\Neural_Network\src\neural_network.hpp
; File C:\Users\marij\OneDrive\Documenten\GitHub\Neural_Network\dependencies\Eigen\src\Core\util\Memory.h
; File C:\Users\marij\OneDrive\Documenten\GitHub\Neural_Network\src\main.cpp
;	COMDAT main
_TEXT	SEGMENT
i$1$ = 32
tv679 = 40
dat$ = 48
net$ = 72
__$ArrayPad$ = 112
argc$ = 192
argv$ = 200
main	PROC						; COMDAT

; 12   : int main(int argc, char** argv) {

$LN161:
  00000	4c 8b dc	 mov	 r11, rsp
  00003	49 89 5b 08	 mov	 QWORD PTR [r11+8], rbx
  00007	49 89 6b 10	 mov	 QWORD PTR [r11+16], rbp
  0000b	49 89 73 18	 mov	 QWORD PTR [r11+24], rsi
  0000f	57		 push	 rdi
  00010	41 54		 push	 r12
  00012	41 55		 push	 r13
  00014	41 56		 push	 r14
  00016	41 57		 push	 r15
  00018	48 81 ec 90 00
	00 00		 sub	 rsp, 144		; 00000090H
  0001f	c4 c1 78 29 73
	c8		 vmovaps XMMWORD PTR [r11-56], xmm6
  00025	48 8b 05 00 00
	00 00		 mov	 rax, QWORD PTR __security_cookie
  0002c	48 33 c4	 xor	 rax, rsp
  0002f	48 89 44 24 70	 mov	 QWORD PTR __$ArrayPad$[rsp], rax
  00034	c5 f9 ef c0	 vpxor	 xmm0, xmm0, xmm0
  00038	33 c0		 xor	 eax, eax
  0003a	c5 fc 11 44 24
	48		 vmovups YMMWORD PTR net$[rsp], ymm0
  00040	49 89 43 b0	 mov	 QWORD PTR [r11-80], rax

; 13   : 	// 728 => 16 => 16 => 10
; 14   : 	Neural::Network<728, 10> net(2, 16, 16);

  00044	8d 50 02	 lea	 edx, QWORD PTR [rax+2]
  00047	41 b9 10 00 00
	00		 mov	 r9d, 16
  0004d	45 8b c1	 mov	 r8d, r9d
  00050	49 8d 4b 90	 lea	 rcx, QWORD PTR [r11-112]
  00054	c5 f8 77	 vzeroupper
  00057	e8 00 00 00 00	 call	 ??0?$Network@$0CNI@$09@Neural@@QEAA@_KZZ ; Neural::Network<728,10>::Network<728,10>
  0005c	90		 npad	 1

; 15   : 
; 16   : 	Mnist::Data_Set dat("dat/test_labels.idx1-ubyte", "dat/test_images.idx3-ubyte", 200);

  0005d	48 8d 4c 24 30	 lea	 rcx, QWORD PTR dat$[rsp]
  00062	e8 00 00 00 00	 call	 ??0Data_Set@Mnist@@QEAA@PEBD0I@Z ; Mnist::Data_Set::Data_Set
; File C:\Users\marij\OneDrive\Documenten\GitHub\Neural_Network\src\mnist.cpp

; 46   : 	for (uint32_t i = 0; i < dat->count; i++) {

  00067	c7 44 24 20 00
	00 00 00	 mov	 DWORD PTR i$1$[rsp], 0
  0006f	48 83 7c 24 40
	00		 cmp	 QWORD PTR dat$[rsp+16], 0
  00075	0f 86 06 01 00
	00		 jbe	 $LN9@main
  0007b	45 33 ed	 xor	 r13d, r13d
  0007e	4c 89 6c 24 28	 mov	 QWORD PTR tv679[rsp], r13
  00083	c5 fb 10 35 00
	00 00 00	 vmovsd	 xmm6, QWORD PTR __real@406fe00000000000
  0008b	0f 1f 44 00 00	 npad	 5
$LL10@main:
  00090	4d 69 fd 80 18
	00 00		 imul	 r15, r13, 6272		; 00001880H

; 47   : 		for (uint32_t j = 0; j < 28; j++) {

  00097	45 33 f6	 xor	 r14d, r14d
  0009a	45 8d 66 1c	 lea	 r12d, QWORD PTR [r14+28]
  0009e	4c 8d 2d 00 00
	00 00		 lea	 r13, OFFSET FLAT:??_C@_09CIGFLNGD@?$BL?$FL0m?4?4?$BL?$FLm@
  000a5	66 66 66 0f 1f
	84 00 00 00 00
	00		 npad	 11
$LL13@main:
  000b0	33 db		 xor	 ebx, ebx

; 48   : 			for (uint32_t k = 0; k < 28; k++) {

  000b2	49 8b fe	 mov	 rdi, r14
  000b5	8d 6b 1c	 lea	 ebp, QWORD PTR [rbx+28]
  000b8	0f 1f 84 00 00
	00 00 00	 npad	 8
$LL16@main:

; 49   : 				current = (uint8_t)std::round(dat->data[i](k, j) * 255);

  000c0	48 8b 74 24 38	 mov	 rsi, QWORD PTR dat$[rsp+8]
  000c5	49 03 f7	 add	 rsi, r15
; File C:\Users\marij\OneDrive\Documenten\GitHub\Neural_Network\dependencies\Eigen\src\Core\DenseCoeffsBase.h

; 366  :       eigen_assert(row >= 0 && row < rows()

  000c8	48 83 fb 1b	 cmp	 rbx, 27
  000cc	77 09		 ja	 SHORT $LN24@main
  000ce	49 81 fe 7f 18
	00 00		 cmp	 r14, 6271		; 0000187fH
  000d5	76 1a		 jbe	 SHORT $LN25@main
$LN24@main:
  000d7	41 b8 6f 01 00
	00		 mov	 r8d, 367		; 0000016fH
  000dd	48 8d 15 00 00
	00 00		 lea	 rdx, OFFSET FLAT:??_C@_1MO@MNMFCLKA@?$AAC?$AA?3?$AA?2?$AAU?$AAs?$AAe?$AAr?$AAs?$AA?2?$AAm?$AAa?$AAr?$AAi?$AAj?$AA?2@
  000e4	48 8d 0d 00 00
	00 00		 lea	 rcx, OFFSET FLAT:??_C@_1GK@FICMDKNL@?$AAr?$AAo?$AAw?$AA?5?$AA?$DO?$AA?$DN?$AA?5?$AA0?$AA?5?$AA?$CG?$AA?$CG?$AA?5?$AAr?$AAo?$AAw@
  000eb	ff 15 00 00 00
	00		 call	 QWORD PTR __imp__wassert
$LN25@main:
; File C:\Users\marij\OneDrive\Documenten\GitHub\Neural_Network\src\mnist.cpp

; 49   : 				current = (uint8_t)std::round(dat->data[i](k, j) * 255);

  000f1	c5 cb 59 04 37	 vmulsd	 xmm0, xmm6, QWORD PTR [rdi+rsi]
  000f6	ff 15 00 00 00
	00		 call	 QWORD PTR __imp_round
  000fc	c5 fb 2c c0	 vcvttsd2si eax, xmm0

; 50   : 				if (current > 127) { printf("\033[7m..\033[m"); }  // "%02x", current

  00100	3c 7f		 cmp	 al, 127			; 0000007fH
  00102	76 09		 jbe	 SHORT $LN17@main
  00104	48 8d 0d 00 00
	00 00		 lea	 rcx, OFFSET FLAT:??_C@_09CCKALEHK@?$BL?$FL7m?4?4?$BL?$FLm@
  0010b	eb 0d		 jmp	 SHORT $LN14@main
$LN17@main:

; 51   : 				else if (current != 0) { printf("\033[100m..\033[m"); }  // "%02x", current

  0010d	48 8d 0d 00 00
	00 00		 lea	 rcx, OFFSET FLAT:??_C@_0M@BAGGIMII@?$BL?$FL100m?4?4?$BL?$FLm@
  00114	84 c0		 test	 al, al
  00116	49 0f 44 cd	 cmove	 rcx, r13
$LN14@main:

; 48   : 			for (uint32_t k = 0; k < 28; k++) {

  0011a	e8 00 00 00 00	 call	 printf
  0011f	48 ff c3	 inc	 rbx
  00122	48 83 c7 08	 add	 rdi, 8
  00126	48 83 ed 01	 sub	 rbp, 1
  0012a	75 94		 jne	 SHORT $LL16@main

; 52   : 				else { printf("\033[0m..\033[m"); }  // "00"
; 53   : 			}
; 54   : 			printf("\n");

  0012c	48 8d 0d 00 00
	00 00		 lea	 rcx, OFFSET FLAT:??_C@_01EEMJAFIK@?6@
  00133	e8 00 00 00 00	 call	 printf

; 47   : 		for (uint32_t j = 0; j < 28; j++) {

  00138	49 81 c6 e0 00
	00 00		 add	 r14, 224		; 000000e0H
  0013f	49 83 ec 01	 sub	 r12, 1
  00143	0f 85 67 ff ff
	ff		 jne	 $LL13@main

; 55   : 		}
; 56   : 		printf(" => %d\n\n", dat->labels[i]);

  00149	48 8b 44 24 30	 mov	 rax, QWORD PTR dat$[rsp]
  0014e	4c 8b 6c 24 28	 mov	 r13, QWORD PTR tv679[rsp]
  00153	42 0f be 14 28	 movsx	 edx, BYTE PTR [rax+r13]
  00158	48 8d 0d 00 00
	00 00		 lea	 rcx, OFFSET FLAT:??_C@_08DACCFJBL@?5?$DN?$DO?5?$CFd?6?6@
  0015f	e8 00 00 00 00	 call	 printf

; 46   : 	for (uint32_t i = 0; i < dat->count; i++) {

  00164	8b 44 24 20	 mov	 eax, DWORD PTR i$1$[rsp]
  00168	ff c0		 inc	 eax
  0016a	89 44 24 20	 mov	 DWORD PTR i$1$[rsp], eax
  0016e	44 8b e8	 mov	 r13d, eax
  00171	4c 89 6c 24 28	 mov	 QWORD PTR tv679[rsp], r13
  00176	4c 3b 6c 24 40	 cmp	 r13, QWORD PTR dat$[rsp+16]
  0017b	0f 82 0f ff ff
	ff		 jb	 $LL10@main
$LN9@main:
; File C:\Users\marij\OneDrive\Documenten\GitHub\Neural_Network\src\neural_network.hpp

; 18   : 			if (labels != nullptr)	{ delete[] labels; }

  00181	48 8b 4c 24 30	 mov	 rcx, QWORD PTR dat$[rsp]
  00186	48 85 c9	 test	 rcx, rcx
  00189	74 05		 je	 SHORT $LN44@main
  0018b	e8 00 00 00 00	 call	 ??_V@YAXPEAX@Z		; operator delete[]
$LN44@main:

; 19   : 			if (data != nullptr)	{ delete[] data; }

  00190	48 8b 4c 24 38	 mov	 rcx, QWORD PTR dat$[rsp+8]
  00195	48 85 c9	 test	 rcx, rcx
  00198	74 0b		 je	 SHORT $LN45@main
  0019a	ba 20 00 00 00	 mov	 edx, 32			; 00000020H
  0019f	e8 00 00 00 00	 call	 ??_V@YAXPEAXW4align_val_t@std@@@Z ; operator delete[]
  001a4	90		 npad	 1
$LN45@main:

; 71   : 			delete[] weights;

  001a5	48 8b 7c 24 58	 mov	 rdi, QWORD PTR net$[rsp+16]
  001aa	48 85 ff	 test	 rdi, rdi
  001ad	74 32		 je	 SHORT $LN49@main
  001af	4c 8d 0d 00 00
	00 00		 lea	 r9, OFFSET FLAT:??1?$Matrix@N$0?0$0?0$0A@$0?0$0?0@Eigen@@QEAA@XZ
  001b6	4c 8b 47 f8	 mov	 r8, QWORD PTR [rdi-8]
  001ba	ba 18 00 00 00	 mov	 edx, 24
  001bf	48 8b cf	 mov	 rcx, rdi
  001c2	e8 00 00 00 00	 call	 ??_M@YAXPEAX_K1P6AX0@Z@Z
  001c7	48 8b 47 f8	 mov	 rax, QWORD PTR [rdi-8]
  001cb	48 8d 14 40	 lea	 rdx, QWORD PTR [rax+rax*2]
  001cf	48 8d 14 d5 08
	00 00 00	 lea	 rdx, QWORD PTR [rdx*8+8]
  001d7	48 8d 4f f8	 lea	 rcx, QWORD PTR [rdi-8]
  001db	e8 00 00 00 00	 call	 ??_V@YAXPEAX_K@Z	; operator delete[]
  001e0	90		 npad	 1
$LN49@main:

; 72   : 			delete[] biases;

  001e1	48 8b 7c 24 60	 mov	 rdi, QWORD PTR net$[rsp+24]
  001e6	48 85 ff	 test	 rdi, rdi
  001e9	74 2e		 je	 SHORT $LN51@main
  001eb	4c 8d 0d 00 00
	00 00		 lea	 r9, OFFSET FLAT:??1?$Matrix@N$0?0$00$0A@$0?0$00@Eigen@@QEAA@XZ
  001f2	4c 8b 47 f8	 mov	 r8, QWORD PTR [rdi-8]
  001f6	ba 10 00 00 00	 mov	 edx, 16
  001fb	48 8b cf	 mov	 rcx, rdi
  001fe	e8 00 00 00 00	 call	 ??_M@YAXPEAX_K1P6AX0@Z@Z
  00203	48 8b 57 f8	 mov	 rdx, QWORD PTR [rdi-8]
  00207	48 c1 e2 04	 shl	 rdx, 4
  0020b	48 83 c2 08	 add	 rdx, 8
  0020f	48 8d 4f f8	 lea	 rcx, QWORD PTR [rdi-8]
  00213	e8 00 00 00 00	 call	 ??_V@YAXPEAX_K@Z	; operator delete[]
  00218	90		 npad	 1
$LN51@main:
; File C:\Users\marij\OneDrive\Documenten\GitHub\Neural_Network\dependencies\Eigen\src\Core\util\Memory.h

; 116  :   if (ptr) {

  00219	48 8b 4c 24 48	 mov	 rcx, QWORD PTR net$[rsp]
  0021e	48 85 c9	 test	 rcx, rcx
  00221	74 0a		 je	 SHORT $LN141@main

; 117  :     EIGEN_USING_STD(free)
; 118  :     free(*(reinterpret_cast<void**>(ptr) - 1));

  00223	48 8b 49 f8	 mov	 rcx, QWORD PTR [rcx-8]
  00227	ff 15 00 00 00
	00		 call	 QWORD PTR __imp_free
$LN141@main:
  0022d	ba 10 00 00 00	 mov	 edx, 16
  00232	48 8d 4c 24 48	 lea	 rcx, QWORD PTR net$[rsp]
  00237	e8 00 00 00 00	 call	 ??3@YAXPEAX_K@Z		; operator delete

; 116  :   if (ptr) {

  0023c	48 8b 4c 24 48	 mov	 rcx, QWORD PTR net$[rsp]
  00241	48 85 c9	 test	 rcx, rcx
  00244	74 0a		 je	 SHORT $LN158@main

; 117  :     EIGEN_USING_STD(free)
; 118  :     free(*(reinterpret_cast<void**>(ptr) - 1));

  00246	48 8b 49 f8	 mov	 rcx, QWORD PTR [rcx-8]
  0024a	ff 15 00 00 00
	00		 call	 QWORD PTR __imp_free
$LN158@main:
; File C:\Users\marij\OneDrive\Documenten\GitHub\Neural_Network\src\main.cpp

; 21   : }

  00250	33 c0		 xor	 eax, eax
  00252	48 8b 4c 24 70	 mov	 rcx, QWORD PTR __$ArrayPad$[rsp]
  00257	48 33 cc	 xor	 rcx, rsp
  0025a	e8 00 00 00 00	 call	 __security_check_cookie
  0025f	4c 8d 9c 24 90
	00 00 00	 lea	 r11, QWORD PTR [rsp+144]
  00267	49 8b 5b 30	 mov	 rbx, QWORD PTR [r11+48]
  0026b	49 8b 6b 38	 mov	 rbp, QWORD PTR [r11+56]
  0026f	49 8b 73 40	 mov	 rsi, QWORD PTR [r11+64]
  00273	c4 c1 78 28 73
	f0		 vmovaps xmm6, XMMWORD PTR [r11-16]
  00279	49 8b e3	 mov	 rsp, r11
  0027c	41 5f		 pop	 r15
  0027e	41 5e		 pop	 r14
  00280	41 5d		 pop	 r13
  00282	41 5c		 pop	 r12
  00284	5f		 pop	 rdi
  00285	c3		 ret	 0
main	ENDP
_TEXT	ENDS
; Function compile flags: /Ogtpy
;	COMDAT text$x
text$x	SEGMENT
i$1$ = 32
tv679 = 40
dat$ = 48
net$ = 72
__$ArrayPad$ = 112
argc$ = 192
argv$ = 200
main$dtor$0 PROC
  00000	48 8d 8a 48 00
	00 00		 lea	 rcx, QWORD PTR net$[rdx]
  00007	e9 00 00 00 00	 jmp	 ??1?$Network@$0CNI@$09@Neural@@QEAA@XZ ; Neural::Network<728,10>::~Network<728,10>
main$dtor$0 ENDP
text$x	ENDS
; Function compile flags: /Ogtpy
; File C:\Users\marij\OneDrive\Documenten\GitHub\Neural_Network\src\neural_network.hpp
; File C:\Users\marij\OneDrive\Documenten\GitHub\Neural_Network\dependencies\Eigen\src\Core\DenseStorage.h
; File C:\Users\marij\OneDrive\Documenten\GitHub\Neural_Network\dependencies\Eigen\src\Core\util\Memory.h
; File C:\Users\marij\OneDrive\Documenten\GitHub\Neural_Network\dependencies\Eigen\src\Core\DenseStorage.h
; File C:\Users\marij\OneDrive\Documenten\GitHub\Neural_Network\dependencies\Eigen\src\Core\util\Memory.h
; File C:\Users\marij\OneDrive\Documenten\GitHub\Neural_Network\src\neural_network.hpp
;	COMDAT ??1?$Network@$0CNI@$09@Neural@@QEAA@XZ
_TEXT	SEGMENT
this$ = 48
??1?$Network@$0CNI@$09@Neural@@QEAA@XZ PROC		; Neural::Network<728,10>::~Network<728,10>, COMDAT

; 70   : 		~Network() {

$LN98:
  00000	48 89 5c 24 08	 mov	 QWORD PTR [rsp+8], rbx
  00005	57		 push	 rdi
  00006	48 83 ec 20	 sub	 rsp, 32			; 00000020H
  0000a	48 8b f9	 mov	 rdi, rcx

; 71   : 			delete[] weights;

  0000d	48 8b 49 10	 mov	 rcx, QWORD PTR [rcx+16]
  00011	48 85 c9	 test	 rcx, rcx
  00014	74 30		 je	 SHORT $LN3@Network
  00016	48 8d 59 f8	 lea	 rbx, QWORD PTR [rcx-8]
  0001a	4c 8d 0d 00 00
	00 00		 lea	 r9, OFFSET FLAT:??1?$Matrix@N$0?0$0?0$0A@$0?0$0?0@Eigen@@QEAA@XZ
  00021	4c 8b 03	 mov	 r8, QWORD PTR [rbx]
  00024	ba 18 00 00 00	 mov	 edx, 24
  00029	e8 00 00 00 00	 call	 ??_M@YAXPEAX_K1P6AX0@Z@Z
  0002e	48 8b 03	 mov	 rax, QWORD PTR [rbx]
  00031	48 8d 14 40	 lea	 rdx, QWORD PTR [rax+rax*2]
  00035	48 8d 14 d5 08
	00 00 00	 lea	 rdx, QWORD PTR [rdx*8+8]
  0003d	48 8b cb	 mov	 rcx, rbx
  00040	e8 00 00 00 00	 call	 ??_V@YAXPEAX_K@Z	; operator delete[]
  00045	90		 npad	 1
$LN3@Network:

; 72   : 			delete[] biases;

  00046	48 8b 4f 18	 mov	 rcx, QWORD PTR [rdi+24]
  0004a	48 85 c9	 test	 rcx, rcx
  0004d	74 2c		 je	 SHORT $LN5@Network
  0004f	48 8d 59 f8	 lea	 rbx, QWORD PTR [rcx-8]
  00053	4c 8d 0d 00 00
	00 00		 lea	 r9, OFFSET FLAT:??1?$Matrix@N$0?0$00$0A@$0?0$00@Eigen@@QEAA@XZ
  0005a	4c 8b 03	 mov	 r8, QWORD PTR [rbx]
  0005d	ba 10 00 00 00	 mov	 edx, 16
  00062	e8 00 00 00 00	 call	 ??_M@YAXPEAX_K1P6AX0@Z@Z
  00067	48 8b 13	 mov	 rdx, QWORD PTR [rbx]
  0006a	48 c1 e2 04	 shl	 rdx, 4
  0006e	48 83 c2 08	 add	 rdx, 8
  00072	48 8b cb	 mov	 rcx, rbx
  00075	e8 00 00 00 00	 call	 ??_V@YAXPEAX_K@Z	; operator delete[]
  0007a	90		 npad	 1
$LN5@Network:
; File C:\Users\marij\OneDrive\Documenten\GitHub\Neural_Network\dependencies\Eigen\src\Core\DenseStorage.h

; 621  :     EIGEN_DEVICE_FUNC ~DenseStorage() { internal::conditional_aligned_delete_auto<T,(_Options&DontAlign)==0>(m_data, _Cols*m_rows); }

  0007b	48 8b 0f	 mov	 rcx, QWORD PTR [rdi]
; File C:\Users\marij\OneDrive\Documenten\GitHub\Neural_Network\dependencies\Eigen\src\Core\util\Memory.h

; 116  :   if (ptr) {

  0007e	48 85 c9	 test	 rcx, rcx
  00081	74 0a		 je	 SHORT $LN94@Network

; 117  :     EIGEN_USING_STD(free)
; 118  :     free(*(reinterpret_cast<void**>(ptr) - 1));

  00083	48 8b 49 f8	 mov	 rcx, QWORD PTR [rcx-8]
  00087	ff 15 00 00 00
	00		 call	 QWORD PTR __imp_free
$LN94@Network:
  0008d	ba 10 00 00 00	 mov	 edx, 16
  00092	48 8b cf	 mov	 rcx, rdi
  00095	e8 00 00 00 00	 call	 ??3@YAXPEAX_K@Z		; operator delete
; File C:\Users\marij\OneDrive\Documenten\GitHub\Neural_Network\dependencies\Eigen\src\Core\DenseStorage.h

; 621  :     EIGEN_DEVICE_FUNC ~DenseStorage() { internal::conditional_aligned_delete_auto<T,(_Options&DontAlign)==0>(m_data, _Cols*m_rows); }

  0009a	48 8b 0f	 mov	 rcx, QWORD PTR [rdi]
; File C:\Users\marij\OneDrive\Documenten\GitHub\Neural_Network\dependencies\Eigen\src\Core\util\Memory.h

; 116  :   if (ptr) {

  0009d	48 85 c9	 test	 rcx, rcx
  000a0	74 0b		 je	 SHORT $LN25@Network

; 117  :     EIGEN_USING_STD(free)
; 118  :     free(*(reinterpret_cast<void**>(ptr) - 1));

  000a2	48 8b 49 f8	 mov	 rcx, QWORD PTR [rcx-8]
  000a6	ff 15 00 00 00
	00		 call	 QWORD PTR __imp_free
  000ac	90		 npad	 1
$LN25@Network:
; File C:\Users\marij\OneDrive\Documenten\GitHub\Neural_Network\src\neural_network.hpp

; 74   : 		}

  000ad	48 8b 5c 24 30	 mov	 rbx, QWORD PTR [rsp+48]
  000b2	48 83 c4 20	 add	 rsp, 32			; 00000020H
  000b6	5f		 pop	 rdi
  000b7	c3		 ret	 0
??1?$Network@$0CNI@$09@Neural@@QEAA@XZ ENDP		; Neural::Network<728,10>::~Network<728,10>
_TEXT	ENDS
; Function compile flags: /Ogtpy
; File C:\Users\marij\OneDrive\Documenten\GitHub\Neural_Network\dependencies\Eigen\src\Core\DenseStorage.h
; File C:\Users\marij\OneDrive\Documenten\GitHub\Neural_Network\dependencies\Eigen\src\Core\util\Memory.h
;	COMDAT ??_G?$Matrix@N$0?0$0CNI@$0A@$0?0$0CNI@@Eigen@@QEAAPEAXI@Z
_TEXT	SEGMENT
this$ = 48
__flags$dead$ = 56
??_G?$Matrix@N$0?0$0CNI@$0A@$0?0$0CNI@@Eigen@@QEAAPEAXI@Z PROC ; Eigen::Matrix<double,-1,728,0,-1,728>::`scalar deleting destructor', COMDAT
$LN24:
  00000	40 53		 push	 rbx
  00002	48 83 ec 20	 sub	 rsp, 32			; 00000020H
  00006	48 8b d9	 mov	 rbx, rcx
; File C:\Users\marij\OneDrive\Documenten\GitHub\Neural_Network\dependencies\Eigen\src\Core\DenseStorage.h

; 621  :     EIGEN_DEVICE_FUNC ~DenseStorage() { internal::conditional_aligned_delete_auto<T,(_Options&DontAlign)==0>(m_data, _Cols*m_rows); }

  00009	48 8b 09	 mov	 rcx, QWORD PTR [rcx]
; File C:\Users\marij\OneDrive\Documenten\GitHub\Neural_Network\dependencies\Eigen\src\Core\util\Memory.h

; 116  :   if (ptr) {

  0000c	48 85 c9	 test	 rcx, rcx
  0000f	74 0a		 je	 SHORT $LN20@scalar

; 117  :     EIGEN_USING_STD(free)
; 118  :     free(*(reinterpret_cast<void**>(ptr) - 1));

  00011	48 8b 49 f8	 mov	 rcx, QWORD PTR [rcx-8]
  00015	ff 15 00 00 00
	00		 call	 QWORD PTR __imp_free
$LN20@scalar:
  0001b	ba 10 00 00 00	 mov	 edx, 16
  00020	48 8b cb	 mov	 rcx, rbx
  00023	e8 00 00 00 00	 call	 ??3@YAXPEAX_K@Z		; operator delete
  00028	48 8b c3	 mov	 rax, rbx
  0002b	48 83 c4 20	 add	 rsp, 32			; 00000020H
  0002f	5b		 pop	 rbx
  00030	c3		 ret	 0
??_G?$Matrix@N$0?0$0CNI@$0A@$0?0$0CNI@@Eigen@@QEAAPEAXI@Z ENDP ; Eigen::Matrix<double,-1,728,0,-1,728>::`scalar deleting destructor'
_TEXT	ENDS
END
