; Listing generated by Microsoft (R) Optimizing Compiler Version 19.33.31630.0 

include listing.inc

INCLUDELIB OLDNAMES

EXTRN	__imp_?_Random_device@std@@YAIXZ:PROC
EXTRN	__imp_srand:PROC
	ORG $+2
$SG4294956716 DB 'AVX SSE, SSE2, SSE3, SSSE3, SSE4.1, SSE4.2', 00H
PUBLIC	?_Get_bits@?$_Rng_from_urng@IVrandom_device@std@@@std@@AEAAIXZ ; std::_Rng_from_urng<unsigned int,std::random_device>::_Get_bits
PUBLIC	?_Adjust@?$uniform_int@I@std@@CAII@Z		; std::uniform_int<unsigned int>::_Adjust
PUBLIC	??0?$_Rng_from_urng@IVrandom_device@std@@@std@@QEAA@AEAVrandom_device@1@@Z ; std::_Rng_from_urng<unsigned int,std::random_device>::_Rng_from_urng<unsigned int,std::random_device>
PUBLIC	??R?$_Rng_from_urng@IVrandom_device@std@@@std@@QEAAII@Z ; std::_Rng_from_urng<unsigned int,std::random_device>::operator()
PUBLIC	?_Get_all_bits@?$_Rng_from_urng@IVrandom_device@std@@@std@@QEAAIXZ ; std::_Rng_from_urng<unsigned int,std::random_device>::_Get_all_bits
PUBLIC	??$_Eval@Vrandom_device@std@@@?$uniform_int@I@std@@AEBAIAEAVrandom_device@1@II@Z ; std::uniform_int<unsigned int>::_Eval<std::random_device>
PUBLIC	??$?RVrandom_device@std@@@?$uniform_int@I@std@@QEAAIAEAVrandom_device@1@@Z ; std::uniform_int<unsigned int>::operator()<std::random_device>
PUBLIC	?_Init@param_type@?$uniform_int@I@std@@QEAAXII@Z ; std::uniform_int<unsigned int>::param_type::_Init
PUBLIC	??0param_type@?$uniform_int@I@std@@QEAA@II@Z	; std::uniform_int<unsigned int>::param_type::param_type
PUBLIC	??0?$uniform_int@I@std@@QEAA@II@Z		; std::uniform_int<unsigned int>::uniform_int<unsigned int>
PUBLIC	??0?$uniform_int_distribution@I@std@@QEAA@II@Z	; std::uniform_int_distribution<unsigned int>::uniform_int_distribution<unsigned int>
PUBLIC	?init_random@Math@@YAXI@Z			; Math::init_random
PUBLIC	??Rrandom_device@std@@QEAAIXZ			; std::random_device::operator()
PUBLIC	?max@random_device@std@@SAIXZ			; std::random_device::max
PUBLIC	?min@random_device@std@@SAIXZ			; std::random_device::min
PUBLIC	??0random_device@std@@QEAA@XZ			; std::random_device::random_device
PUBLIC	?init_random@Math@@YAXXZ			; Math::init_random
	ALIGN	4

?last@Eigen@@3V?$SymbolExpr@Usymbolic_last_tag@internal@Eigen@@@symbolic@1@B DB 01H DUP (?) ; Eigen::last
	ALIGN	4

?all@Eigen@@3Uall_t@internal@1@B DB 01H DUP (?)		; Eigen::all
	ALIGN	4

?lastp1@Eigen@@3V?$AddExpr@V?$SymbolExpr@Usymbolic_last_tag@internal@Eigen@@@symbolic@Eigen@@V?$ValueExpr@V?$FixedInt@$00@internal@Eigen@@@23@@symbolic@1@B DW 01H DUP (?) ; Eigen::lastp1
	ALIGN	4

??$fix@$00@Eigen@@3V?$FixedInt@$00@internal@1@B DB 01H DUP (?) ; Eigen::fix<1>
	ALIGN	4

?end@placeholders@Eigen@@3V?$AddExpr@V?$SymbolExpr@Usymbolic_last_tag@internal@Eigen@@@symbolic@Eigen@@V?$ValueExpr@V?$FixedInt@$00@internal@Eigen@@@23@@symbolic@2@B DW 01H DUP (?) ; Eigen::placeholders::end
_BSS	ENDS
;	COMDAT pdata
pdata	SEGMENT
$pdata$?_Get_bits@?$_Rng_from_urng@IVrandom_device@std@@@std@@AEAAIXZ DD imagerel $LN7@Get_bits
	DD	imagerel $LN7@Get_bits+70
	DD	imagerel $unwind$?_Get_bits@?$_Rng_from_urng@IVrandom_device@std@@@std@@AEAAIXZ
pdata	ENDS
;	COMDAT pdata
pdata	SEGMENT
$pdata$??0?$_Rng_from_urng@IVrandom_device@std@@@std@@QEAA@AEAVrandom_device@1@@Z DD imagerel $LN6@Rng_from_u
	DD	imagerel $LN6@Rng_from_u+137
	DD	imagerel $unwind$??0?$_Rng_from_urng@IVrandom_device@std@@@std@@QEAA@AEAVrandom_device@1@@Z
pdata	ENDS
;	COMDAT pdata
pdata	SEGMENT
$pdata$??R?$_Rng_from_urng@IVrandom_device@std@@@std@@QEAAII@Z DD imagerel $LN10@operator
	DD	imagerel $LN10@operator+229
	DD	imagerel $unwind$??R?$_Rng_from_urng@IVrandom_device@std@@@std@@QEAAII@Z
pdata	ENDS
;	COMDAT pdata
pdata	SEGMENT
$pdata$?_Get_all_bits@?$_Rng_from_urng@IVrandom_device@std@@@std@@QEAAIXZ DD imagerel $LN6@Get_all_bi
	DD	imagerel $LN6@Get_all_bi+127
	DD	imagerel $unwind$?_Get_all_bits@?$_Rng_from_urng@IVrandom_device@std@@@std@@QEAAIXZ
pdata	ENDS
;	COMDAT pdata
pdata	SEGMENT
$pdata$??$_Eval@Vrandom_device@std@@@?$uniform_int@I@std@@AEBAIAEAVrandom_device@1@II@Z DD imagerel $LN5@Eval
	DD	imagerel $LN5@Eval+180
	DD	imagerel $unwind$??$_Eval@Vrandom_device@std@@@?$uniform_int@I@std@@AEBAIAEAVrandom_device@1@II@Z
pdata	ENDS
;	COMDAT pdata
pdata	SEGMENT
$pdata$??$?RVrandom_device@std@@@?$uniform_int@I@std@@QEAAIAEAVrandom_device@1@@Z DD imagerel $LN3@operator
	DD	imagerel $LN3@operator+51
	DD	imagerel $unwind$??$?RVrandom_device@std@@@?$uniform_int@I@std@@QEAAIAEAVrandom_device@1@@Z
pdata	ENDS
;	COMDAT pdata
pdata	SEGMENT
$pdata$??__E?$fix@$00@Eigen@@YAXXZ DD imagerel ??__E?$fix@$00@Eigen@@YAXXZ
	DD	imagerel ??__E?$fix@$00@Eigen@@YAXXZ+21
	DD	imagerel $unwind$??__E?$fix@$00@Eigen@@YAXXZ
pdata	ENDS
;	COMDAT pdata
pdata	SEGMENT
$pdata$??0param_type@?$uniform_int@I@std@@QEAA@II@Z DD imagerel $LN3@param_type
	DD	imagerel $LN3@param_type+47
	DD	imagerel $unwind$??0param_type@?$uniform_int@I@std@@QEAA@II@Z
pdata	ENDS
;	COMDAT pdata
pdata	SEGMENT
$pdata$??0?$uniform_int@I@std@@QEAA@II@Z DD imagerel $LN3@uniform_in
	DD	imagerel $LN3@uniform_in+57
	DD	imagerel $unwind$??0?$uniform_int@I@std@@QEAA@II@Z
pdata	ENDS
;	COMDAT pdata
pdata	SEGMENT
$pdata$??0?$uniform_int_distribution@I@std@@QEAA@II@Z DD imagerel $LN3@uniform_in
	DD	imagerel $LN3@uniform_in+47
	DD	imagerel $unwind$??0?$uniform_int_distribution@I@std@@QEAA@II@Z
pdata	ENDS
;	COMDAT pdata
pdata	SEGMENT
$pdata$?init_random@Math@@YAXI@Z DD imagerel $LN4@init_rando
	DD	imagerel $LN4@init_rando+23
	DD	imagerel $unwind$?init_random@Math@@YAXI@Z
pdata	ENDS
;	COMDAT pdata
pdata	SEGMENT
$pdata$??Rrandom_device@std@@QEAAIXZ DD imagerel $LN3@operator
	DD	imagerel $LN3@operator+20
	DD	imagerel $unwind$??Rrandom_device@std@@QEAAIXZ
pdata	ENDS
;	COMDAT pdata
pdata	SEGMENT
$pdata$??__Eall@Eigen@@YAXXZ DD imagerel ??__Eall@Eigen@@YAXXZ
	DD	imagerel ??__Eall@Eigen@@YAXXZ+21
	DD	imagerel $unwind$??__Eall@Eigen@@YAXXZ
pdata	ENDS
;	COMDAT pdata
pdata	SEGMENT
$pdata$??__Elastp1@Eigen@@YAXXZ DD imagerel ??__Elastp1@Eigen@@YAXXZ
	DD	imagerel ??__Elastp1@Eigen@@YAXXZ+49
	DD	imagerel $unwind$??__Elastp1@Eigen@@YAXXZ
pdata	ENDS
;	COMDAT pdata
pdata	SEGMENT
$pdata$??__Elast@Eigen@@YAXXZ DD imagerel ??__Elast@Eigen@@YAXXZ
	DD	imagerel ??__Elast@Eigen@@YAXXZ+21
	DD	imagerel $unwind$??__Elast@Eigen@@YAXXZ
pdata	ENDS
;	COMDAT pdata
pdata	SEGMENT
$pdata$?init_random@Math@@YAXXZ DD imagerel $LN4@init_rando
	DD	imagerel $LN4@init_rando+87
	DD	imagerel $unwind$?init_random@Math@@YAXXZ
;	COMDAT xdata
xdata	SEGMENT
$unwind$?init_random@Math@@YAXXZ DQ 00000820400011319r ; 7.06285e-310
	DD	imagerel __GSHandlerCheck
	DD	030H
xdata	ENDS
;	COMDAT xdata
xdata	SEGMENT
$unwind$??__Elast@Eigen@@YAXXZ DD 010401H
	DD	04204H
xdata	ENDS
;	COMDAT xdata
xdata	SEGMENT
$unwind$??__Elastp1@Eigen@@YAXXZ DD 010401H
	DD	06204H
xdata	ENDS
;	COMDAT xdata
xdata	SEGMENT
$unwind$??__Eall@Eigen@@YAXXZ DD 010401H
	DD	04204H
xdata	ENDS
;	COMDAT xdata
xdata	SEGMENT
$unwind$??Rrandom_device@std@@QEAAIXZ DQ 00000420900010901r ; 3.58723e-310
xdata	ENDS
;	COMDAT xdata
xdata	SEGMENT
$unwind$?init_random@Math@@YAXI@Z DQ 00000420800010801r ; 3.58702e-310
xdata	ENDS
;	COMDAT xdata
xdata	SEGMENT
$unwind$??0?$uniform_int_distribution@I@std@@QEAA@II@Z DQ 00000421200011201r ; 3.58914e-310
xdata	ENDS
;	COMDAT xdata
xdata	SEGMENT
$unwind$??0?$uniform_int@I@std@@QEAA@II@Z DQ 00000621200011201r ; 5.32748e-310
xdata	ENDS
;	COMDAT xdata
xdata	SEGMENT
$unwind$??0param_type@?$uniform_int@I@std@@QEAA@II@Z DQ 00000421200011201r ; 3.58914e-310
xdata	ENDS
;	COMDAT xdata
xdata	SEGMENT
$unwind$??__E?$fix@$00@Eigen@@YAXXZ DD 010401H
	DD	04204H
xdata	ENDS
;	COMDAT xdata
xdata	SEGMENT
$unwind$??$?RVrandom_device@std@@@?$uniform_int@I@std@@QEAAIAEAVrandom_device@1@@Z DQ 00000420e00010e01r ; 3.58829e-310
xdata	ENDS
;	COMDAT xdata
xdata	SEGMENT
$unwind$??$_Eval@Vrandom_device@std@@@?$uniform_int@I@std@@AEBAIAEAVrandom_device@1@II@Z DQ 00000a21800012719r ; 8.80543e-310
	DD	imagerel __GSHandlerCheck
	DD	048H
xdata	ENDS
;	COMDAT xdata
xdata	SEGMENT
$unwind$?_Get_all_bits@?$_Rng_from_urng@IVrandom_device@std@@@std@@QEAAIXZ DQ 00000620900010901r ; 5.32557e-310
xdata	ENDS
;	COMDAT xdata
xdata	SEGMENT
$unwind$??R?$_Rng_from_urng@IVrandom_device@std@@@std@@QEAAII@Z DQ 00000620d00010d01r ; 5.32642e-310
xdata	ENDS
;	COMDAT xdata
xdata	SEGMENT
$unwind$??0?$_Rng_from_urng@IVrandom_device@std@@@std@@QEAA@AEAVrandom_device@1@@Z DQ 00000620e00010e01r ; 5.32663e-310
xdata	ENDS
;	COMDAT xdata
xdata	SEGMENT
$unwind$?_Get_bits@?$_Rng_from_urng@IVrandom_device@std@@@std@@AEAAIXZ DQ 00000620900010901r ; 5.32557e-310
?last$initializer$@Eigen@@3P6AXXZEA DQ FLAT:??__Elast@Eigen@@YAXXZ ; Eigen::last$initializer$
?lastp1$initializer$@Eigen@@3P6AXXZEA DQ FLAT:??__Elastp1@Eigen@@YAXXZ ; Eigen::lastp1$initializer$
?all$initializer$@Eigen@@3P6AXXZEA DQ FLAT:??__Eall@Eigen@@YAXXZ ; Eigen::all$initializer$
?all$initializer$@placeholders@Eigen@@3P6AXXZEA DQ FLAT:??__Eall@placeholders@Eigen@@YAXXZ ; Eigen::placeholders::all$initializer$
?last$initializer$@placeholders@Eigen@@3P6AXXZEA DQ FLAT:??__Elast@placeholders@Eigen@@YAXXZ ; Eigen::placeholders::last$initializer$
?end$initializer$@placeholders@Eigen@@3P6AXXZEA DQ FLAT:??__Eend@placeholders@Eigen@@YAXXZ ; Eigen::placeholders::end$initializer$
??$fix@$00$initializer$@Eigen@@3P6AXXZEA DQ FLAT:??__E?$fix@$00@Eigen@@YAXXZ ; ??$fix@$00$initializer$@Eigen@@3P6AXXZEA
; Function compile flags: /Odtp
; File C:\Users\marij\OneDrive\Documenten\GitHub\Neural_Network\dependencies\Eigen\src\Core\util\IndexedViewHelper.h
;	COMDAT ??__Elast@Eigen@@YAXXZ
text$di	SEGMENT
??__Elast@Eigen@@YAXXZ PROC				; Eigen::`dynamic initializer for 'last'', COMDAT

; 38   : static const symbolic::SymbolExpr<internal::symbolic_last_tag> last; // PLEASE use Eigen::last   instead of Eigen::placeholders::last

  00000	48 83 ec 28	 sub	 rsp, 40			; 00000028H
  00004	48 8d 0d 00 00
	00 00		 lea	 rcx, OFFSET FLAT:?last@Eigen@@3V?$SymbolExpr@Usymbolic_last_tag@internal@Eigen@@@symbolic@1@B
  0000b	e8 00 00 00 00	 call	 ??0?$SymbolExpr@Usymbolic_last_tag@internal@Eigen@@@symbolic@Eigen@@QEAA@XZ ; Eigen::symbolic::SymbolExpr<Eigen::internal::symbolic_last_tag>::SymbolExpr<Eigen::internal::symbolic_last_tag>
  00010	48 83 c4 28	 add	 rsp, 40			; 00000028H
  00014	c3		 ret	 0
??__Elast@Eigen@@YAXXZ ENDP				; Eigen::`dynamic initializer for 'last''
text$di	ENDS
; Function compile flags: /Odtp
; File C:\Users\marij\OneDrive\Documenten\GitHub\Neural_Network\dependencies\Eigen\src\Core\util\IndexedViewHelper.h
;	COMDAT ??__Elastp1@Eigen@@YAXXZ
text$di	SEGMENT
$T1 = 32
??__Elastp1@Eigen@@YAXXZ PROC				; Eigen::`dynamic initializer for 'lastp1'', COMDAT

; 57   : static const symbolic::AddExpr<symbolic::SymbolExpr<internal::symbolic_last_tag>,symbolic::ValueExpr<Eigen::internal::FixedInt<1> > > lastp1(last+fix<1>());

  00000	48 83 ec 38	 sub	 rsp, 56			; 00000038H
  00004	48 8d 54 24 20	 lea	 rdx, QWORD PTR $T1[rsp]
  00009	48 8d 0d 00 00
	00 00		 lea	 rcx, OFFSET FLAT:??$fix@$00@Eigen@@3V?$FixedInt@$00@internal@1@B
  00010	e8 00 00 00 00	 call	 ??R?$FixedInt@$00@internal@Eigen@@QEBA?AV012@XZ ; Eigen::internal::FixedInt<1>::operator()
  00015	44 0f b6 00	 movzx	 r8d, BYTE PTR [rax]
  00019	48 8d 15 00 00
	00 00		 lea	 rdx, OFFSET FLAT:?lastp1@Eigen@@3V?$AddExpr@V?$SymbolExpr@Usymbolic_last_tag@internal@Eigen@@@symbolic@Eigen@@V?$ValueExpr@V?$FixedInt@$00@internal@Eigen@@@23@@symbolic@1@B
  00020	48 8d 0d 00 00
	00 00		 lea	 rcx, OFFSET FLAT:?last@Eigen@@3V?$SymbolExpr@Usymbolic_last_tag@internal@Eigen@@@symbolic@1@B
  00027	e8 00 00 00 00	 call	 ??$?H$00@?$BaseExpr@V?$SymbolExpr@Usymbolic_last_tag@internal@Eigen@@@symbolic@Eigen@@@symbolic@Eigen@@QEBA?AV?$AddExpr@V?$SymbolExpr@Usymbolic_last_tag@internal@Eigen@@@symbolic@Eigen@@V?$ValueExpr@V?$FixedInt@$00@internal@Eigen@@@23@@12@V?$FixedInt@$00@internal@2@@Z ; Eigen::symbolic::BaseExpr<Eigen::symbolic::SymbolExpr<Eigen::internal::symbolic_last_tag> >::operator+<1>
  0002c	48 83 c4 38	 add	 rsp, 56			; 00000038H
  00030	c3		 ret	 0
??__Elastp1@Eigen@@YAXXZ ENDP				; Eigen::`dynamic initializer for 'lastp1''
text$di	ENDS
; Function compile flags: /Odtp
; File C:\Users\marij\OneDrive\Documenten\GitHub\Neural_Network\dependencies\Eigen\src\Core\util\IndexedViewHelper.h
;	COMDAT ??__Eall@Eigen@@YAXXZ
text$di	SEGMENT
??__Eall@Eigen@@YAXXZ PROC				; Eigen::`dynamic initializer for 'all'', COMDAT

; 171  : static const Eigen::internal::all_t all; // PLEASE use Eigen::all instead of Eigen::placeholders::all

  00000	48 83 ec 28	 sub	 rsp, 40			; 00000028H
  00004	48 8d 0d 00 00
	00 00		 lea	 rcx, OFFSET FLAT:?all@Eigen@@3Uall_t@internal@1@B
  0000b	e8 00 00 00 00	 call	 ??0all_t@internal@Eigen@@QEAA@XZ ; Eigen::internal::all_t::all_t
  00010	48 83 c4 28	 add	 rsp, 40			; 00000028H
  00014	c3		 ret	 0
??__Eall@Eigen@@YAXXZ ENDP				; Eigen::`dynamic initializer for 'all''
text$di	ENDS
; Function compile flags: /Odtp
; File C:\Users\marij\OneDrive\Documenten\GitHub\Neural_Network\dependencies\Eigen\src\Core\util\IndexedViewHelper.h
;	COMDAT ??__Eall@placeholders@Eigen@@YAXXZ
text$di	SEGMENT
??__Eall@placeholders@Eigen@@YAXXZ PROC			; Eigen::placeholders::`dynamic initializer for 'all'', COMDAT

; 179  :   EIGEN_DEPRECATED static const all_t  all  = Eigen::all;    // PLEASE use Eigen::all    instead of Eigen::placeholders::all

  00000	c2 00 00	 ret	 0
??__Eall@placeholders@Eigen@@YAXXZ ENDP			; Eigen::placeholders::`dynamic initializer for 'all''
text$di	ENDS
; Function compile flags: /Odtp
; File C:\Users\marij\OneDrive\Documenten\GitHub\Neural_Network\dependencies\Eigen\src\Core\util\IndexedViewHelper.h
;	COMDAT ??__Elast@placeholders@Eigen@@YAXXZ
text$di	SEGMENT
??__Elast@placeholders@Eigen@@YAXXZ PROC		; Eigen::placeholders::`dynamic initializer for 'last'', COMDAT

; 180  :   EIGEN_DEPRECATED static const last_t last = Eigen::last;   // PLEASE use Eigen::last   instead of Eigen::placeholders::last

  00000	c2 00 00	 ret	 0
??__Elast@placeholders@Eigen@@YAXXZ ENDP		; Eigen::placeholders::`dynamic initializer for 'last''
text$di	ENDS
; Function compile flags: /Odtp
; File C:\Users\marij\OneDrive\Documenten\GitHub\Neural_Network\dependencies\Eigen\src\Core\util\IndexedViewHelper.h
;	COMDAT ??__Eend@placeholders@Eigen@@YAXXZ
text$di	SEGMENT
??__Eend@placeholders@Eigen@@YAXXZ PROC			; Eigen::placeholders::`dynamic initializer for 'end'', COMDAT

; 181  :   EIGEN_DEPRECATED static const end_t  end  = Eigen::lastp1; // PLEASE use Eigen::lastp1 instead of Eigen::placeholders::end

  00000	0f b7 05 00 00
	00 00		 movzx	 eax, WORD PTR ?lastp1@Eigen@@3V?$AddExpr@V?$SymbolExpr@Usymbolic_last_tag@internal@Eigen@@@symbolic@Eigen@@V?$ValueExpr@V?$FixedInt@$00@internal@Eigen@@@23@@symbolic@1@B
  00007	66 89 05 00 00
	00 00		 mov	 WORD PTR ?end@placeholders@Eigen@@3V?$AddExpr@V?$SymbolExpr@Usymbolic_last_tag@internal@Eigen@@@symbolic@Eigen@@V?$ValueExpr@V?$FixedInt@$00@internal@Eigen@@@23@@symbolic@2@B, ax
  0000e	c3		 ret	 0
??__Eend@placeholders@Eigen@@YAXXZ ENDP			; Eigen::placeholders::`dynamic initializer for 'end''
text$di	ENDS
; Function compile flags: /Odtp
;	COMDAT ??__E?$fix@$00@Eigen@@YAXXZ
text$di	SEGMENT
??__E?$fix@$00@Eigen@@YAXXZ PROC			; `dynamic initializer for 'Eigen::$00::$fix'', COMDAT
  00000	48 83 ec 28	 sub	 rsp, 40			; 00000028H
  00004	48 8d 0d 00 00
	00 00		 lea	 rcx, OFFSET FLAT:??$fix@$00@Eigen@@3V?$FixedInt@$00@internal@1@B
  0000b	e8 00 00 00 00	 call	 ??0?$FixedInt@$00@internal@Eigen@@QEAA@XZ ; Eigen::internal::FixedInt<1>::FixedInt<1>
  00010	48 83 c4 28	 add	 rsp, 40			; 00000028H
  00014	c3		 ret	 0
??__E?$fix@$00@Eigen@@YAXXZ ENDP			; `dynamic initializer for 'Eigen::$00::$fix''
text$di	ENDS
END
