; Listing generated by Microsoft (R) Optimizing Compiler Version 19.31.31104.0 

include listing.inc

INCLUDELIB OLDNAMES

PUBLIC	??_C@_0BF@KINCDENJ@bad?5array?5new?5length@	; `string'
PUBLIC	??_C@_0BA@JFNIOLAK@string?5too?5long@		; `string'
PUBLIC	??_C@_08EPJLHIJG@bad?5cast@			; `string'
PUBLIC	??_C@_09CCKALEHK@?$BL?$FL7m?4?4?$BL?$FLm@	; `string'
PUBLIC	??_C@_0M@BAGGIMII@?$BL?$FL100m?4?4?$BL?$FLm@	; `string'
PUBLIC	??_C@_09CIGFLNGD@?$BL?$FL0m?4?4?$BL?$FLm@	; `string'
PUBLIC	??_C@_01EEMJAFIK@?6@				; `string'
PUBLIC	??_C@_08DACCFJBL@?5?$DN?$DO?5?$CFd?6?6@		; `string'
PUBLIC	??_C@_1OK@FPGGDFAL@?$AAC?$AA?3?$AA?2?$AAU?$AAs?$AAe?$AAr?$AAs?$AA?2?$AAm?$AAa?$AAr?$AAi?$AAj?$AA?2@ ; `string'
PUBLIC	??_C@_1GK@FICMDKNL@?$AAr?$AAo?$AAw?$AA?5?$AA?$DO?$AA?$DN?$AA?5?$AA0?$AA?5?$AA?$CG?$AA?$CG?$AA?5?$AAr?$AAo?$AAw@ ; `string'
PUBLIC	??_C@_1OI@LKFJMEGP@?$AAC?$AA?3?$AA?2?$AAU?$AAs?$AAe?$AAr?$AAs?$AA?2?$AAm?$AAa?$AAr?$AAi?$AAj?$AA?2@ ; `string'
PUBLIC	??_C@_1BM@PKEIKGEG@?$AAv?$AA?5?$AA?$DN?$AA?$DN?$AA?5?$AAT?$AA?$CI?$AAV?$AAa?$AAl?$AAu?$AAe?$AA?$CJ@ ; `string'
PUBLIC	??_C@_0BI@CFPLBAOH@invalid?5string?5position@	; `string'
PUBLIC	??_C@_0IO@MMJGGOKG@this?5assertion?5is?5explained?5her@ ; `string'
PUBLIC	??_C@_1OE@KCDPGIEF@?$AAC?$AA?3?$AA?2?$AAU?$AAs?$AAe?$AAr?$AAs?$AA?2?$AAm?$AAa?$AAr?$AAi?$AAj?$AA?2@ ; `string'
PUBLIC	??_C@_1BIA@NPMBPDOE@?$AA?$CI?$AAi?$AAn?$AAt?$AAe?$AAr?$AAn?$AAa?$AAl?$AA?3?$AA?3?$AAU?$AAI?$AAn?$AAt@ ; `string'
PUBLIC	??_C@_1OG@HCJJDHGA@?$AAC?$AA?3?$AA?2?$AAU?$AAs?$AAe?$AAr?$AAs?$AA?2?$AAm?$AAa?$AAr?$AAi?$AAj?$AA?2@ ; `string'
PUBLIC	??_C@_1HC@DONMBPHG@?$AAa?$AAL?$AAh?$AAs?$AA?4?$AAr?$AAo?$AAw?$AAs?$AA?$CI?$AA?$CJ?$AA?5?$AA?$DN?$AA?$DN?$AA?5@ ; `string'
PUBLIC	??_C@_1OI@JGDPHEEP@?$AAC?$AA?3?$AA?2?$AAU?$AAs?$AAe?$AAr?$AAs?$AA?2?$AAm?$AAa?$AAr?$AAi?$AAj?$AA?2@ ; `string'
PUBLIC	??_C@_1BCK@LCDGNMBA@?$AAr?$AAo?$AAw?$AAs?$AA?5?$AA?$DO?$AA?$DN?$AA?5?$AA0?$AA?5?$AA?$CG?$AA?$CG?$AA?5?$AA?$CI?$AAR@ ; `string'
PUBLIC	??_C@_1OK@PNMIMNMH@?$AAC?$AA?3?$AA?2?$AAU?$AAs?$AAe?$AAr?$AAs?$AA?2?$AAm?$AAa?$AAr?$AAi?$AAj?$AA?2@ ; `string'
PUBLIC	??_C@_1FO@DGNPLEBJ@?$AAd?$AAs?$AAt?$AA?4?$AAr?$AAo?$AAw?$AAs?$AA?$CI?$AA?$CJ?$AA?5?$AA?$DN?$AA?$DN?$AA?5?$AAd@ ; `string'
PUBLIC	??_R3?$basic_istream@DU?$char_traits@D@std@@@std@@8 ; std::basic_istream<char,std::char_traits<char> >::`RTTI Class Hierarchy Descriptor'
PUBLIC	??_R3?$basic_iostream@DU?$char_traits@D@std@@@std@@8 ; std::basic_iostream<char,std::char_traits<char> >::`RTTI Class Hierarchy Descriptor'
PUBLIC	??_R2?$basic_fstream@DU?$char_traits@D@std@@@std@@8 ; std::basic_fstream<char,std::char_traits<char> >::`RTTI Base Class Array'
PUBLIC	??_R0?AV?$basic_filebuf@DU?$char_traits@D@std@@@std@@@8 ; std::basic_filebuf<char,std::char_traits<char> > `RTTI Type Descriptor'
PUBLIC	??_R2bad_array_new_length@std@@8		; std::bad_array_new_length::`RTTI Base Class Array'
PUBLIC	??_R0?AV?$basic_fstream@DU?$char_traits@D@std@@@std@@@8 ; std::basic_fstream<char,std::char_traits<char> > `RTTI Type Descriptor'
PUBLIC	??_8?$basic_fstream@DU?$char_traits@D@std@@@std@@7B?$basic_ostream@DU?$char_traits@D@std@@@1@@ ; std::basic_fstream<char,std::char_traits<char> >::`vbtable'
PUBLIC	??_R1A@?0A@EA@?$basic_istream@DU?$char_traits@D@std@@@std@@8 ; std::basic_istream<char,std::char_traits<char> >::`RTTI Base Class Descriptor at (0,-1,0,64)'
PUBLIC	??_R1A@?0A@EA@bad_cast@std@@8			; std::bad_cast::`RTTI Base Class Descriptor at (0,-1,0,64)'
PUBLIC	??_R0?AVios_base@std@@@8			; std::ios_base `RTTI Type Descriptor'
PUBLIC	_CTA3?AVbad_array_new_length@std@@
PUBLIC	??_7bad_array_new_length@std@@6B@		; std::bad_array_new_length::`vftable'
PUBLIC	??_R3?$basic_fstream@DU?$char_traits@D@std@@@std@@8 ; std::basic_fstream<char,std::char_traits<char> >::`RTTI Class Hierarchy Descriptor'
PUBLIC	??_R0?AV?$basic_iostream@DU?$char_traits@D@std@@@std@@@8 ; std::basic_iostream<char,std::char_traits<char> > `RTTI Type Descriptor'
PUBLIC	??_R17A@3EA@?$_Iosb@H@std@@8			; std::_Iosb<int>::`RTTI Base Class Descriptor at (8,0,4,64)'
PUBLIC	??_R1A@?0A@EA@?$basic_fstream@DU?$char_traits@D@std@@@std@@8 ; std::basic_fstream<char,std::char_traits<char> >::`RTTI Base Class Descriptor at (0,-1,0,64)'
PUBLIC	??_R1A@?0A@EA@?$basic_streambuf@DU?$char_traits@D@std@@@std@@8 ; std::basic_streambuf<char,std::char_traits<char> >::`RTTI Base Class Descriptor at (0,-1,0,64)'
PUBLIC	??_7?$basic_filebuf@DU?$char_traits@D@std@@@std@@6B@ ; std::basic_filebuf<char,std::char_traits<char> >::`vftable'
PUBLIC	??_R2?$basic_istream@DU?$char_traits@D@std@@@std@@8 ; std::basic_istream<char,std::char_traits<char> >::`RTTI Base Class Array'
PUBLIC	?_OptionsStorage@?1??__local_stdio_printf_options@@9@4_KA ; `__local_stdio_printf_options'::`2'::_OptionsStorage
PUBLIC	??_R0?AV?$_Iosb@H@std@@@8			; std::_Iosb<int> `RTTI Type Descriptor'
PUBLIC	_CTA2?AVbad_cast@std@@
PUBLIC	??_R0?AV?$basic_streambuf@DU?$char_traits@D@std@@@std@@@8 ; std::basic_streambuf<char,std::char_traits<char> > `RTTI Type Descriptor'
PUBLIC	??_R2bad_cast@std@@8				; std::bad_cast::`RTTI Base Class Array'
PUBLIC	??_R2?$basic_ostream@DU?$char_traits@D@std@@@std@@8 ; std::basic_ostream<char,std::char_traits<char> >::`RTTI Base Class Array'
PUBLIC	??_7bad_cast@std@@6B@				; std::bad_cast::`vftable'
PUBLIC	??_R3?$basic_ios@DU?$char_traits@D@std@@@std@@8	; std::basic_ios<char,std::char_traits<char> >::`RTTI Class Hierarchy Descriptor'
PUBLIC	??_R0?AVbad_cast@std@@@8			; std::bad_cast `RTTI Type Descriptor'
PUBLIC	_TI2?AVbad_cast@std@@
PUBLIC	??_R1BA@?0A@EA@?$basic_ostream@DU?$char_traits@D@std@@@std@@8 ; std::basic_ostream<char,std::char_traits<char> >::`RTTI Base Class Descriptor at (16,-1,0,64)'
PUBLIC	??_R0?AV?$basic_istream@DU?$char_traits@D@std@@@std@@@8 ; std::basic_istream<char,std::char_traits<char> > `RTTI Type Descriptor'
PUBLIC	??_R1A@?0A@EA@ios_base@std@@8			; std::ios_base::`RTTI Base Class Descriptor at (0,-1,0,64)'
PUBLIC	_CT??_R0?AVbad_array_new_length@std@@@8??0bad_array_new_length@std@@QEAA@AEBV01@@Z24
PUBLIC	??_R1A@?0A@EA@?$basic_ostream@DU?$char_traits@D@std@@@std@@8 ; std::basic_ostream<char,std::char_traits<char> >::`RTTI Base Class Descriptor at (0,-1,0,64)'
PUBLIC	??_R4?$basic_filebuf@DU?$char_traits@D@std@@@std@@6B@ ; std::basic_filebuf<char,std::char_traits<char> >::`RTTI Complete Object Locator'
PUBLIC	??_R0?AV?$basic_ios@DU?$char_traits@D@std@@@std@@@8 ; std::basic_ios<char,std::char_traits<char> > `RTTI Type Descriptor'
PUBLIC	??_7?$basic_fstream@DU?$char_traits@D@std@@@std@@6B@ ; std::basic_fstream<char,std::char_traits<char> >::`vftable'
PUBLIC	??_R2?$basic_streambuf@DU?$char_traits@D@std@@@std@@8 ; std::basic_streambuf<char,std::char_traits<char> >::`RTTI Base Class Array'
PUBLIC	??_R1A@?0A@EA@?$_Iosb@H@std@@8			; std::_Iosb<int>::`RTTI Base Class Descriptor at (0,-1,0,64)'
PUBLIC	?_Psave@?$_Facetptr@V?$codecvt@DDU_Mbstatet@@@std@@@std@@2PEBVfacet@locale@2@EB ; std::_Facetptr<std::codecvt<char,char,_Mbstatet> >::_Psave
PUBLIC	?_Fake_alloc@std@@3U_Fake_allocator@1@B		; std::_Fake_alloc
PUBLIC	??_R2?$basic_iostream@DU?$char_traits@D@std@@@std@@8 ; std::basic_iostream<char,std::char_traits<char> >::`RTTI Base Class Array'
PUBLIC	??_R3bad_cast@std@@8				; std::bad_cast::`RTTI Class Hierarchy Descriptor'
PUBLIC	??_R4bad_cast@std@@6B@				; std::bad_cast::`RTTI Complete Object Locator'
PUBLIC	_CT??_R0?AVbad_cast@std@@@8??0bad_cast@std@@QEAA@AEBV01@@Z24
PUBLIC	??_R3bad_array_new_length@std@@8		; std::bad_array_new_length::`RTTI Class Hierarchy Descriptor'
PUBLIC	??_8?$basic_fstream@DU?$char_traits@D@std@@@std@@7B?$basic_istream@DU?$char_traits@D@std@@@1@@ ; std::basic_fstream<char,std::char_traits<char> >::`vbtable'
PUBLIC	??_R1A@?0A@EA@?$basic_filebuf@DU?$char_traits@D@std@@@std@@8 ; std::basic_filebuf<char,std::char_traits<char> >::`RTTI Base Class Descriptor at (0,-1,0,64)'
PUBLIC	??_R1A@A@3FA@?$basic_ios@DU?$char_traits@D@std@@@std@@8 ; std::basic_ios<char,std::char_traits<char> >::`RTTI Base Class Descriptor at (0,0,4,80)'
PUBLIC	??_R4bad_array_new_length@std@@6B@		; std::bad_array_new_length::`RTTI Complete Object Locator'
PUBLIC	??_R3?$basic_filebuf@DU?$char_traits@D@std@@@std@@8 ; std::basic_filebuf<char,std::char_traits<char> >::`RTTI Class Hierarchy Descriptor'
PUBLIC	??_R0?AV?$basic_ostream@DU?$char_traits@D@std@@@std@@@8 ; std::basic_ostream<char,std::char_traits<char> > `RTTI Type Descriptor'
PUBLIC	??_R2ios_base@std@@8				; std::ios_base::`RTTI Base Class Array'
PUBLIC	??_R3?$basic_ostream@DU?$char_traits@D@std@@@std@@8 ; std::basic_ostream<char,std::char_traits<char> >::`RTTI Class Hierarchy Descriptor'
PUBLIC	??_R1A@?0A@EA@?$basic_iostream@DU?$char_traits@D@std@@@std@@8 ; std::basic_iostream<char,std::char_traits<char> >::`RTTI Base Class Descriptor at (0,-1,0,64)'
PUBLIC	??_R3ios_base@std@@8				; std::ios_base::`RTTI Class Hierarchy Descriptor'
PUBLIC	??_R2?$basic_filebuf@DU?$char_traits@D@std@@@std@@8 ; std::basic_filebuf<char,std::char_traits<char> >::`RTTI Base Class Array'
PUBLIC	??_R3?$basic_streambuf@DU?$char_traits@D@std@@@std@@8 ; std::basic_streambuf<char,std::char_traits<char> >::`RTTI Class Hierarchy Descriptor'
PUBLIC	??_R1A@?0A@EA@bad_array_new_length@std@@8	; std::bad_array_new_length::`RTTI Base Class Descriptor at (0,-1,0,64)'
PUBLIC	??_R2?$_Iosb@H@std@@8				; std::_Iosb<int>::`RTTI Base Class Array'
PUBLIC	??_R1A@A@3EA@ios_base@std@@8			; std::ios_base::`RTTI Base Class Descriptor at (0,0,4,64)'
PUBLIC	??_R1A@?0A@EA@?$basic_ios@DU?$char_traits@D@std@@@std@@8 ; std::basic_ios<char,std::char_traits<char> >::`RTTI Base Class Descriptor at (0,-1,0,64)'
PUBLIC	??_R4?$basic_fstream@DU?$char_traits@D@std@@@std@@6B@ ; std::basic_fstream<char,std::char_traits<char> >::`RTTI Complete Object Locator'
PUBLIC	_TI3?AVbad_array_new_length@std@@
PUBLIC	??_R3?$_Iosb@H@std@@8				; std::_Iosb<int>::`RTTI Class Hierarchy Descriptor'
PUBLIC	??_R17?0A@EA@?$_Iosb@H@std@@8			; std::_Iosb<int>::`RTTI Base Class Descriptor at (8,-1,0,64)'
PUBLIC	??_R2?$basic_ios@DU?$char_traits@D@std@@@std@@8	; std::basic_ios<char,std::char_traits<char> >::`RTTI Base Class Array'
PUBLIC	??_R0?AVbad_array_new_length@std@@@8		; std::bad_array_new_length `RTTI Type Descriptor'
EXTRN	__imp_??Bid@locale@std@@QEAA_KXZ:PROC
EXTRN	__imp_?always_noconv@codecvt_base@std@@QEBA_NXZ:PROC
EXTRN	__imp_??7ios_base@std@@QEBA_NXZ:PROC
EXTRN	__imp_?rdstate@ios_base@std@@QEBAHXZ:PROC
EXTRN	__imp_?fail@ios_base@std@@QEBA_NXZ:PROC
EXTRN	__imp_??1?$basic_iostream@DU?$char_traits@D@std@@@std@@UEAA@XZ:PROC
EXTRN	__imp_?tellg@?$basic_istream@DU?$char_traits@D@std@@@std@@QEAA?AV?$fpos@U_Mbstatet@@@2@XZ:PROC
EXTRN	__imp_?seekg@?$basic_istream@DU?$char_traits@D@std@@@std@@QEAAAEAV12@V?$fpos@U_Mbstatet@@@2@@Z:PROC
EXTRN	__imp_?read@?$basic_istream@DU?$char_traits@D@std@@@std@@QEAAAEAV12@PEAD_J@Z:PROC
EXTRN	__imp_??1?$basic_ios@DU?$char_traits@D@std@@@std@@UEAA@XZ:PROC
EXTRN	__imp_?xsputn@?$basic_streambuf@DU?$char_traits@D@std@@@std@@MEAA_JPEBD_J@Z:PROC
EXTRN	__imp_?xsgetn@?$basic_streambuf@DU?$char_traits@D@std@@@std@@MEAA_JPEAD_J@Z:PROC
EXTRN	?showmanyc@?$basic_streambuf@DU?$char_traits@D@std@@@std@@MEAA_JXZ:PROC ; std::basic_streambuf<char,std::char_traits<char> >::showmanyc
EXTRN	__imp_?showmanyc@?$basic_streambuf@DU?$char_traits@D@std@@@std@@MEAA_JXZ:PROC
EXTRN	__imp_??1?$basic_streambuf@DU?$char_traits@D@std@@@std@@UEAA@XZ:PROC
EXTRN	__imp_??0?$basic_iostream@DU?$char_traits@D@std@@@std@@QEAA@PEAV?$basic_streambuf@DU?$char_traits@D@std@@@1@@Z:PROC
EXTRN	__imp_??0?$basic_ios@DU?$char_traits@D@std@@@std@@IEAA@XZ:PROC
EXTRN	__imp_?setstate@?$basic_ios@DU?$char_traits@D@std@@@std@@QEAAXH_N@Z:PROC
EXTRN	__imp_?_Pnavail@?$basic_streambuf@DU?$char_traits@D@std@@@std@@IEBA_JXZ:PROC
EXTRN	__imp_?_Pninc@?$basic_streambuf@DU?$char_traits@D@std@@@std@@IEAAPEADXZ:PROC
EXTRN	__imp_?pbump@?$basic_streambuf@DU?$char_traits@D@std@@@std@@IEAAXH@Z:PROC
EXTRN	__imp_?_Gnavail@?$basic_streambuf@DU?$char_traits@D@std@@@std@@IEBA_JXZ:PROC
EXTRN	__imp_?_Gninc@?$basic_streambuf@DU?$char_traits@D@std@@@std@@IEAAPEADXZ:PROC
EXTRN	__imp_?_Gndec@?$basic_streambuf@DU?$char_traits@D@std@@@std@@IEAAPEADXZ:PROC
EXTRN	__imp_?epptr@?$basic_streambuf@DU?$char_traits@D@std@@@std@@IEBAPEADXZ:PROC
EXTRN	__imp_?setg@?$basic_streambuf@DU?$char_traits@D@std@@@std@@IEAAXPEAD00@Z:PROC
EXTRN	__imp_?gbump@?$basic_streambuf@DU?$char_traits@D@std@@@std@@IEAAXH@Z:PROC
EXTRN	__imp_?egptr@?$basic_streambuf@DU?$char_traits@D@std@@@std@@IEBAPEADXZ:PROC
EXTRN	__imp_?pptr@?$basic_streambuf@DU?$char_traits@D@std@@@std@@IEBAPEADXZ:PROC
EXTRN	__imp_?gptr@?$basic_streambuf@DU?$char_traits@D@std@@@std@@IEBAPEADXZ:PROC
EXTRN	__imp_?eback@?$basic_streambuf@DU?$char_traits@D@std@@@std@@IEBAPEADXZ:PROC
EXTRN	__imp_?out@?$codecvt@DDU_Mbstatet@@@std@@QEBAHAEAU_Mbstatet@@PEBD1AEAPEBDPEAD3AEAPEAD@Z:PROC
EXTRN	__imp_?in@?$codecvt@DDU_Mbstatet@@@std@@QEBAHAEAU_Mbstatet@@PEBD1AEAPEBDPEAD3AEAPEAD@Z:PROC
EXTRN	__imp_?_Init@?$basic_streambuf@DU?$char_traits@D@std@@@std@@IEAAXPEAPEAD0PEAH001@Z:PROC
EXTRN	__imp_?_Init@?$basic_streambuf@DU?$char_traits@D@std@@@std@@IEAAXXZ:PROC
EXTRN	__imp_?setp@?$basic_streambuf@DU?$char_traits@D@std@@@std@@IEAAXPEAD0@Z:PROC
EXTRN	__imp_?getloc@?$basic_streambuf@DU?$char_traits@D@std@@@std@@QEBA?AVlocale@2@XZ:PROC
EXTRN	__imp_??0?$basic_streambuf@DU?$char_traits@D@std@@@std@@IEAA@XZ:PROC
EXTRN	__imp_?unshift@?$codecvt@DDU_Mbstatet@@@std@@QEBAHAEAU_Mbstatet@@PEAD1AEAPEAD@Z:PROC
EXTRN	__imp_?_Getcat@?$codecvt@DDU_Mbstatet@@@std@@SA_KPEAPEBVfacet@locale@2@PEBV42@@Z:PROC
EXTRN	__imp__get_stream_buffer_pointers:PROC
EXTRN	__imp__invalid_parameter_noinfo_noreturn:PROC
EXTRN	__imp__fseeki64:PROC
EXTRN	__imp_fread:PROC
EXTRN	__imp_fsetpos:PROC
EXTRN	__imp_round:PROC
EXTRN	__imp_ungetc:PROC
EXTRN	__imp_setvbuf:PROC
EXTRN	??_U@YAPEAX_KW4align_val_t@std@@@Z:PROC		; operator new[]
EXTRN	__imp_fgetpos:PROC
EXTRN	__imp_fwrite:PROC
EXTRN	__imp__lock_file:PROC
EXTRN	__imp__unlock_file:PROC
EXTRN	__imp___stdio_common_vfprintf:PROC
EXTRN	??3@YAXPEAX@Z:PROC				; operator delete
EXTRN	__imp_fgetc:PROC
EXTRN	__imp_?_Xlength_error@std@@YAXPEBD@Z:PROC
EXTRN	__imp_?_Fiopen@std@@YAPEAU_iobuf@@PEBDHH@Z:PROC
EXTRN	?_Facet_Register@std@@YAXPEAV_Facet_base@1@@Z:PROC ; std::_Facet_Register
EXTRN	__imp_?id@?$codecvt@DDU_Mbstatet@@@std@@2V0locale@2@A:QWORD
EXTRN	__imp_?_Xout_of_range@std@@YAXPEBD@Z:PROC
EXTRN	__imp_?_Getgloballocale@locale@std@@CAPEAV_Locimp@12@XZ:PROC
EXTRN	__imp_??0_Lockit@std@@QEAA@H@Z:PROC
EXTRN	__imp_??1_Lockit@std@@QEAA@XZ:PROC
EXTRN	__imp_fclose:PROC
EXTRN	??2@YAPEAX_K@Z:PROC				; operator new
EXTRN	__imp_fflush:PROC
EXTRN	__imp___acrt_iob_func:PROC
EXTRN	__imp_fputc:PROC
EXTRN	??_V@YAXPEAX_KW4align_val_t@std@@@Z:PROC	; operator delete[]
;	COMDAT ?_OptionsStorage@?1??__local_stdio_printf_options@@9@4_KA
_BSS	SEGMENT
?_OptionsStorage@?1??__local_stdio_printf_options@@9@4_KA DQ 01H DUP (?) ; `__local_stdio_printf_options'::`2'::_OptionsStorage
_BSS	ENDS
;	COMDAT ?_Psave@?$_Facetptr@V?$codecvt@DDU_Mbstatet@@@std@@@std@@2PEBVfacet@locale@2@EB
_BSS	SEGMENT
?_Psave@?$_Facetptr@V?$codecvt@DDU_Mbstatet@@@std@@@std@@2PEBVfacet@locale@2@EB DQ 01H DUP (?) ; std::_Facetptr<std::codecvt<char,char,_Mbstatet> >::_Psave
_BSS	ENDS
;	COMDAT ??_R0?AVbad_array_new_length@std@@@8
data$r	SEGMENT
??_R0?AVbad_array_new_length@std@@@8 DQ FLAT:??_7type_info@@6B@ ; std::bad_array_new_length `RTTI Type Descriptor'
	DQ	0000000000000000H
	DB	'.?AVbad_array_new_length@std@@', 00H
data$r	ENDS
;	COMDAT ??_R2?$basic_ios@DU?$char_traits@D@std@@@std@@8
rdata$r	SEGMENT
??_R2?$basic_ios@DU?$char_traits@D@std@@@std@@8 DD imagerel ??_R1A@?0A@EA@?$basic_ios@DU?$char_traits@D@std@@@std@@8 ; std::basic_ios<char,std::char_traits<char> >::`RTTI Base Class Array'
	DD	imagerel ??_R1A@?0A@EA@ios_base@std@@8
	DD	imagerel ??_R17?0A@EA@?$_Iosb@H@std@@8
	ORG $+3
rdata$r	ENDS
;	COMDAT ??_R17?0A@EA@?$_Iosb@H@std@@8
rdata$r	SEGMENT
??_R17?0A@EA@?$_Iosb@H@std@@8 DD imagerel ??_R0?AV?$_Iosb@H@std@@@8 ; std::_Iosb<int>::`RTTI Base Class Descriptor at (8,-1,0,64)'
	DD	00H
	DD	08H
	DD	0ffffffffH
	DD	00H
	DD	040H
	DD	imagerel ??_R3?$_Iosb@H@std@@8
rdata$r	ENDS
;	COMDAT ??_R3?$_Iosb@H@std@@8
rdata$r	SEGMENT
??_R3?$_Iosb@H@std@@8 DD 00H				; std::_Iosb<int>::`RTTI Class Hierarchy Descriptor'
	DD	00H
	DD	01H
	DD	imagerel ??_R2?$_Iosb@H@std@@8
rdata$r	ENDS
;	COMDAT _TI3?AVbad_array_new_length@std@@
xdata$x	SEGMENT
_TI3?AVbad_array_new_length@std@@ DD 00H
	DD	imagerel ??1bad_array_new_length@std@@UEAA@XZ
	DD	00H
	DD	imagerel _CTA3?AVbad_array_new_length@std@@
xdata$x	ENDS
;	COMDAT ??_R4?$basic_fstream@DU?$char_traits@D@std@@@std@@6B@
rdata$r	SEGMENT
??_R4?$basic_fstream@DU?$char_traits@D@std@@@std@@6B@ DD 01H ; std::basic_fstream<char,std::char_traits<char> >::`RTTI Complete Object Locator'
	DD	0b8H
	DD	04H
	DD	imagerel ??_R0?AV?$basic_fstream@DU?$char_traits@D@std@@@std@@@8
	DD	imagerel ??_R3?$basic_fstream@DU?$char_traits@D@std@@@std@@8
	DD	imagerel ??_R4?$basic_fstream@DU?$char_traits@D@std@@@std@@6B@
rdata$r	ENDS
;	COMDAT ??_R1A@?0A@EA@?$basic_ios@DU?$char_traits@D@std@@@std@@8
rdata$r	SEGMENT
??_R1A@?0A@EA@?$basic_ios@DU?$char_traits@D@std@@@std@@8 DD imagerel ??_R0?AV?$basic_ios@DU?$char_traits@D@std@@@std@@@8 ; std::basic_ios<char,std::char_traits<char> >::`RTTI Base Class Descriptor at (0,-1,0,64)'
	DD	02H
	DD	00H
	DD	0ffffffffH
	DD	00H
	DD	040H
	DD	imagerel ??_R3?$basic_ios@DU?$char_traits@D@std@@@std@@8
rdata$r	ENDS
;	COMDAT ??_R1A@A@3EA@ios_base@std@@8
rdata$r	SEGMENT
??_R1A@A@3EA@ios_base@std@@8 DD imagerel ??_R0?AVios_base@std@@@8 ; std::ios_base::`RTTI Base Class Descriptor at (0,0,4,64)'
	DD	01H
	DD	00H
	DD	00H
	DD	04H
	DD	040H
	DD	imagerel ??_R3ios_base@std@@8
rdata$r	ENDS
;	COMDAT ??_R2?$_Iosb@H@std@@8
rdata$r	SEGMENT
??_R2?$_Iosb@H@std@@8 DD imagerel ??_R1A@?0A@EA@?$_Iosb@H@std@@8 ; std::_Iosb<int>::`RTTI Base Class Array'
	ORG $+3
rdata$r	ENDS
;	COMDAT ??_R1A@?0A@EA@bad_array_new_length@std@@8
rdata$r	SEGMENT
??_R1A@?0A@EA@bad_array_new_length@std@@8 DD imagerel ??_R0?AVbad_array_new_length@std@@@8 ; std::bad_array_new_length::`RTTI Base Class Descriptor at (0,-1,0,64)'
	DD	02H
	DD	00H
	DD	0ffffffffH
	DD	00H
	DD	040H
	DD	imagerel ??_R3bad_array_new_length@std@@8
rdata$r	ENDS
;	COMDAT ??_R3?$basic_streambuf@DU?$char_traits@D@std@@@std@@8
rdata$r	SEGMENT
??_R3?$basic_streambuf@DU?$char_traits@D@std@@@std@@8 DD 00H ; std::basic_streambuf<char,std::char_traits<char> >::`RTTI Class Hierarchy Descriptor'
	DD	00H
	DD	01H
	DD	imagerel ??_R2?$basic_streambuf@DU?$char_traits@D@std@@@std@@8
rdata$r	ENDS
;	COMDAT ??_R2?$basic_filebuf@DU?$char_traits@D@std@@@std@@8
rdata$r	SEGMENT
??_R2?$basic_filebuf@DU?$char_traits@D@std@@@std@@8 DD imagerel ??_R1A@?0A@EA@?$basic_filebuf@DU?$char_traits@D@std@@@std@@8 ; std::basic_filebuf<char,std::char_traits<char> >::`RTTI Base Class Array'
	DD	imagerel ??_R1A@?0A@EA@?$basic_streambuf@DU?$char_traits@D@std@@@std@@8
	ORG $+3
rdata$r	ENDS
;	COMDAT ??_R3ios_base@std@@8
rdata$r	SEGMENT
??_R3ios_base@std@@8 DD 00H				; std::ios_base::`RTTI Class Hierarchy Descriptor'
	DD	00H
	DD	02H
	DD	imagerel ??_R2ios_base@std@@8
rdata$r	ENDS
;	COMDAT ??_R1A@?0A@EA@?$basic_iostream@DU?$char_traits@D@std@@@std@@8
rdata$r	SEGMENT
??_R1A@?0A@EA@?$basic_iostream@DU?$char_traits@D@std@@@std@@8 DD imagerel ??_R0?AV?$basic_iostream@DU?$char_traits@D@std@@@std@@@8 ; std::basic_iostream<char,std::char_traits<char> >::`RTTI Base Class Descriptor at (0,-1,0,64)'
	DD	08H
	DD	00H
	DD	0ffffffffH
	DD	00H
	DD	040H
	DD	imagerel ??_R3?$basic_iostream@DU?$char_traits@D@std@@@std@@8
rdata$r	ENDS
;	COMDAT ??_R3?$basic_ostream@DU?$char_traits@D@std@@@std@@8
rdata$r	SEGMENT
??_R3?$basic_ostream@DU?$char_traits@D@std@@@std@@8 DD 00H ; std::basic_ostream<char,std::char_traits<char> >::`RTTI Class Hierarchy Descriptor'
	DD	00H
	DD	04H
	DD	imagerel ??_R2?$basic_ostream@DU?$char_traits@D@std@@@std@@8
rdata$r	ENDS
;	COMDAT ??_R2ios_base@std@@8
rdata$r	SEGMENT
??_R2ios_base@std@@8 DD imagerel ??_R1A@?0A@EA@ios_base@std@@8 ; std::ios_base::`RTTI Base Class Array'
	DD	imagerel ??_R17?0A@EA@?$_Iosb@H@std@@8
	ORG $+3
rdata$r	ENDS
;	COMDAT ??_R0?AV?$basic_ostream@DU?$char_traits@D@std@@@std@@@8
data$rs	SEGMENT
??_R0?AV?$basic_ostream@DU?$char_traits@D@std@@@std@@@8 DQ FLAT:??_7type_info@@6B@ ; std::basic_ostream<char,std::char_traits<char> > `RTTI Type Descriptor'
	DQ	0000000000000000H
	DB	'.?AV?$basic_ostream@DU?$char_traits@D@std@@@std@@', 00H
data$rs	ENDS
;	COMDAT ??_R3?$basic_filebuf@DU?$char_traits@D@std@@@std@@8
rdata$r	SEGMENT
??_R3?$basic_filebuf@DU?$char_traits@D@std@@@std@@8 DD 00H ; std::basic_filebuf<char,std::char_traits<char> >::`RTTI Class Hierarchy Descriptor'
	DD	00H
	DD	02H
	DD	imagerel ??_R2?$basic_filebuf@DU?$char_traits@D@std@@@std@@8
rdata$r	ENDS
;	COMDAT ??_R4bad_array_new_length@std@@6B@
rdata$r	SEGMENT
??_R4bad_array_new_length@std@@6B@ DD 01H		; std::bad_array_new_length::`RTTI Complete Object Locator'
	DD	00H
	DD	00H
	DD	imagerel ??_R0?AVbad_array_new_length@std@@@8
	DD	imagerel ??_R3bad_array_new_length@std@@8
	DD	imagerel ??_R4bad_array_new_length@std@@6B@
rdata$r	ENDS
;	COMDAT ??_R1A@A@3FA@?$basic_ios@DU?$char_traits@D@std@@@std@@8
rdata$r	SEGMENT
??_R1A@A@3FA@?$basic_ios@DU?$char_traits@D@std@@@std@@8 DD imagerel ??_R0?AV?$basic_ios@DU?$char_traits@D@std@@@std@@@8 ; std::basic_ios<char,std::char_traits<char> >::`RTTI Base Class Descriptor at (0,0,4,80)'
	DD	02H
	DD	00H
	DD	00H
	DD	04H
	DD	050H
	DD	imagerel ??_R3?$basic_ios@DU?$char_traits@D@std@@@std@@8
rdata$r	ENDS
;	COMDAT ??_R1A@?0A@EA@?$basic_filebuf@DU?$char_traits@D@std@@@std@@8
rdata$r	SEGMENT
??_R1A@?0A@EA@?$basic_filebuf@DU?$char_traits@D@std@@@std@@8 DD imagerel ??_R0?AV?$basic_filebuf@DU?$char_traits@D@std@@@std@@@8 ; std::basic_filebuf<char,std::char_traits<char> >::`RTTI Base Class Descriptor at (0,-1,0,64)'
	DD	01H
	DD	00H
	DD	0ffffffffH
	DD	00H
	DD	040H
	DD	imagerel ??_R3?$basic_filebuf@DU?$char_traits@D@std@@@std@@8
rdata$r	ENDS
;	COMDAT ??_8?$basic_fstream@DU?$char_traits@D@std@@@std@@7B?$basic_istream@DU?$char_traits@D@std@@@1@@
CONST	SEGMENT
??_8?$basic_fstream@DU?$char_traits@D@std@@@std@@7B?$basic_istream@DU?$char_traits@D@std@@@1@@ DD 00H ; std::basic_fstream<char,std::char_traits<char> >::`vbtable'
	DD	0b8H
CONST	ENDS
;	COMDAT ??_R3bad_array_new_length@std@@8
rdata$r	SEGMENT
??_R3bad_array_new_length@std@@8 DD 00H			; std::bad_array_new_length::`RTTI Class Hierarchy Descriptor'
	DD	00H
	DD	03H
	DD	imagerel ??_R2bad_array_new_length@std@@8
rdata$r	ENDS
;	COMDAT _CT??_R0?AVbad_cast@std@@@8??0bad_cast@std@@QEAA@AEBV01@@Z24
xdata$x	SEGMENT
_CT??_R0?AVbad_cast@std@@@8??0bad_cast@std@@QEAA@AEBV01@@Z24 DD 00H
	DD	imagerel ??_R0?AVbad_cast@std@@@8
	DD	00H
	DD	0ffffffffH
	ORG $+4
	DD	018H
	DD	imagerel ??0bad_cast@std@@QEAA@AEBV01@@Z
xdata$x	ENDS
;	COMDAT ??_R4bad_cast@std@@6B@
rdata$r	SEGMENT
??_R4bad_cast@std@@6B@ DD 01H				; std::bad_cast::`RTTI Complete Object Locator'
	DD	00H
	DD	00H
	DD	imagerel ??_R0?AVbad_cast@std@@@8
	DD	imagerel ??_R3bad_cast@std@@8
	DD	imagerel ??_R4bad_cast@std@@6B@
rdata$r	ENDS
;	COMDAT ??_R3bad_cast@std@@8
rdata$r	SEGMENT
??_R3bad_cast@std@@8 DD 00H				; std::bad_cast::`RTTI Class Hierarchy Descriptor'
	DD	00H
	DD	02H
	DD	imagerel ??_R2bad_cast@std@@8
rdata$r	ENDS
;	COMDAT ??_R2?$basic_iostream@DU?$char_traits@D@std@@@std@@8
rdata$r	SEGMENT
??_R2?$basic_iostream@DU?$char_traits@D@std@@@std@@8 DD imagerel ??_R1A@?0A@EA@?$basic_iostream@DU?$char_traits@D@std@@@std@@8 ; std::basic_iostream<char,std::char_traits<char> >::`RTTI Base Class Array'
	DD	imagerel ??_R1A@?0A@EA@?$basic_istream@DU?$char_traits@D@std@@@std@@8
	DD	imagerel ??_R1A@A@3FA@?$basic_ios@DU?$char_traits@D@std@@@std@@8
	DD	imagerel ??_R1A@A@3EA@ios_base@std@@8
	DD	imagerel ??_R17A@3EA@?$_Iosb@H@std@@8
	DD	imagerel ??_R1BA@?0A@EA@?$basic_ostream@DU?$char_traits@D@std@@@std@@8
	DD	imagerel ??_R1A@A@3FA@?$basic_ios@DU?$char_traits@D@std@@@std@@8
	DD	imagerel ??_R1A@A@3EA@ios_base@std@@8
	DD	imagerel ??_R17A@3EA@?$_Iosb@H@std@@8
	ORG $+3
rdata$r	ENDS
;	COMDAT ?_Fake_alloc@std@@3U_Fake_allocator@1@B
CONST	SEGMENT
?_Fake_alloc@std@@3U_Fake_allocator@1@B	ORG $+1		; std::_Fake_alloc
CONST	ENDS
;	COMDAT ??_R1A@?0A@EA@?$_Iosb@H@std@@8
rdata$r	SEGMENT
??_R1A@?0A@EA@?$_Iosb@H@std@@8 DD imagerel ??_R0?AV?$_Iosb@H@std@@@8 ; std::_Iosb<int>::`RTTI Base Class Descriptor at (0,-1,0,64)'
	DD	00H
	DD	00H
	DD	0ffffffffH
	DD	00H
	DD	040H
	DD	imagerel ??_R3?$_Iosb@H@std@@8
rdata$r	ENDS
;	COMDAT ??_R2?$basic_streambuf@DU?$char_traits@D@std@@@std@@8
rdata$r	SEGMENT
??_R2?$basic_streambuf@DU?$char_traits@D@std@@@std@@8 DD imagerel ??_R1A@?0A@EA@?$basic_streambuf@DU?$char_traits@D@std@@@std@@8 ; std::basic_streambuf<char,std::char_traits<char> >::`RTTI Base Class Array'
	ORG $+3
rdata$r	ENDS
;	COMDAT ??_7?$basic_fstream@DU?$char_traits@D@std@@@std@@6B@
CONST	SEGMENT
??_7?$basic_fstream@DU?$char_traits@D@std@@@std@@6B@ DQ FLAT:??_R4?$basic_fstream@DU?$char_traits@D@std@@@std@@6B@ ; std::basic_fstream<char,std::char_traits<char> >::`vftable'
	DQ	FLAT:??_E?$basic_fstream@DU?$char_traits@D@std@@@std@@$4PPPPPPPM@A@EAAPEAXI@Z
CONST	ENDS
;	COMDAT ??_R0?AV?$basic_ios@DU?$char_traits@D@std@@@std@@@8
data$rs	SEGMENT
??_R0?AV?$basic_ios@DU?$char_traits@D@std@@@std@@@8 DQ FLAT:??_7type_info@@6B@ ; std::basic_ios<char,std::char_traits<char> > `RTTI Type Descriptor'
	DQ	0000000000000000H
	DB	'.?AV?$basic_ios@DU?$char_traits@D@std@@@std@@', 00H
data$rs	ENDS
;	COMDAT ??_R4?$basic_filebuf@DU?$char_traits@D@std@@@std@@6B@
rdata$r	SEGMENT
??_R4?$basic_filebuf@DU?$char_traits@D@std@@@std@@6B@ DD 01H ; std::basic_filebuf<char,std::char_traits<char> >::`RTTI Complete Object Locator'
	DD	00H
	DD	00H
	DD	imagerel ??_R0?AV?$basic_filebuf@DU?$char_traits@D@std@@@std@@@8
	DD	imagerel ??_R3?$basic_filebuf@DU?$char_traits@D@std@@@std@@8
	DD	imagerel ??_R4?$basic_filebuf@DU?$char_traits@D@std@@@std@@6B@
rdata$r	ENDS
;	COMDAT ??_R1A@?0A@EA@?$basic_ostream@DU?$char_traits@D@std@@@std@@8
rdata$r	SEGMENT
??_R1A@?0A@EA@?$basic_ostream@DU?$char_traits@D@std@@@std@@8 DD imagerel ??_R0?AV?$basic_ostream@DU?$char_traits@D@std@@@std@@@8 ; std::basic_ostream<char,std::char_traits<char> >::`RTTI Base Class Descriptor at (0,-1,0,64)'
	DD	03H
	DD	00H
	DD	0ffffffffH
	DD	00H
	DD	040H
	DD	imagerel ??_R3?$basic_ostream@DU?$char_traits@D@std@@@std@@8
rdata$r	ENDS
;	COMDAT _CT??_R0?AVbad_array_new_length@std@@@8??0bad_array_new_length@std@@QEAA@AEBV01@@Z24
xdata$x	SEGMENT
_CT??_R0?AVbad_array_new_length@std@@@8??0bad_array_new_length@std@@QEAA@AEBV01@@Z24 DD 00H
	DD	imagerel ??_R0?AVbad_array_new_length@std@@@8
	DD	00H
	DD	0ffffffffH
	ORG $+4
	DD	018H
	DD	imagerel ??0bad_array_new_length@std@@QEAA@AEBV01@@Z
xdata$x	ENDS
;	COMDAT ??_R1A@?0A@EA@ios_base@std@@8
rdata$r	SEGMENT
??_R1A@?0A@EA@ios_base@std@@8 DD imagerel ??_R0?AVios_base@std@@@8 ; std::ios_base::`RTTI Base Class Descriptor at (0,-1,0,64)'
	DD	01H
	DD	00H
	DD	0ffffffffH
	DD	00H
	DD	040H
	DD	imagerel ??_R3ios_base@std@@8
rdata$r	ENDS
;	COMDAT ??_R0?AV?$basic_istream@DU?$char_traits@D@std@@@std@@@8
data$rs	SEGMENT
??_R0?AV?$basic_istream@DU?$char_traits@D@std@@@std@@@8 DQ FLAT:??_7type_info@@6B@ ; std::basic_istream<char,std::char_traits<char> > `RTTI Type Descriptor'
	DQ	0000000000000000H
	DB	'.?AV?$basic_istream@DU?$char_traits@D@std@@@std@@', 00H
data$rs	ENDS
;	COMDAT ??_R1BA@?0A@EA@?$basic_ostream@DU?$char_traits@D@std@@@std@@8
rdata$r	SEGMENT
??_R1BA@?0A@EA@?$basic_ostream@DU?$char_traits@D@std@@@std@@8 DD imagerel ??_R0?AV?$basic_ostream@DU?$char_traits@D@std@@@std@@@8 ; std::basic_ostream<char,std::char_traits<char> >::`RTTI Base Class Descriptor at (16,-1,0,64)'
	DD	03H
	DD	010H
	DD	0ffffffffH
	DD	00H
	DD	040H
	DD	imagerel ??_R3?$basic_ostream@DU?$char_traits@D@std@@@std@@8
rdata$r	ENDS
;	COMDAT _TI2?AVbad_cast@std@@
xdata$x	SEGMENT
_TI2?AVbad_cast@std@@ DD 00H
	DD	imagerel ??1bad_cast@std@@UEAA@XZ
	DD	00H
	DD	imagerel _CTA2?AVbad_cast@std@@
xdata$x	ENDS
;	COMDAT ??_R0?AVbad_cast@std@@@8
data$r	SEGMENT
??_R0?AVbad_cast@std@@@8 DQ FLAT:??_7type_info@@6B@	; std::bad_cast `RTTI Type Descriptor'
	DQ	0000000000000000H
	DB	'.?AVbad_cast@std@@', 00H
data$r	ENDS
;	COMDAT ??_R3?$basic_ios@DU?$char_traits@D@std@@@std@@8
rdata$r	SEGMENT
??_R3?$basic_ios@DU?$char_traits@D@std@@@std@@8 DD 00H	; std::basic_ios<char,std::char_traits<char> >::`RTTI Class Hierarchy Descriptor'
	DD	00H
	DD	03H
	DD	imagerel ??_R2?$basic_ios@DU?$char_traits@D@std@@@std@@8
rdata$r	ENDS
;	COMDAT ??_7bad_cast@std@@6B@
CONST	SEGMENT
??_7bad_cast@std@@6B@ DQ FLAT:??_R4bad_cast@std@@6B@	; std::bad_cast::`vftable'
	DQ	FLAT:??_Ebad_cast@std@@UEAAPEAXI@Z
	DQ	FLAT:?what@exception@std@@UEBAPEBDXZ
CONST	ENDS
;	COMDAT ??_R2?$basic_ostream@DU?$char_traits@D@std@@@std@@8
rdata$r	SEGMENT
??_R2?$basic_ostream@DU?$char_traits@D@std@@@std@@8 DD imagerel ??_R1A@?0A@EA@?$basic_ostream@DU?$char_traits@D@std@@@std@@8 ; std::basic_ostream<char,std::char_traits<char> >::`RTTI Base Class Array'
	DD	imagerel ??_R1A@A@3FA@?$basic_ios@DU?$char_traits@D@std@@@std@@8
	DD	imagerel ??_R1A@A@3EA@ios_base@std@@8
	DD	imagerel ??_R17A@3EA@?$_Iosb@H@std@@8
	ORG $+3
rdata$r	ENDS
;	COMDAT ??_R2bad_cast@std@@8
rdata$r	SEGMENT
??_R2bad_cast@std@@8 DD imagerel ??_R1A@?0A@EA@bad_cast@std@@8 ; std::bad_cast::`RTTI Base Class Array'
	DD	imagerel ??_R1A@?0A@EA@exception@std@@8
	ORG $+3
rdata$r	ENDS
;	COMDAT ??_R0?AV?$basic_streambuf@DU?$char_traits@D@std@@@std@@@8
data$rs	SEGMENT
??_R0?AV?$basic_streambuf@DU?$char_traits@D@std@@@std@@@8 DQ FLAT:??_7type_info@@6B@ ; std::basic_streambuf<char,std::char_traits<char> > `RTTI Type Descriptor'
	DQ	0000000000000000H
	DB	'.?AV?$basic_streambuf@DU?$char_traits@D@std@@@std@@', 00H
data$rs	ENDS
;	COMDAT _CTA2?AVbad_cast@std@@
xdata$x	SEGMENT
_CTA2?AVbad_cast@std@@ DD 02H
	DD	imagerel _CT??_R0?AVbad_cast@std@@@8??0bad_cast@std@@QEAA@AEBV01@@Z24
	DD	imagerel _CT??_R0?AVexception@std@@@8??0exception@std@@QEAA@AEBV01@@Z24
xdata$x	ENDS
;	COMDAT ??_R0?AV?$_Iosb@H@std@@@8
data$rs	SEGMENT
??_R0?AV?$_Iosb@H@std@@@8 DQ FLAT:??_7type_info@@6B@	; std::_Iosb<int> `RTTI Type Descriptor'
	DQ	0000000000000000H
	DB	'.?AV?$_Iosb@H@std@@', 00H
data$rs	ENDS
;	COMDAT ??_R2?$basic_istream@DU?$char_traits@D@std@@@std@@8
rdata$r	SEGMENT
??_R2?$basic_istream@DU?$char_traits@D@std@@@std@@8 DD imagerel ??_R1A@?0A@EA@?$basic_istream@DU?$char_traits@D@std@@@std@@8 ; std::basic_istream<char,std::char_traits<char> >::`RTTI Base Class Array'
	DD	imagerel ??_R1A@A@3FA@?$basic_ios@DU?$char_traits@D@std@@@std@@8
	DD	imagerel ??_R1A@A@3EA@ios_base@std@@8
	DD	imagerel ??_R17A@3EA@?$_Iosb@H@std@@8
	ORG $+3
rdata$r	ENDS
;	COMDAT ??_7?$basic_filebuf@DU?$char_traits@D@std@@@std@@6B@
CONST	SEGMENT
??_7?$basic_filebuf@DU?$char_traits@D@std@@@std@@6B@ DQ FLAT:??_R4?$basic_filebuf@DU?$char_traits@D@std@@@std@@6B@ ; std::basic_filebuf<char,std::char_traits<char> >::`vftable'
	DQ	FLAT:??_E?$basic_filebuf@DU?$char_traits@D@std@@@std@@UEAAPEAXI@Z
	DQ	FLAT:?_Lock@?$basic_filebuf@DU?$char_traits@D@std@@@std@@UEAAXXZ
	DQ	FLAT:?_Unlock@?$basic_filebuf@DU?$char_traits@D@std@@@std@@UEAAXXZ
	DQ	FLAT:?overflow@?$basic_filebuf@DU?$char_traits@D@std@@@std@@MEAAHH@Z
	DQ	FLAT:?pbackfail@?$basic_filebuf@DU?$char_traits@D@std@@@std@@MEAAHH@Z
	DQ	FLAT:?showmanyc@?$basic_streambuf@DU?$char_traits@D@std@@@std@@MEAA_JXZ
	DQ	FLAT:?underflow@?$basic_filebuf@DU?$char_traits@D@std@@@std@@MEAAHXZ
	DQ	FLAT:?uflow@?$basic_filebuf@DU?$char_traits@D@std@@@std@@MEAAHXZ
	DQ	FLAT:?xsgetn@?$basic_filebuf@DU?$char_traits@D@std@@@std@@MEAA_JPEAD_J@Z
	DQ	FLAT:?xsputn@?$basic_filebuf@DU?$char_traits@D@std@@@std@@MEAA_JPEBD_J@Z
	DQ	FLAT:?seekoff@?$basic_filebuf@DU?$char_traits@D@std@@@std@@MEAA?AV?$fpos@U_Mbstatet@@@2@_JHH@Z
	DQ	FLAT:?seekpos@?$basic_filebuf@DU?$char_traits@D@std@@@std@@MEAA?AV?$fpos@U_Mbstatet@@@2@V32@H@Z
	DQ	FLAT:?setbuf@?$basic_filebuf@DU?$char_traits@D@std@@@std@@MEAAPEAV?$basic_streambuf@DU?$char_traits@D@std@@@2@PEAD_J@Z
	DQ	FLAT:?sync@?$basic_filebuf@DU?$char_traits@D@std@@@std@@MEAAHXZ
	DQ	FLAT:?imbue@?$basic_filebuf@DU?$char_traits@D@std@@@std@@MEAAXAEBVlocale@2@@Z
CONST	ENDS
;	COMDAT ??_R1A@?0A@EA@?$basic_streambuf@DU?$char_traits@D@std@@@std@@8
rdata$r	SEGMENT
??_R1A@?0A@EA@?$basic_streambuf@DU?$char_traits@D@std@@@std@@8 DD imagerel ??_R0?AV?$basic_streambuf@DU?$char_traits@D@std@@@std@@@8 ; std::basic_streambuf<char,std::char_traits<char> >::`RTTI Base Class Descriptor at (0,-1,0,64)'
	DD	00H
	DD	00H
	DD	0ffffffffH
	DD	00H
	DD	040H
	DD	imagerel ??_R3?$basic_streambuf@DU?$char_traits@D@std@@@std@@8
rdata$r	ENDS
;	COMDAT ??_R1A@?0A@EA@?$basic_fstream@DU?$char_traits@D@std@@@std@@8
rdata$r	SEGMENT
??_R1A@?0A@EA@?$basic_fstream@DU?$char_traits@D@std@@@std@@8 DD imagerel ??_R0?AV?$basic_fstream@DU?$char_traits@D@std@@@std@@@8 ; std::basic_fstream<char,std::char_traits<char> >::`RTTI Base Class Descriptor at (0,-1,0,64)'
	DD	09H
	DD	00H
	DD	0ffffffffH
	DD	00H
	DD	040H
	DD	imagerel ??_R3?$basic_fstream@DU?$char_traits@D@std@@@std@@8
rdata$r	ENDS
;	COMDAT ??_R17A@3EA@?$_Iosb@H@std@@8
rdata$r	SEGMENT
??_R17A@3EA@?$_Iosb@H@std@@8 DD imagerel ??_R0?AV?$_Iosb@H@std@@@8 ; std::_Iosb<int>::`RTTI Base Class Descriptor at (8,0,4,64)'
	DD	00H
	DD	08H
	DD	00H
	DD	04H
	DD	040H
	DD	imagerel ??_R3?$_Iosb@H@std@@8
rdata$r	ENDS
;	COMDAT ??_R0?AV?$basic_iostream@DU?$char_traits@D@std@@@std@@@8
data$rs	SEGMENT
??_R0?AV?$basic_iostream@DU?$char_traits@D@std@@@std@@@8 DQ FLAT:??_7type_info@@6B@ ; std::basic_iostream<char,std::char_traits<char> > `RTTI Type Descriptor'
	DQ	0000000000000000H
	DB	'.?AV?$basic_iostream@DU?$char_traits@D@std@@@std@@', 00H
data$rs	ENDS
;	COMDAT ??_R3?$basic_fstream@DU?$char_traits@D@std@@@std@@8
rdata$r	SEGMENT
??_R3?$basic_fstream@DU?$char_traits@D@std@@@std@@8 DD 00H ; std::basic_fstream<char,std::char_traits<char> >::`RTTI Class Hierarchy Descriptor'
	DD	03H
	DD	0aH
	DD	imagerel ??_R2?$basic_fstream@DU?$char_traits@D@std@@@std@@8
rdata$r	ENDS
;	COMDAT ??_7bad_array_new_length@std@@6B@
CONST	SEGMENT
??_7bad_array_new_length@std@@6B@ DQ FLAT:??_R4bad_array_new_length@std@@6B@ ; std::bad_array_new_length::`vftable'
	DQ	FLAT:??_Ebad_array_new_length@std@@UEAAPEAXI@Z
	DQ	FLAT:?what@exception@std@@UEBAPEBDXZ
CONST	ENDS
;	COMDAT _CTA3?AVbad_array_new_length@std@@
xdata$x	SEGMENT
_CTA3?AVbad_array_new_length@std@@ DD 03H
	DD	imagerel _CT??_R0?AVbad_array_new_length@std@@@8??0bad_array_new_length@std@@QEAA@AEBV01@@Z24
	DD	imagerel _CT??_R0?AVbad_alloc@std@@@8??0bad_alloc@std@@QEAA@AEBV01@@Z24
	DD	imagerel _CT??_R0?AVexception@std@@@8??0exception@std@@QEAA@AEBV01@@Z24
xdata$x	ENDS
;	COMDAT ??_R0?AVios_base@std@@@8
data$rs	SEGMENT
??_R0?AVios_base@std@@@8 DQ FLAT:??_7type_info@@6B@	; std::ios_base `RTTI Type Descriptor'
	DQ	0000000000000000H
	DB	'.?AVios_base@std@@', 00H
data$rs	ENDS
;	COMDAT ??_R1A@?0A@EA@bad_cast@std@@8
rdata$r	SEGMENT
??_R1A@?0A@EA@bad_cast@std@@8 DD imagerel ??_R0?AVbad_cast@std@@@8 ; std::bad_cast::`RTTI Base Class Descriptor at (0,-1,0,64)'
	DD	01H
	DD	00H
	DD	0ffffffffH
	DD	00H
	DD	040H
	DD	imagerel ??_R3bad_cast@std@@8
rdata$r	ENDS
;	COMDAT ??_R1A@?0A@EA@?$basic_istream@DU?$char_traits@D@std@@@std@@8
rdata$r	SEGMENT
??_R1A@?0A@EA@?$basic_istream@DU?$char_traits@D@std@@@std@@8 DD imagerel ??_R0?AV?$basic_istream@DU?$char_traits@D@std@@@std@@@8 ; std::basic_istream<char,std::char_traits<char> >::`RTTI Base Class Descriptor at (0,-1,0,64)'
	DD	03H
	DD	00H
	DD	0ffffffffH
	DD	00H
	DD	040H
	DD	imagerel ??_R3?$basic_istream@DU?$char_traits@D@std@@@std@@8
rdata$r	ENDS
;	COMDAT ??_8?$basic_fstream@DU?$char_traits@D@std@@@std@@7B?$basic_ostream@DU?$char_traits@D@std@@@1@@
CONST	SEGMENT
??_8?$basic_fstream@DU?$char_traits@D@std@@@std@@7B?$basic_ostream@DU?$char_traits@D@std@@@1@@ DD 00H ; std::basic_fstream<char,std::char_traits<char> >::`vbtable'
	DD	0a8H
CONST	ENDS
;	COMDAT ??_R0?AV?$basic_fstream@DU?$char_traits@D@std@@@std@@@8
data$rs	SEGMENT
??_R0?AV?$basic_fstream@DU?$char_traits@D@std@@@std@@@8 DQ FLAT:??_7type_info@@6B@ ; std::basic_fstream<char,std::char_traits<char> > `RTTI Type Descriptor'
	DQ	0000000000000000H
	DB	'.?AV?$basic_fstream@DU?$char_traits@D@std@@@std@@', 00H
data$rs	ENDS
;	COMDAT ??_R2bad_array_new_length@std@@8
rdata$r	SEGMENT
??_R2bad_array_new_length@std@@8 DD imagerel ??_R1A@?0A@EA@bad_array_new_length@std@@8 ; std::bad_array_new_length::`RTTI Base Class Array'
	DD	imagerel ??_R1A@?0A@EA@bad_alloc@std@@8
	DD	imagerel ??_R1A@?0A@EA@exception@std@@8
	ORG $+3
rdata$r	ENDS
;	COMDAT ??_R0?AV?$basic_filebuf@DU?$char_traits@D@std@@@std@@@8
data$rs	SEGMENT
??_R0?AV?$basic_filebuf@DU?$char_traits@D@std@@@std@@@8 DQ FLAT:??_7type_info@@6B@ ; std::basic_filebuf<char,std::char_traits<char> > `RTTI Type Descriptor'
	DQ	0000000000000000H
	DB	'.?AV?$basic_filebuf@DU?$char_traits@D@std@@@std@@', 00H
data$rs	ENDS
;	COMDAT ??_R2?$basic_fstream@DU?$char_traits@D@std@@@std@@8
rdata$r	SEGMENT
??_R2?$basic_fstream@DU?$char_traits@D@std@@@std@@8 DD imagerel ??_R1A@?0A@EA@?$basic_fstream@DU?$char_traits@D@std@@@std@@8 ; std::basic_fstream<char,std::char_traits<char> >::`RTTI Base Class Array'
	DD	imagerel ??_R1A@?0A@EA@?$basic_iostream@DU?$char_traits@D@std@@@std@@8
	DD	imagerel ??_R1A@?0A@EA@?$basic_istream@DU?$char_traits@D@std@@@std@@8
	DD	imagerel ??_R1A@A@3FA@?$basic_ios@DU?$char_traits@D@std@@@std@@8
	DD	imagerel ??_R1A@A@3EA@ios_base@std@@8
	DD	imagerel ??_R17A@3EA@?$_Iosb@H@std@@8
	DD	imagerel ??_R1BA@?0A@EA@?$basic_ostream@DU?$char_traits@D@std@@@std@@8
	DD	imagerel ??_R1A@A@3FA@?$basic_ios@DU?$char_traits@D@std@@@std@@8
	DD	imagerel ??_R1A@A@3EA@ios_base@std@@8
	DD	imagerel ??_R17A@3EA@?$_Iosb@H@std@@8
	ORG $+3
rdata$r	ENDS
;	COMDAT ??_R3?$basic_iostream@DU?$char_traits@D@std@@@std@@8
rdata$r	SEGMENT
??_R3?$basic_iostream@DU?$char_traits@D@std@@@std@@8 DD 00H ; std::basic_iostream<char,std::char_traits<char> >::`RTTI Class Hierarchy Descriptor'
	DD	03H
	DD	09H
	DD	imagerel ??_R2?$basic_iostream@DU?$char_traits@D@std@@@std@@8
rdata$r	ENDS
;	COMDAT ??_R3?$basic_istream@DU?$char_traits@D@std@@@std@@8
rdata$r	SEGMENT
??_R3?$basic_istream@DU?$char_traits@D@std@@@std@@8 DD 00H ; std::basic_istream<char,std::char_traits<char> >::`RTTI Class Hierarchy Descriptor'
	DD	00H
	DD	04H
	DD	imagerel ??_R2?$basic_istream@DU?$char_traits@D@std@@@std@@8
rdata$r	ENDS
;	COMDAT ??_C@_1FO@DGNPLEBJ@?$AAd?$AAs?$AAt?$AA?4?$AAr?$AAo?$AAw?$AAs?$AA?$CI?$AA?$CJ?$AA?5?$AA?$DN?$AA?$DN?$AA?5?$AAd@
CONST	SEGMENT
??_C@_1FO@DGNPLEBJ@?$AAd?$AAs?$AAt?$AA?4?$AAr?$AAo?$AAw?$AAs?$AA?$CI?$AA?$CJ?$AA?5?$AA?$DN?$AA?$DN?$AA?5?$AAd@ DB 'd'
	DB	00H, 's', 00H, 't', 00H, '.', 00H, 'r', 00H, 'o', 00H, 'w', 00H
	DB	's', 00H, '(', 00H, ')', 00H, ' ', 00H, '=', 00H, '=', 00H, ' '
	DB	00H, 'd', 00H, 's', 00H, 't', 00H, 'R', 00H, 'o', 00H, 'w', 00H
	DB	's', 00H, ' ', 00H, '&', 00H, '&', 00H, ' ', 00H, 'd', 00H, 's'
	DB	00H, 't', 00H, '.', 00H, 'c', 00H, 'o', 00H, 'l', 00H, 's', 00H
	DB	'(', 00H, ')', 00H, ' ', 00H, '=', 00H, '=', 00H, ' ', 00H, 'd'
	DB	00H, 's', 00H, 't', 00H, 'C', 00H, 'o', 00H, 'l', 00H, 's', 00H
	DB	00H, 00H					; `string'
CONST	ENDS
;	COMDAT ??_C@_1OK@PNMIMNMH@?$AAC?$AA?3?$AA?2?$AAU?$AAs?$AAe?$AAr?$AAs?$AA?2?$AAm?$AAa?$AAr?$AAi?$AAj?$AA?2@
CONST	SEGMENT
??_C@_1OK@PNMIMNMH@?$AAC?$AA?3?$AA?2?$AAU?$AAs?$AAe?$AAr?$AAs?$AA?2?$AAm?$AAa?$AAr?$AAi?$AAj?$AA?2@ DB 'C'
	DB	00H, ':', 00H, '\', 00H, 'U', 00H, 's', 00H, 'e', 00H, 'r', 00H
	DB	's', 00H, '\', 00H, 'm', 00H, 'a', 00H, 'r', 00H, 'i', 00H, 'j'
	DB	00H, '\', 00H, 'O', 00H, 'n', 00H, 'e', 00H, 'D', 00H, 'r', 00H
	DB	'i', 00H, 'v', 00H, 'e', 00H, '\', 00H, 'D', 00H, 'e', 00H, 's'
	DB	00H, 'k', 00H, 't', 00H, 'o', 00H, 'p', 00H, '\', 00H, 'C', 00H
	DB	'o', 00H, 'd', 00H, 'e', 00H, '_', 00H, 'S', 00H, 't', 00H, 'u'
	DB	00H, 'f', 00H, 'f', 00H, '\', 00H, 'P', 00H, 'r', 00H, 'o', 00H
	DB	'j', 00H, 'e', 00H, 'c', 00H, 't', 00H, 's', 00H, '\', 00H, 'A'
	DB	00H, 'I', 00H, '\', 00H, 'N', 00H, 'e', 00H, 'u', 00H, 'r', 00H
	DB	'a', 00H, 'l', 00H, 'N', 00H, 'e', 00H, 't', 00H, 'w', 00H, 'o'
	DB	00H, 'r', 00H, 'k', 00H, '_', 00H, '0', 00H, '\', 00H, 'd', 00H
	DB	'e', 00H, 'p', 00H, 'e', 00H, 'n', 00H, 'd', 00H, 'e', 00H, 'n'
	DB	00H, 'c', 00H, 'i', 00H, 'e', 00H, 's', 00H, '\', 00H, 'E', 00H
	DB	'i', 00H, 'g', 00H, 'e', 00H, 'n', 00H, '\', 00H, 's', 00H, 'r'
	DB	00H, 'c', 00H, '\', 00H, 'C', 00H, 'o', 00H, 'r', 00H, 'e', 00H
	DB	'\', 00H, 'A', 00H, 's', 00H, 's', 00H, 'i', 00H, 'g', 00H, 'n'
	DB	00H, 'E', 00H, 'v', 00H, 'a', 00H, 'l', 00H, 'u', 00H, 'a', 00H
	DB	't', 00H, 'o', 00H, 'r', 00H, '.', 00H, 'h', 00H, 00H, 00H ; `string'
CONST	ENDS
;	COMDAT ??_C@_1BCK@LCDGNMBA@?$AAr?$AAo?$AAw?$AAs?$AA?5?$AA?$DO?$AA?$DN?$AA?5?$AA0?$AA?5?$AA?$CG?$AA?$CG?$AA?5?$AA?$CI?$AAR@
CONST	SEGMENT
??_C@_1BCK@LCDGNMBA@?$AAr?$AAo?$AAw?$AAs?$AA?5?$AA?$DO?$AA?$DN?$AA?5?$AA0?$AA?5?$AA?$CG?$AA?$CG?$AA?5?$AA?$CI?$AAR@ DB 'r'
	DB	00H, 'o', 00H, 'w', 00H, 's', 00H, ' ', 00H, '>', 00H, '=', 00H
	DB	' ', 00H, '0', 00H, ' ', 00H, '&', 00H, '&', 00H, ' ', 00H, '('
	DB	00H, 'R', 00H, 'o', 00H, 'w', 00H, 's', 00H, 'A', 00H, 't', 00H
	DB	'C', 00H, 'o', 00H, 'm', 00H, 'p', 00H, 'i', 00H, 'l', 00H, 'e'
	DB	00H, 'T', 00H, 'i', 00H, 'm', 00H, 'e', 00H, ' ', 00H, '=', 00H
	DB	'=', 00H, ' ', 00H, 'D', 00H, 'y', 00H, 'n', 00H, 'a', 00H, 'm'
	DB	00H, 'i', 00H, 'c', 00H, ' ', 00H, '|', 00H, '|', 00H, ' ', 00H
	DB	'R', 00H, 'o', 00H, 'w', 00H, 's', 00H, 'A', 00H, 't', 00H, 'C'
	DB	00H, 'o', 00H, 'm', 00H, 'p', 00H, 'i', 00H, 'l', 00H, 'e', 00H
	DB	'T', 00H, 'i', 00H, 'm', 00H, 'e', 00H, ' ', 00H, '=', 00H, '='
	DB	00H, ' ', 00H, 'r', 00H, 'o', 00H, 'w', 00H, 's', 00H, ')', 00H
	DB	' ', 00H, '&', 00H, '&', 00H, ' ', 00H, 'c', 00H, 'o', 00H, 'l'
	DB	00H, 's', 00H, ' ', 00H, '>', 00H, '=', 00H, ' ', 00H, '0', 00H
	DB	' ', 00H, '&', 00H, '&', 00H, ' ', 00H, '(', 00H, 'C', 00H, 'o'
	DB	00H, 'l', 00H, 's', 00H, 'A', 00H, 't', 00H, 'C', 00H, 'o', 00H
	DB	'm', 00H, 'p', 00H, 'i', 00H, 'l', 00H, 'e', 00H, 'T', 00H, 'i'
	DB	00H, 'm', 00H, 'e', 00H, ' ', 00H, '=', 00H, '=', 00H, ' ', 00H
	DB	'D', 00H, 'y', 00H, 'n', 00H, 'a', 00H, 'm', 00H, 'i', 00H, 'c'
	DB	00H, ' ', 00H, '|', 00H, '|', 00H, ' ', 00H, 'C', 00H, 'o', 00H
	DB	'l', 00H, 's', 00H, 'A', 00H, 't', 00H, 'C', 00H, 'o', 00H, 'm'
	DB	00H, 'p', 00H, 'i', 00H, 'l', 00H, 'e', 00H, 'T', 00H, 'i', 00H
	DB	'm', 00H, 'e', 00H, ' ', 00H, '=', 00H, '=', 00H, ' ', 00H, 'c'
	DB	00H, 'o', 00H, 'l', 00H, 's', 00H, ')', 00H, 00H, 00H ; `string'
CONST	ENDS
;	COMDAT ??_C@_1OI@JGDPHEEP@?$AAC?$AA?3?$AA?2?$AAU?$AAs?$AAe?$AAr?$AAs?$AA?2?$AAm?$AAa?$AAr?$AAi?$AAj?$AA?2@
CONST	SEGMENT
??_C@_1OI@JGDPHEEP@?$AAC?$AA?3?$AA?2?$AAU?$AAs?$AAe?$AAr?$AAs?$AA?2?$AAm?$AAa?$AAr?$AAi?$AAj?$AA?2@ DB 'C'
	DB	00H, ':', 00H, '\', 00H, 'U', 00H, 's', 00H, 'e', 00H, 'r', 00H
	DB	's', 00H, '\', 00H, 'm', 00H, 'a', 00H, 'r', 00H, 'i', 00H, 'j'
	DB	00H, '\', 00H, 'O', 00H, 'n', 00H, 'e', 00H, 'D', 00H, 'r', 00H
	DB	'i', 00H, 'v', 00H, 'e', 00H, '\', 00H, 'D', 00H, 'e', 00H, 's'
	DB	00H, 'k', 00H, 't', 00H, 'o', 00H, 'p', 00H, '\', 00H, 'C', 00H
	DB	'o', 00H, 'd', 00H, 'e', 00H, '_', 00H, 'S', 00H, 't', 00H, 'u'
	DB	00H, 'f', 00H, 'f', 00H, '\', 00H, 'P', 00H, 'r', 00H, 'o', 00H
	DB	'j', 00H, 'e', 00H, 'c', 00H, 't', 00H, 's', 00H, '\', 00H, 'A'
	DB	00H, 'I', 00H, '\', 00H, 'N', 00H, 'e', 00H, 'u', 00H, 'r', 00H
	DB	'a', 00H, 'l', 00H, 'N', 00H, 'e', 00H, 't', 00H, 'w', 00H, 'o'
	DB	00H, 'r', 00H, 'k', 00H, '_', 00H, '0', 00H, '\', 00H, 'd', 00H
	DB	'e', 00H, 'p', 00H, 'e', 00H, 'n', 00H, 'd', 00H, 'e', 00H, 'n'
	DB	00H, 'c', 00H, 'i', 00H, 'e', 00H, 's', 00H, '\', 00H, 'E', 00H
	DB	'i', 00H, 'g', 00H, 'e', 00H, 'n', 00H, '\', 00H, 's', 00H, 'r'
	DB	00H, 'c', 00H, '\', 00H, 'C', 00H, 'o', 00H, 'r', 00H, 'e', 00H
	DB	'\', 00H, 'C', 00H, 'w', 00H, 'i', 00H, 's', 00H, 'e', 00H, 'N'
	DB	00H, 'u', 00H, 'l', 00H, 'l', 00H, 'a', 00H, 'r', 00H, 'y', 00H
	DB	'O', 00H, 'p', 00H, '.', 00H, 'h', 00H, 00H, 00H ; `string'
CONST	ENDS
;	COMDAT ??_C@_1HC@DONMBPHG@?$AAa?$AAL?$AAh?$AAs?$AA?4?$AAr?$AAo?$AAw?$AAs?$AA?$CI?$AA?$CJ?$AA?5?$AA?$DN?$AA?$DN?$AA?5@
CONST	SEGMENT
??_C@_1HC@DONMBPHG@?$AAa?$AAL?$AAh?$AAs?$AA?4?$AAr?$AAo?$AAw?$AAs?$AA?$CI?$AA?$CJ?$AA?5?$AA?$DN?$AA?$DN?$AA?5@ DB 'a'
	DB	00H, 'L', 00H, 'h', 00H, 's', 00H, '.', 00H, 'r', 00H, 'o', 00H
	DB	'w', 00H, 's', 00H, '(', 00H, ')', 00H, ' ', 00H, '=', 00H, '='
	DB	00H, ' ', 00H, 'a', 00H, 'R', 00H, 'h', 00H, 's', 00H, '.', 00H
	DB	'r', 00H, 'o', 00H, 'w', 00H, 's', 00H, '(', 00H, ')', 00H, ' '
	DB	00H, '&', 00H, '&', 00H, ' ', 00H, 'a', 00H, 'L', 00H, 'h', 00H
	DB	's', 00H, '.', 00H, 'c', 00H, 'o', 00H, 'l', 00H, 's', 00H, '('
	DB	00H, ')', 00H, ' ', 00H, '=', 00H, '=', 00H, ' ', 00H, 'a', 00H
	DB	'R', 00H, 'h', 00H, 's', 00H, '.', 00H, 'c', 00H, 'o', 00H, 'l'
	DB	00H, 's', 00H, '(', 00H, ')', 00H, 00H, 00H	; `string'
CONST	ENDS
;	COMDAT ??_C@_1OG@HCJJDHGA@?$AAC?$AA?3?$AA?2?$AAU?$AAs?$AAe?$AAr?$AAs?$AA?2?$AAm?$AAa?$AAr?$AAi?$AAj?$AA?2@
CONST	SEGMENT
??_C@_1OG@HCJJDHGA@?$AAC?$AA?3?$AA?2?$AAU?$AAs?$AAe?$AAr?$AAs?$AA?2?$AAm?$AAa?$AAr?$AAi?$AAj?$AA?2@ DB 'C'
	DB	00H, ':', 00H, '\', 00H, 'U', 00H, 's', 00H, 'e', 00H, 'r', 00H
	DB	's', 00H, '\', 00H, 'm', 00H, 'a', 00H, 'r', 00H, 'i', 00H, 'j'
	DB	00H, '\', 00H, 'O', 00H, 'n', 00H, 'e', 00H, 'D', 00H, 'r', 00H
	DB	'i', 00H, 'v', 00H, 'e', 00H, '\', 00H, 'D', 00H, 'e', 00H, 's'
	DB	00H, 'k', 00H, 't', 00H, 'o', 00H, 'p', 00H, '\', 00H, 'C', 00H
	DB	'o', 00H, 'd', 00H, 'e', 00H, '_', 00H, 'S', 00H, 't', 00H, 'u'
	DB	00H, 'f', 00H, 'f', 00H, '\', 00H, 'P', 00H, 'r', 00H, 'o', 00H
	DB	'j', 00H, 'e', 00H, 'c', 00H, 't', 00H, 's', 00H, '\', 00H, 'A'
	DB	00H, 'I', 00H, '\', 00H, 'N', 00H, 'e', 00H, 'u', 00H, 'r', 00H
	DB	'a', 00H, 'l', 00H, 'N', 00H, 'e', 00H, 't', 00H, 'w', 00H, 'o'
	DB	00H, 'r', 00H, 'k', 00H, '_', 00H, '0', 00H, '\', 00H, 'd', 00H
	DB	'e', 00H, 'p', 00H, 'e', 00H, 'n', 00H, 'd', 00H, 'e', 00H, 'n'
	DB	00H, 'c', 00H, 'i', 00H, 'e', 00H, 's', 00H, '\', 00H, 'E', 00H
	DB	'i', 00H, 'g', 00H, 'e', 00H, 'n', 00H, '\', 00H, 's', 00H, 'r'
	DB	00H, 'c', 00H, '\', 00H, 'C', 00H, 'o', 00H, 'r', 00H, 'e', 00H
	DB	'\', 00H, 'C', 00H, 'w', 00H, 'i', 00H, 's', 00H, 'e', 00H, 'B'
	DB	00H, 'i', 00H, 'n', 00H, 'a', 00H, 'r', 00H, 'y', 00H, 'O', 00H
	DB	'p', 00H, '.', 00H, 'h', 00H, 00H, 00H	; `string'
CONST	ENDS
;	COMDAT ??_C@_1BIA@NPMBPDOE@?$AA?$CI?$AAi?$AAn?$AAt?$AAe?$AAr?$AAn?$AAa?$AAl?$AA?3?$AA?3?$AAU?$AAI?$AAn?$AAt@
CONST	SEGMENT
??_C@_1BIA@NPMBPDOE@?$AA?$CI?$AAi?$AAn?$AAt?$AAe?$AAr?$AAn?$AAa?$AAl?$AA?3?$AA?3?$AAU?$AAI?$AAn?$AAt@ DB '('
	DB	00H, 'i', 00H, 'n', 00H, 't', 00H, 'e', 00H, 'r', 00H, 'n', 00H
	DB	'a', 00H, 'l', 00H, ':', 00H, ':', 00H, 'U', 00H, 'I', 00H, 'n'
	DB	00H, 't', 00H, 'P', 00H, 't', 00H, 'r', 00H, '(', 00H, 'a', 00H
	DB	'r', 00H, 'r', 00H, 'a', 00H, 'y', 00H, ')', 00H, ' ', 00H, '&'
	DB	00H, ' ', 00H, '(', 00H, '3', 00H, '1', 00H, ')', 00H, ')', 00H
	DB	' ', 00H, '=', 00H, '=', 00H, ' ', 00H, '0', 00H, ' ', 00H, '&'
	DB	00H, '&', 00H, ' ', 00H, '"', 00H, 't', 00H, 'h', 00H, 'i', 00H
	DB	's', 00H, ' ', 00H, 'a', 00H, 's', 00H, 's', 00H, 'e', 00H, 'r'
	DB	00H, 't', 00H, 'i', 00H, 'o', 00H, 'n', 00H, ' ', 00H, 'i', 00H
	DB	's', 00H, ' ', 00H, 'e', 00H, 'x', 00H, 'p', 00H, 'l', 00H, 'a'
	DB	00H, 'i', 00H, 'n', 00H, 'e', 00H, 'd', 00H, ' ', 00H, 'h', 00H
	DB	'e', 00H, 'r', 00H, 'e', 00H, ':', 00H, ' ', 00H, '"', 00H, ' '
	DB	00H, '"', 00H, 'h', 00H, 't', 00H, 't', 00H, 'p', 00H, ':', 00H
	DB	'/', 00H, '/', 00H, 'e', 00H, 'i', 00H, 'g', 00H, 'e', 00H, 'n'
	DB	00H, '.', 00H, 't', 00H, 'u', 00H, 'x', 00H, 'f', 00H, 'a', 00H
	DB	'm', 00H, 'i', 00H, 'l', 00H, 'y', 00H, '.', 00H, 'o', 00H, 'r'
	DB	00H, 'g', 00H, '/', 00H, 'd', 00H, 'o', 00H, 'x', 00H, '-', 00H
	DB	'd', 00H, 'e', 00H, 'v', 00H, 'e', 00H, 'l', 00H, '/', 00H, 'g'
	DB	00H, 'r', 00H, 'o', 00H, 'u', 00H, 'p', 00H, '_', 00H, '_', 00H
	DB	'T', 00H, 'o', 00H, 'p', 00H, 'i', 00H, 'c', 00H, 'U', 00H, 'n'
	DB	00H, 'a', 00H, 'l', 00H, 'i', 00H, 'g', 00H, 'n', 00H, 'e', 00H
	DB	'd', 00H, 'A', 00H, 'r', 00H, 'r', 00H, 'a', 00H, 'y', 00H, 'A'
	DB	00H, 's', 00H, 's', 00H, 'e', 00H, 'r', 00H, 't', 00H, '.', 00H
	DB	'h', 00H, 't', 00H, 'm', 00H, 'l', 00H, '"', 00H, ' ', 00H, '"'
	DB	00H, ' ', 00H, '*', 00H, '*', 00H, '*', 00H, '*', 00H, ' ', 00H
	DB	'R', 00H, 'E', 00H, 'A', 00H, 'D', 00H, ' ', 00H, 'T', 00H, 'H'
	DB	00H, 'I', 00H, 'S', 00H, ' ', 00H, 'W', 00H, 'E', 00H, 'B', 00H
	DB	' ', 00H, 'P', 00H, 'A', 00H, 'G', 00H, 'E', 00H, ' ', 00H, '!'
	DB	00H, '!', 00H, '!', 00H, ' ', 00H, '*', 00H, '*', 00H, '*', 00H
	DB	'*', 00H, '"', 00H, 00H, 00H			; `string'
CONST	ENDS
;	COMDAT ??_C@_1OE@KCDPGIEF@?$AAC?$AA?3?$AA?2?$AAU?$AAs?$AAe?$AAr?$AAs?$AA?2?$AAm?$AAa?$AAr?$AAi?$AAj?$AA?2@
CONST	SEGMENT
??_C@_1OE@KCDPGIEF@?$AAC?$AA?3?$AA?2?$AAU?$AAs?$AAe?$AAr?$AAs?$AA?2?$AAm?$AAa?$AAr?$AAi?$AAj?$AA?2@ DB 'C'
	DB	00H, ':', 00H, '\', 00H, 'U', 00H, 's', 00H, 'e', 00H, 'r', 00H
	DB	's', 00H, '\', 00H, 'm', 00H, 'a', 00H, 'r', 00H, 'i', 00H, 'j'
	DB	00H, '\', 00H, 'O', 00H, 'n', 00H, 'e', 00H, 'D', 00H, 'r', 00H
	DB	'i', 00H, 'v', 00H, 'e', 00H, '\', 00H, 'D', 00H, 'e', 00H, 's'
	DB	00H, 'k', 00H, 't', 00H, 'o', 00H, 'p', 00H, '\', 00H, 'C', 00H
	DB	'o', 00H, 'd', 00H, 'e', 00H, '_', 00H, 'S', 00H, 't', 00H, 'u'
	DB	00H, 'f', 00H, 'f', 00H, '\', 00H, 'P', 00H, 'r', 00H, 'o', 00H
	DB	'j', 00H, 'e', 00H, 'c', 00H, 't', 00H, 's', 00H, '\', 00H, 'A'
	DB	00H, 'I', 00H, '\', 00H, 'N', 00H, 'e', 00H, 'u', 00H, 'r', 00H
	DB	'a', 00H, 'l', 00H, 'N', 00H, 'e', 00H, 't', 00H, 'w', 00H, 'o'
	DB	00H, 'r', 00H, 'k', 00H, '_', 00H, '0', 00H, '\', 00H, 'd', 00H
	DB	'e', 00H, 'p', 00H, 'e', 00H, 'n', 00H, 'd', 00H, 'e', 00H, 'n'
	DB	00H, 'c', 00H, 'i', 00H, 'e', 00H, 's', 00H, '\', 00H, 'E', 00H
	DB	'i', 00H, 'g', 00H, 'e', 00H, 'n', 00H, '\', 00H, 's', 00H, 'r'
	DB	00H, 'c', 00H, '\', 00H, 'C', 00H, 'o', 00H, 'r', 00H, 'e', 00H
	DB	'\', 00H, 'D', 00H, 'e', 00H, 'n', 00H, 's', 00H, 'e', 00H, 'S'
	DB	00H, 't', 00H, 'o', 00H, 'r', 00H, 'a', 00H, 'g', 00H, 'e', 00H
	DB	'.', 00H, 'h', 00H, 00H, 00H			; `string'
CONST	ENDS
;	COMDAT ??_C@_0IO@MMJGGOKG@this?5assertion?5is?5explained?5her@
CONST	SEGMENT
??_C@_0IO@MMJGGOKG@this?5assertion?5is?5explained?5her@ DB 'this assertio'
	DB	'n is explained here: http://eigen.tuxfamily.org/dox-devel/gro'
	DB	'up__TopicUnalignedArrayAssert.html **** READ THIS WEB PAGE !!'
	DB	'! ****', 00H				; `string'
CONST	ENDS
;	COMDAT ??_C@_0BI@CFPLBAOH@invalid?5string?5position@
CONST	SEGMENT
??_C@_0BI@CFPLBAOH@invalid?5string?5position@ DB 'invalid string position'
	DB	00H						; `string'
CONST	ENDS
;	COMDAT ??_C@_1BM@PKEIKGEG@?$AAv?$AA?5?$AA?$DN?$AA?$DN?$AA?5?$AAT?$AA?$CI?$AAV?$AAa?$AAl?$AAu?$AAe?$AA?$CJ@
CONST	SEGMENT
??_C@_1BM@PKEIKGEG@?$AAv?$AA?5?$AA?$DN?$AA?$DN?$AA?5?$AAT?$AA?$CI?$AAV?$AAa?$AAl?$AAu?$AAe?$AA?$CJ@ DB 'v'
	DB	00H, ' ', 00H, '=', 00H, '=', 00H, ' ', 00H, 'T', 00H, '(', 00H
	DB	'V', 00H, 'a', 00H, 'l', 00H, 'u', 00H, 'e', 00H, ')', 00H, 00H
	DB	00H						; `string'
CONST	ENDS
;	COMDAT ??_C@_1OI@LKFJMEGP@?$AAC?$AA?3?$AA?2?$AAU?$AAs?$AAe?$AAr?$AAs?$AA?2?$AAm?$AAa?$AAr?$AAi?$AAj?$AA?2@
CONST	SEGMENT
??_C@_1OI@LKFJMEGP@?$AAC?$AA?3?$AA?2?$AAU?$AAs?$AAe?$AAr?$AAs?$AA?2?$AAm?$AAa?$AAr?$AAi?$AAj?$AA?2@ DB 'C'
	DB	00H, ':', 00H, '\', 00H, 'U', 00H, 's', 00H, 'e', 00H, 'r', 00H
	DB	's', 00H, '\', 00H, 'm', 00H, 'a', 00H, 'r', 00H, 'i', 00H, 'j'
	DB	00H, '\', 00H, 'O', 00H, 'n', 00H, 'e', 00H, 'D', 00H, 'r', 00H
	DB	'i', 00H, 'v', 00H, 'e', 00H, '\', 00H, 'D', 00H, 'e', 00H, 's'
	DB	00H, 'k', 00H, 't', 00H, 'o', 00H, 'p', 00H, '\', 00H, 'C', 00H
	DB	'o', 00H, 'd', 00H, 'e', 00H, '_', 00H, 'S', 00H, 't', 00H, 'u'
	DB	00H, 'f', 00H, 'f', 00H, '\', 00H, 'P', 00H, 'r', 00H, 'o', 00H
	DB	'j', 00H, 'e', 00H, 'c', 00H, 't', 00H, 's', 00H, '\', 00H, 'A'
	DB	00H, 'I', 00H, '\', 00H, 'N', 00H, 'e', 00H, 'u', 00H, 'r', 00H
	DB	'a', 00H, 'l', 00H, 'N', 00H, 'e', 00H, 't', 00H, 'w', 00H, 'o'
	DB	00H, 'r', 00H, 'k', 00H, '_', 00H, '0', 00H, '\', 00H, 'd', 00H
	DB	'e', 00H, 'p', 00H, 'e', 00H, 'n', 00H, 'd', 00H, 'e', 00H, 'n'
	DB	00H, 'c', 00H, 'i', 00H, 'e', 00H, 's', 00H, '\', 00H, 'E', 00H
	DB	'i', 00H, 'g', 00H, 'e', 00H, 'n', 00H, '\', 00H, 's', 00H, 'r'
	DB	00H, 'c', 00H, '\', 00H, 'C', 00H, 'o', 00H, 'r', 00H, 'e', 00H
	DB	'\', 00H, 'u', 00H, 't', 00H, 'i', 00H, 'l', 00H, '\', 00H, 'X'
	DB	00H, 'p', 00H, 'r', 00H, 'H', 00H, 'e', 00H, 'l', 00H, 'p', 00H
	DB	'e', 00H, 'r', 00H, '.', 00H, 'h', 00H, 00H, 00H ; `string'
CONST	ENDS
;	COMDAT ??_C@_1GK@FICMDKNL@?$AAr?$AAo?$AAw?$AA?5?$AA?$DO?$AA?$DN?$AA?5?$AA0?$AA?5?$AA?$CG?$AA?$CG?$AA?5?$AAr?$AAo?$AAw@
CONST	SEGMENT
??_C@_1GK@FICMDKNL@?$AAr?$AAo?$AAw?$AA?5?$AA?$DO?$AA?$DN?$AA?5?$AA0?$AA?5?$AA?$CG?$AA?$CG?$AA?5?$AAr?$AAo?$AAw@ DB 'r'
	DB	00H, 'o', 00H, 'w', 00H, ' ', 00H, '>', 00H, '=', 00H, ' ', 00H
	DB	'0', 00H, ' ', 00H, '&', 00H, '&', 00H, ' ', 00H, 'r', 00H, 'o'
	DB	00H, 'w', 00H, ' ', 00H, '<', 00H, ' ', 00H, 'r', 00H, 'o', 00H
	DB	'w', 00H, 's', 00H, '(', 00H, ')', 00H, ' ', 00H, '&', 00H, '&'
	DB	00H, ' ', 00H, 'c', 00H, 'o', 00H, 'l', 00H, ' ', 00H, '>', 00H
	DB	'=', 00H, ' ', 00H, '0', 00H, ' ', 00H, '&', 00H, '&', 00H, ' '
	DB	00H, 'c', 00H, 'o', 00H, 'l', 00H, ' ', 00H, '<', 00H, ' ', 00H
	DB	'c', 00H, 'o', 00H, 'l', 00H, 's', 00H, '(', 00H, ')', 00H, 00H
	DB	00H						; `string'
CONST	ENDS
;	COMDAT ??_C@_1OK@FPGGDFAL@?$AAC?$AA?3?$AA?2?$AAU?$AAs?$AAe?$AAr?$AAs?$AA?2?$AAm?$AAa?$AAr?$AAi?$AAj?$AA?2@
CONST	SEGMENT
??_C@_1OK@FPGGDFAL@?$AAC?$AA?3?$AA?2?$AAU?$AAs?$AAe?$AAr?$AAs?$AA?2?$AAm?$AAa?$AAr?$AAi?$AAj?$AA?2@ DB 'C'
	DB	00H, ':', 00H, '\', 00H, 'U', 00H, 's', 00H, 'e', 00H, 'r', 00H
	DB	's', 00H, '\', 00H, 'm', 00H, 'a', 00H, 'r', 00H, 'i', 00H, 'j'
	DB	00H, '\', 00H, 'O', 00H, 'n', 00H, 'e', 00H, 'D', 00H, 'r', 00H
	DB	'i', 00H, 'v', 00H, 'e', 00H, '\', 00H, 'D', 00H, 'e', 00H, 's'
	DB	00H, 'k', 00H, 't', 00H, 'o', 00H, 'p', 00H, '\', 00H, 'C', 00H
	DB	'o', 00H, 'd', 00H, 'e', 00H, '_', 00H, 'S', 00H, 't', 00H, 'u'
	DB	00H, 'f', 00H, 'f', 00H, '\', 00H, 'P', 00H, 'r', 00H, 'o', 00H
	DB	'j', 00H, 'e', 00H, 'c', 00H, 't', 00H, 's', 00H, '\', 00H, 'A'
	DB	00H, 'I', 00H, '\', 00H, 'N', 00H, 'e', 00H, 'u', 00H, 'r', 00H
	DB	'a', 00H, 'l', 00H, 'N', 00H, 'e', 00H, 't', 00H, 'w', 00H, 'o'
	DB	00H, 'r', 00H, 'k', 00H, '_', 00H, '0', 00H, '\', 00H, 'd', 00H
	DB	'e', 00H, 'p', 00H, 'e', 00H, 'n', 00H, 'd', 00H, 'e', 00H, 'n'
	DB	00H, 'c', 00H, 'i', 00H, 'e', 00H, 's', 00H, '\', 00H, 'E', 00H
	DB	'i', 00H, 'g', 00H, 'e', 00H, 'n', 00H, '\', 00H, 's', 00H, 'r'
	DB	00H, 'c', 00H, '\', 00H, 'C', 00H, 'o', 00H, 'r', 00H, 'e', 00H
	DB	'\', 00H, 'D', 00H, 'e', 00H, 'n', 00H, 's', 00H, 'e', 00H, 'C'
	DB	00H, 'o', 00H, 'e', 00H, 'f', 00H, 'f', 00H, 's', 00H, 'B', 00H
	DB	'a', 00H, 's', 00H, 'e', 00H, '.', 00H, 'h', 00H, 00H, 00H ; `string'
CONST	ENDS
;	COMDAT ??_C@_08DACCFJBL@?5?$DN?$DO?5?$CFd?6?6@
CONST	SEGMENT
??_C@_08DACCFJBL@?5?$DN?$DO?5?$CFd?6?6@ DB ' => %d', 0aH, 0aH, 00H ; `string'
CONST	ENDS
;	COMDAT ??_C@_01EEMJAFIK@?6@
CONST	SEGMENT
??_C@_01EEMJAFIK@?6@ DB 0aH, 00H			; `string'
CONST	ENDS
;	COMDAT ??_C@_09CIGFLNGD@?$BL?$FL0m?4?4?$BL?$FLm@
CONST	SEGMENT
??_C@_09CIGFLNGD@?$BL?$FL0m?4?4?$BL?$FLm@ DB 01bH, '[0m..', 01bH, '[m', 00H ; `string'
CONST	ENDS
;	COMDAT ??_C@_0M@BAGGIMII@?$BL?$FL100m?4?4?$BL?$FLm@
CONST	SEGMENT
??_C@_0M@BAGGIMII@?$BL?$FL100m?4?4?$BL?$FLm@ DB 01bH, '[100m..', 01bH, '['
	DB	'm', 00H					; `string'
CONST	ENDS
;	COMDAT ??_C@_09CCKALEHK@?$BL?$FL7m?4?4?$BL?$FLm@
CONST	SEGMENT
??_C@_09CCKALEHK@?$BL?$FL7m?4?4?$BL?$FLm@ DB 01bH, '[7m..', 01bH, '[m', 00H ; `string'
CONST	ENDS
;	COMDAT ??_C@_08EPJLHIJG@bad?5cast@
CONST	SEGMENT
??_C@_08EPJLHIJG@bad?5cast@ DB 'bad cast', 00H		; `string'
CONST	ENDS
;	COMDAT ??_C@_0BA@JFNIOLAK@string?5too?5long@
CONST	SEGMENT
??_C@_0BA@JFNIOLAK@string?5too?5long@ DB 'string too long', 00H ; `string'
CONST	ENDS
;	COMDAT ??_C@_0BF@KINCDENJ@bad?5array?5new?5length@
CONST	SEGMENT
??_C@_0BF@KINCDENJ@bad?5array?5new?5length@ DB 'bad array new length', 00H ; `string'
PUBLIC	??_E?$basic_fstream@DU?$char_traits@D@std@@@std@@$4PPPPPPPM@A@EAAPEAXI@Z ; std::basic_fstream<char,std::char_traits<char> >::`vector deleting destructor'
PUBLIC	??R?$scalar_constant_op@N@internal@Eigen@@QEBA?BNXZ ; Eigen::internal::scalar_constant_op<double>::operator()
PUBLIC	??$run@_J@?$check_rows_cols_for_overflow@$0DBA@@internal@Eigen@@SAX_J0@Z ; Eigen::internal::check_rows_cols_for_overflow<784>::run<__int64>
PUBLIC	??$?R_J@?$nullary_wrapper@NU?$scalar_constant_op@N@internal@Eigen@@$00$0A@$0A@@internal@Eigen@@QEBANAEBU?$scalar_constant_op@N@12@_J1@Z ; Eigen::internal::nullary_wrapper<double,Eigen::internal::scalar_constant_op<double>,1,0,0>::operator()<__int64>
PUBLIC	?resize@?$DenseStorage@N$0DBA@$0BM@$0BM@$0A@@Eigen@@QEAAX_J00@Z ; Eigen::DenseStorage<double,784,28,28,0>::resize
PUBLIC	?rows@?$CwiseBinaryOp@U?$scalar_quotient_op@NN@internal@Eigen@@$$CBV?$CwiseUnaryOp@U?$scalar_cast_op@EN@internal@Eigen@@$$CBV?$Map@V?$Matrix@E$0BM@$0BM@$0A@$0BM@$0BM@@Eigen@@$0A@V?$Stride@$0A@$0A@@2@@3@@3@$$CBV?$CwiseNullaryOp@U?$scalar_constant_op@N@internal@Eigen@@$$CBV?$Matrix@N$0BM@$0BM@$0A@$0BM@$0BM@@3@@3@@Eigen@@QEBA_JXZ ; Eigen::CwiseBinaryOp<Eigen::internal::scalar_quotient_op<double,double>,Eigen::CwiseUnaryOp<Eigen::internal::scalar_cast_op<unsigned char,double>,Eigen::Map<Eigen::Matrix<unsigned char,28,28,0,28,28>,0,Eigen::Stride<0,0> > const > const ,Eigen::CwiseNullaryOp<Eigen::internal::scalar_constant_op<double>,Eigen::Matrix<double,28,28,0,28,28> const > const >::rows
PUBLIC	?cols@?$CwiseBinaryOp@U?$scalar_quotient_op@NN@internal@Eigen@@$$CBV?$CwiseUnaryOp@U?$scalar_cast_op@EN@internal@Eigen@@$$CBV?$Map@V?$Matrix@E$0BM@$0BM@$0A@$0BM@$0BM@@Eigen@@$0A@V?$Stride@$0A@$0A@@2@@3@@3@$$CBV?$CwiseNullaryOp@U?$scalar_constant_op@N@internal@Eigen@@$$CBV?$Matrix@N$0BM@$0BM@$0A@$0BM@$0BM@@3@@3@@Eigen@@QEBA_JXZ ; Eigen::CwiseBinaryOp<Eigen::internal::scalar_quotient_op<double,double>,Eigen::CwiseUnaryOp<Eigen::internal::scalar_cast_op<unsigned char,double>,Eigen::Map<Eigen::Matrix<unsigned char,28,28,0,28,28>,0,Eigen::Stride<0,0> > const > const ,Eigen::CwiseNullaryOp<Eigen::internal::scalar_constant_op<double>,Eigen::Matrix<double,28,28,0,28,28> const > const >::cols
PUBLIC	?resize@?$PlainObjectBase@V?$Matrix@N$0BM@$0BM@$0A@$0BM@$0BM@@Eigen@@@Eigen@@QEAAX_J0@Z ; Eigen::PlainObjectBase<Eigen::Matrix<double,28,28,0,28,28> >::resize
PUBLIC	?run@?$cast_impl@ENX@internal@Eigen@@SANAEBE@Z	; Eigen::internal::cast_impl<unsigned char,double,void>::run
PUBLIC	??$cast@EN@internal@Eigen@@YANAEBE@Z		; Eigen::internal::cast<unsigned char,double>
PUBLIC	??$coeff@_J@?$evaluator@V?$CwiseNullaryOp@U?$scalar_constant_op@N@internal@Eigen@@$$CBV?$Matrix@N$0BM@$0BM@$0A@$0BM@$0BM@@3@@Eigen@@@internal@Eigen@@QEBAN_J@Z ; Eigen::internal::evaluator<Eigen::CwiseNullaryOp<Eigen::internal::scalar_constant_op<double>,Eigen::Matrix<double,28,28,0,28,28> const > >::coeff<__int64>
PUBLIC	??$resize_if_allowed@V?$Matrix@N$0BM@$0BM@$0A@$0BM@$0BM@@Eigen@@V?$CwiseBinaryOp@U?$scalar_quotient_op@NN@internal@Eigen@@$$CBV?$CwiseUnaryOp@U?$scalar_cast_op@EN@internal@Eigen@@$$CBV?$Map@V?$Matrix@E$0BM@$0BM@$0A@$0BM@$0BM@@Eigen@@$0A@V?$Stride@$0A@$0A@@2@@3@@3@$$CBV?$CwiseNullaryOp@U?$scalar_constant_op@N@internal@Eigen@@$$CBV?$Matrix@N$0BM@$0BM@$0A@$0BM@$0BM@@3@@3@@2@NN@internal@Eigen@@YAXAEAV?$Matrix@N$0BM@$0BM@$0A@$0BM@$0BM@@1@AEBV?$CwiseBinaryOp@U?$scalar_quotient_op@NN@internal@Eigen@@$$CBV?$CwiseUnaryOp@U?$scalar_cast_op@EN@internal@Eigen@@$$CBV?$Map@V?$Matrix@E$0BM@$0BM@$0A@$0BM@$0BM@@Eigen@@$0A@V?$Stride@$0A@$0A@@2@@3@@3@$$CBV?$CwiseNullaryOp@U?$scalar_constant_op@N@internal@Eigen@@$$CBV?$Matrix@N$0BM@$0BM@$0A@$0BM@$0BM@@3@@3@@1@AEBU?$assign_op@NN@01@@Z ; Eigen::internal::resize_if_allowed<Eigen::Matrix<double,28,28,0,28,28>,Eigen::CwiseBinaryOp<Eigen::internal::scalar_quotient_op<double,double>,Eigen::CwiseUnaryOp<Eigen::internal::scalar_cast_op<unsigned char,double>,Eigen::Map<Eigen::Matrix<unsigned char,28,28,0,28,28>,0,Eigen::Stride<0,0> > const > const ,Eigen::CwiseNullaryOp<Eigen::internal::scalar_constant_op<double>,Eigen::Matrix<double,28,28,0,28,28> const > const >,double,double>
PUBLIC	?rows@?$EigenBase@V?$Map@V?$Matrix@E$0BM@$0BM@$0A@$0BM@$0BM@@Eigen@@$0A@V?$Stride@$0A@$0A@@2@@Eigen@@@Eigen@@QEBA_JXZ ; Eigen::EigenBase<Eigen::Map<Eigen::Matrix<unsigned char,28,28,0,28,28>,0,Eigen::Stride<0,0> > >::rows
PUBLIC	?cols@?$EigenBase@V?$Map@V?$Matrix@E$0BM@$0BM@$0A@$0BM@$0BM@@Eigen@@$0A@V?$Stride@$0A@$0A@@2@@Eigen@@@Eigen@@QEBA_JXZ ; Eigen::EigenBase<Eigen::Map<Eigen::Matrix<unsigned char,28,28,0,28,28>,0,Eigen::Stride<0,0> > >::cols
PUBLIC	?size@?$EigenBase@V?$Map@V?$Matrix@E$0BM@$0BM@$0A@$0BM@$0BM@@Eigen@@$0A@V?$Stride@$0A@$0A@@2@@Eigen@@@Eigen@@QEBA_JXZ ; Eigen::EigenBase<Eigen::Map<Eigen::Matrix<unsigned char,28,28,0,28,28>,0,Eigen::Stride<0,0> > >::size
PUBLIC	??0?$variable_if_dynamic@_J$00@internal@Eigen@@QEAA@_J@Z ; Eigen::internal::variable_if_dynamic<__int64,1>::variable_if_dynamic<__int64,1>
PUBLIC	?data@?$MapBase@V?$Map@V?$Matrix@E$0BM@$0BM@$0A@$0BM@$0BM@@Eigen@@$0A@V?$Stride@$0A@$0A@@2@@Eigen@@$00@Eigen@@QEBAPEBEXZ ; Eigen::MapBase<Eigen::Map<Eigen::Matrix<unsigned char,28,28,0,28,28>,0,Eigen::Stride<0,0> >,1>::data
PUBLIC	?innerStride@?$Map@V?$Matrix@E$0BM@$0BM@$0A@$0BM@$0BM@@Eigen@@$0A@V?$Stride@$0A@$0A@@2@@Eigen@@QEBA_JXZ ; Eigen::Map<Eigen::Matrix<unsigned char,28,28,0,28,28>,0,Eigen::Stride<0,0> >::innerStride
PUBLIC	?outerStride@?$Map@V?$Matrix@E$0BM@$0BM@$0A@$0BM@$0BM@@Eigen@@$0A@V?$Stride@$0A@$0A@@2@@Eigen@@QEBA_JXZ ; Eigen::Map<Eigen::Matrix<unsigned char,28,28,0,28,28>,0,Eigen::Stride<0,0> >::outerStride
PUBLIC	??0?$evaluator_base@V?$Map@V?$Matrix@E$0BM@$0BM@$0A@$0BM@$0BM@@Eigen@@$0A@V?$Stride@$0A@$0A@@2@@Eigen@@@internal@Eigen@@QEAA@XZ ; Eigen::internal::evaluator_base<Eigen::Map<Eigen::Matrix<unsigned char,28,28,0,28,28>,0,Eigen::Stride<0,0> > >::evaluator_base<Eigen::Map<Eigen::Matrix<unsigned char,28,28,0,28,28>,0,Eigen::Stride<0,0> > >
PUBLIC	??0?$mapbase_evaluator@V?$Map@V?$Matrix@E$0BM@$0BM@$0A@$0BM@$0BM@@Eigen@@$0A@V?$Stride@$0A@$0A@@2@@Eigen@@V?$Matrix@E$0BM@$0BM@$0A@$0BM@$0BM@@2@@internal@Eigen@@QEAA@AEBV?$Map@V?$Matrix@E$0BM@$0BM@$0A@$0BM@$0BM@@Eigen@@$0A@V?$Stride@$0A@$0A@@2@@2@@Z ; Eigen::internal::mapbase_evaluator<Eigen::Map<Eigen::Matrix<unsigned char,28,28,0,28,28>,0,Eigen::Stride<0,0> >,Eigen::Matrix<unsigned char,28,28,0,28,28> >::mapbase_evaluator<Eigen::Map<Eigen::Matrix<unsigned char,28,28,0,28,28>,0,Eigen::Stride<0,0> >,Eigen::Matrix<unsigned char,28,28,0,28,28> >
PUBLIC	??0?$evaluator@V?$Map@V?$Matrix@E$0BM@$0BM@$0A@$0BM@$0BM@@Eigen@@$0A@V?$Stride@$0A@$0A@@2@@Eigen@@@internal@Eigen@@QEAA@AEBV?$Map@V?$Matrix@E$0BM@$0BM@$0A@$0BM@$0BM@@Eigen@@$0A@V?$Stride@$0A@$0A@@2@@2@@Z ; Eigen::internal::evaluator<Eigen::Map<Eigen::Matrix<unsigned char,28,28,0,28,28>,0,Eigen::Stride<0,0> > >::evaluator<Eigen::Map<Eigen::Matrix<unsigned char,28,28,0,28,28>,0,Eigen::Stride<0,0> > >
PUBLIC	?functor@?$CwiseUnaryOp@U?$scalar_cast_op@EN@internal@Eigen@@$$CBV?$Map@V?$Matrix@E$0BM@$0BM@$0A@$0BM@$0BM@@Eigen@@$0A@V?$Stride@$0A@$0A@@2@@3@@Eigen@@QEBAAEBU?$scalar_cast_op@EN@internal@2@XZ ; Eigen::CwiseUnaryOp<Eigen::internal::scalar_cast_op<unsigned char,double>,Eigen::Map<Eigen::Matrix<unsigned char,28,28,0,28,28>,0,Eigen::Stride<0,0> > const >::functor
PUBLIC	?nestedExpression@?$CwiseUnaryOp@U?$scalar_cast_op@EN@internal@Eigen@@$$CBV?$Map@V?$Matrix@E$0BM@$0BM@$0A@$0BM@$0BM@@Eigen@@$0A@V?$Stride@$0A@$0A@@2@@3@@Eigen@@QEBAAEBV?$Map@V?$Matrix@E$0BM@$0BM@$0A@$0BM@$0BM@@Eigen@@$0A@V?$Stride@$0A@$0A@@2@@2@XZ ; Eigen::CwiseUnaryOp<Eigen::internal::scalar_cast_op<unsigned char,double>,Eigen::Map<Eigen::Matrix<unsigned char,28,28,0,28,28>,0,Eigen::Stride<0,0> > const >::nestedExpression
PUBLIC	??0?$evaluator@$$CBV?$Map@V?$Matrix@E$0BM@$0BM@$0A@$0BM@$0BM@@Eigen@@$0A@V?$Stride@$0A@$0A@@2@@Eigen@@@internal@Eigen@@QEAA@AEBV?$Map@V?$Matrix@E$0BM@$0BM@$0A@$0BM@$0BM@@Eigen@@$0A@V?$Stride@$0A@$0A@@2@@2@@Z ; Eigen::internal::evaluator<Eigen::Map<Eigen::Matrix<unsigned char,28,28,0,28,28>,0,Eigen::Stride<0,0> > const >::evaluator<Eigen::Map<Eigen::Matrix<unsigned char,28,28,0,28,28>,0,Eigen::Stride<0,0> > const >
PUBLIC	??0?$evaluator_base@V?$CwiseUnaryOp@U?$scalar_cast_op@EN@internal@Eigen@@$$CBV?$Map@V?$Matrix@E$0BM@$0BM@$0A@$0BM@$0BM@@Eigen@@$0A@V?$Stride@$0A@$0A@@2@@3@@Eigen@@@internal@Eigen@@QEAA@XZ ; Eigen::internal::evaluator_base<Eigen::CwiseUnaryOp<Eigen::internal::scalar_cast_op<unsigned char,double>,Eigen::Map<Eigen::Matrix<unsigned char,28,28,0,28,28>,0,Eigen::Stride<0,0> > const > >::evaluator_base<Eigen::CwiseUnaryOp<Eigen::internal::scalar_cast_op<unsigned char,double>,Eigen::Map<Eigen::Matrix<unsigned char,28,28,0,28,28>,0,Eigen::Stride<0,0> > const > >
PUBLIC	??0Data@?$unary_evaluator@V?$CwiseUnaryOp@U?$scalar_cast_op@EN@internal@Eigen@@$$CBV?$Map@V?$Matrix@E$0BM@$0BM@$0A@$0BM@$0BM@@Eigen@@$0A@V?$Stride@$0A@$0A@@2@@3@@Eigen@@UIndexBased@internal@2@N@internal@Eigen@@QEAA@AEBV?$CwiseUnaryOp@U?$scalar_cast_op@EN@internal@Eigen@@$$CBV?$Map@V?$Matrix@E$0BM@$0BM@$0A@$0BM@$0BM@@Eigen@@$0A@V?$Stride@$0A@$0A@@2@@3@@3@@Z ; Eigen::internal::unary_evaluator<Eigen::CwiseUnaryOp<Eigen::internal::scalar_cast_op<unsigned char,double>,Eigen::Map<Eigen::Matrix<unsigned char,28,28,0,28,28>,0,Eigen::Stride<0,0> > const >,Eigen::internal::IndexBased,double>::Data::Data
PUBLIC	?value@?$variable_if_dynamic@_J$00@internal@Eigen@@SA_JXZ ; Eigen::internal::variable_if_dynamic<__int64,1>::value
PUBLIC	?functor@?$CwiseNullaryOp@U?$scalar_constant_op@N@internal@Eigen@@$$CBV?$Matrix@N$0BM@$0BM@$0A@$0BM@$0BM@@3@@Eigen@@QEBAAEBU?$scalar_constant_op@N@internal@2@XZ ; Eigen::CwiseNullaryOp<Eigen::internal::scalar_constant_op<double>,Eigen::Matrix<double,28,28,0,28,28> const >::functor
PUBLIC	??0?$unary_evaluator@V?$CwiseUnaryOp@U?$scalar_cast_op@EN@internal@Eigen@@$$CBV?$Map@V?$Matrix@E$0BM@$0BM@$0A@$0BM@$0BM@@Eigen@@$0A@V?$Stride@$0A@$0A@@2@@3@@Eigen@@UIndexBased@internal@2@N@internal@Eigen@@QEAA@AEBV?$CwiseUnaryOp@U?$scalar_cast_op@EN@internal@Eigen@@$$CBV?$Map@V?$Matrix@E$0BM@$0BM@$0A@$0BM@$0BM@@Eigen@@$0A@V?$Stride@$0A@$0A@@2@@3@@2@@Z ; Eigen::internal::unary_evaluator<Eigen::CwiseUnaryOp<Eigen::internal::scalar_cast_op<unsigned char,double>,Eigen::Map<Eigen::Matrix<unsigned char,28,28,0,28,28>,0,Eigen::Stride<0,0> > const >,Eigen::internal::IndexBased,double>::unary_evaluator<Eigen::CwiseUnaryOp<Eigen::internal::scalar_cast_op<unsigned char,double>,Eigen::Map<Eigen::Matrix<unsigned char,28,28,0,28,28>,0,Eigen::Stride<0,0> > const >,Eigen::internal::IndexBased,double>
PUBLIC	??0?$evaluator_base@V?$CwiseNullaryOp@U?$scalar_constant_op@N@internal@Eigen@@$$CBV?$Matrix@N$0BM@$0BM@$0A@$0BM@$0BM@@3@@Eigen@@@internal@Eigen@@QEAA@XZ ; Eigen::internal::evaluator_base<Eigen::CwiseNullaryOp<Eigen::internal::scalar_constant_op<double>,Eigen::Matrix<double,28,28,0,28,28> const > >::evaluator_base<Eigen::CwiseNullaryOp<Eigen::internal::scalar_constant_op<double>,Eigen::Matrix<double,28,28,0,28,28> const > >
PUBLIC	??R?$scalar_cast_op@EN@internal@Eigen@@QEBA?BNAEBE@Z ; Eigen::internal::scalar_cast_op<unsigned char,double>::operator()
PUBLIC	?coeff@?$mapbase_evaluator@V?$Map@V?$Matrix@E$0BM@$0BM@$0A@$0BM@$0BM@@Eigen@@$0A@V?$Stride@$0A@$0A@@2@@Eigen@@V?$Matrix@E$0BM@$0BM@$0A@$0BM@$0BM@@2@@internal@Eigen@@QEBAAEBE_J@Z ; Eigen::internal::mapbase_evaluator<Eigen::Map<Eigen::Matrix<unsigned char,28,28,0,28,28>,0,Eigen::Stride<0,0> >,Eigen::Matrix<unsigned char,28,28,0,28,28> >::coeff
PUBLIC	?func@Data@?$unary_evaluator@V?$CwiseUnaryOp@U?$scalar_cast_op@EN@internal@Eigen@@$$CBV?$Map@V?$Matrix@E$0BM@$0BM@$0A@$0BM@$0BM@@Eigen@@$0A@V?$Stride@$0A@$0A@@2@@3@@Eigen@@UIndexBased@internal@2@N@internal@Eigen@@QEBAAEBU?$scalar_cast_op@EN@34@XZ ; Eigen::internal::unary_evaluator<Eigen::CwiseUnaryOp<Eigen::internal::scalar_cast_op<unsigned char,double>,Eigen::Map<Eigen::Matrix<unsigned char,28,28,0,28,28>,0,Eigen::Stride<0,0> > const >,Eigen::internal::IndexBased,double>::Data::func
PUBLIC	??0?$evaluator@V?$CwiseUnaryOp@U?$scalar_cast_op@EN@internal@Eigen@@$$CBV?$Map@V?$Matrix@E$0BM@$0BM@$0A@$0BM@$0BM@@Eigen@@$0A@V?$Stride@$0A@$0A@@2@@3@@Eigen@@@internal@Eigen@@QEAA@AEBV?$CwiseUnaryOp@U?$scalar_cast_op@EN@internal@Eigen@@$$CBV?$Map@V?$Matrix@E$0BM@$0BM@$0A@$0BM@$0BM@@Eigen@@$0A@V?$Stride@$0A@$0A@@2@@3@@2@@Z ; Eigen::internal::evaluator<Eigen::CwiseUnaryOp<Eigen::internal::scalar_cast_op<unsigned char,double>,Eigen::Map<Eigen::Matrix<unsigned char,28,28,0,28,28>,0,Eigen::Stride<0,0> > const > >::evaluator<Eigen::CwiseUnaryOp<Eigen::internal::scalar_cast_op<unsigned char,double>,Eigen::Map<Eigen::Matrix<unsigned char,28,28,0,28,28>,0,Eigen::Stride<0,0> > const > >
PUBLIC	??0?$evaluator@V?$CwiseNullaryOp@U?$scalar_constant_op@N@internal@Eigen@@$$CBV?$Matrix@N$0BM@$0BM@$0A@$0BM@$0BM@@3@@Eigen@@@internal@Eigen@@QEAA@AEBV?$CwiseNullaryOp@U?$scalar_constant_op@N@internal@Eigen@@$$CBV?$Matrix@N$0BM@$0BM@$0A@$0BM@$0BM@@3@@2@@Z ; Eigen::internal::evaluator<Eigen::CwiseNullaryOp<Eigen::internal::scalar_constant_op<double>,Eigen::Matrix<double,28,28,0,28,28> const > >::evaluator<Eigen::CwiseNullaryOp<Eigen::internal::scalar_constant_op<double>,Eigen::Matrix<double,28,28,0,28,28> const > >
PUBLIC	??R?$scalar_quotient_op@NN@internal@Eigen@@QEBA?BNAEBN0@Z ; Eigen::internal::scalar_quotient_op<double,double>::operator()
PUBLIC	?lhs@?$CwiseBinaryOp@U?$scalar_quotient_op@NN@internal@Eigen@@$$CBV?$CwiseUnaryOp@U?$scalar_cast_op@EN@internal@Eigen@@$$CBV?$Map@V?$Matrix@E$0BM@$0BM@$0A@$0BM@$0BM@@Eigen@@$0A@V?$Stride@$0A@$0A@@2@@3@@3@$$CBV?$CwiseNullaryOp@U?$scalar_constant_op@N@internal@Eigen@@$$CBV?$Matrix@N$0BM@$0BM@$0A@$0BM@$0BM@@3@@3@@Eigen@@QEBAAEBV?$CwiseUnaryOp@U?$scalar_cast_op@EN@internal@Eigen@@$$CBV?$Map@V?$Matrix@E$0BM@$0BM@$0A@$0BM@$0BM@@Eigen@@$0A@V?$Stride@$0A@$0A@@2@@3@@2@XZ ; Eigen::CwiseBinaryOp<Eigen::internal::scalar_quotient_op<double,double>,Eigen::CwiseUnaryOp<Eigen::internal::scalar_cast_op<unsigned char,double>,Eigen::Map<Eigen::Matrix<unsigned char,28,28,0,28,28>,0,Eigen::Stride<0,0> > const > const ,Eigen::CwiseNullaryOp<Eigen::internal::scalar_constant_op<double>,Eigen::Matrix<double,28,28,0,28,28> const > const >::lhs
PUBLIC	?rhs@?$CwiseBinaryOp@U?$scalar_quotient_op@NN@internal@Eigen@@$$CBV?$CwiseUnaryOp@U?$scalar_cast_op@EN@internal@Eigen@@$$CBV?$Map@V?$Matrix@E$0BM@$0BM@$0A@$0BM@$0BM@@Eigen@@$0A@V?$Stride@$0A@$0A@@2@@3@@3@$$CBV?$CwiseNullaryOp@U?$scalar_constant_op@N@internal@Eigen@@$$CBV?$Matrix@N$0BM@$0BM@$0A@$0BM@$0BM@@3@@3@@Eigen@@QEBAAEBV?$CwiseNullaryOp@U?$scalar_constant_op@N@internal@Eigen@@$$CBV?$Matrix@N$0BM@$0BM@$0A@$0BM@$0BM@@3@@2@XZ ; Eigen::CwiseBinaryOp<Eigen::internal::scalar_quotient_op<double,double>,Eigen::CwiseUnaryOp<Eigen::internal::scalar_cast_op<unsigned char,double>,Eigen::Map<Eigen::Matrix<unsigned char,28,28,0,28,28>,0,Eigen::Stride<0,0> > const > const ,Eigen::CwiseNullaryOp<Eigen::internal::scalar_constant_op<double>,Eigen::Matrix<double,28,28,0,28,28> const > const >::rhs
PUBLIC	?functor@?$CwiseBinaryOp@U?$scalar_quotient_op@NN@internal@Eigen@@$$CBV?$CwiseUnaryOp@U?$scalar_cast_op@EN@internal@Eigen@@$$CBV?$Map@V?$Matrix@E$0BM@$0BM@$0A@$0BM@$0BM@@Eigen@@$0A@V?$Stride@$0A@$0A@@2@@3@@3@$$CBV?$CwiseNullaryOp@U?$scalar_constant_op@N@internal@Eigen@@$$CBV?$Matrix@N$0BM@$0BM@$0A@$0BM@$0BM@@3@@3@@Eigen@@QEBAAEBU?$scalar_quotient_op@NN@internal@2@XZ ; Eigen::CwiseBinaryOp<Eigen::internal::scalar_quotient_op<double,double>,Eigen::CwiseUnaryOp<Eigen::internal::scalar_cast_op<unsigned char,double>,Eigen::Map<Eigen::Matrix<unsigned char,28,28,0,28,28>,0,Eigen::Stride<0,0> > const > const ,Eigen::CwiseNullaryOp<Eigen::internal::scalar_constant_op<double>,Eigen::Matrix<double,28,28,0,28,28> const > const >::functor
PUBLIC	?coeff@?$unary_evaluator@V?$CwiseUnaryOp@U?$scalar_cast_op@EN@internal@Eigen@@$$CBV?$Map@V?$Matrix@E$0BM@$0BM@$0A@$0BM@$0BM@@Eigen@@$0A@V?$Stride@$0A@$0A@@2@@3@@Eigen@@UIndexBased@internal@2@N@internal@Eigen@@QEBAN_J@Z ; Eigen::internal::unary_evaluator<Eigen::CwiseUnaryOp<Eigen::internal::scalar_cast_op<unsigned char,double>,Eigen::Map<Eigen::Matrix<unsigned char,28,28,0,28,28>,0,Eigen::Stride<0,0> > const >,Eigen::internal::IndexBased,double>::coeff
PUBLIC	??0?$evaluator@$$CBV?$CwiseUnaryOp@U?$scalar_cast_op@EN@internal@Eigen@@$$CBV?$Map@V?$Matrix@E$0BM@$0BM@$0A@$0BM@$0BM@@Eigen@@$0A@V?$Stride@$0A@$0A@@2@@3@@Eigen@@@internal@Eigen@@QEAA@AEBV?$CwiseUnaryOp@U?$scalar_cast_op@EN@internal@Eigen@@$$CBV?$Map@V?$Matrix@E$0BM@$0BM@$0A@$0BM@$0BM@@Eigen@@$0A@V?$Stride@$0A@$0A@@2@@3@@2@@Z ; Eigen::internal::evaluator<Eigen::CwiseUnaryOp<Eigen::internal::scalar_cast_op<unsigned char,double>,Eigen::Map<Eigen::Matrix<unsigned char,28,28,0,28,28>,0,Eigen::Stride<0,0> > const > const >::evaluator<Eigen::CwiseUnaryOp<Eigen::internal::scalar_cast_op<unsigned char,double>,Eigen::Map<Eigen::Matrix<unsigned char,28,28,0,28,28>,0,Eigen::Stride<0,0> > const > const >
PUBLIC	??0?$evaluator@$$CBV?$CwiseNullaryOp@U?$scalar_constant_op@N@internal@Eigen@@$$CBV?$Matrix@N$0BM@$0BM@$0A@$0BM@$0BM@@3@@Eigen@@@internal@Eigen@@QEAA@AEBV?$CwiseNullaryOp@U?$scalar_constant_op@N@internal@Eigen@@$$CBV?$Matrix@N$0BM@$0BM@$0A@$0BM@$0BM@@3@@2@@Z ; Eigen::internal::evaluator<Eigen::CwiseNullaryOp<Eigen::internal::scalar_constant_op<double>,Eigen::Matrix<double,28,28,0,28,28> const > const >::evaluator<Eigen::CwiseNullaryOp<Eigen::internal::scalar_constant_op<double>,Eigen::Matrix<double,28,28,0,28,28> const > const >
PUBLIC	?func@Data@?$binary_evaluator@V?$CwiseBinaryOp@U?$scalar_quotient_op@NN@internal@Eigen@@$$CBV?$CwiseUnaryOp@U?$scalar_cast_op@EN@internal@Eigen@@$$CBV?$Map@V?$Matrix@E$0BM@$0BM@$0A@$0BM@$0BM@@Eigen@@$0A@V?$Stride@$0A@$0A@@2@@3@@3@$$CBV?$CwiseNullaryOp@U?$scalar_constant_op@N@internal@Eigen@@$$CBV?$Matrix@N$0BM@$0BM@$0A@$0BM@$0BM@@3@@3@@Eigen@@UIndexBased@internal@2@U342@NN@internal@Eigen@@QEBAAEBU?$scalar_quotient_op@NN@34@XZ ; Eigen::internal::binary_evaluator<Eigen::CwiseBinaryOp<Eigen::internal::scalar_quotient_op<double,double>,Eigen::CwiseUnaryOp<Eigen::internal::scalar_cast_op<unsigned char,double>,Eigen::Map<Eigen::Matrix<unsigned char,28,28,0,28,28>,0,Eigen::Stride<0,0> > const > const ,Eigen::CwiseNullaryOp<Eigen::internal::scalar_constant_op<double>,Eigen::Matrix<double,28,28,0,28,28> const > const >,Eigen::internal::IndexBased,Eigen::internal::IndexBased,double,double>::Data::func
PUBLIC	?coeffRef@?$evaluator@V?$PlainObjectBase@V?$Matrix@N$0BM@$0BM@$0A@$0BM@$0BM@@Eigen@@@Eigen@@@internal@Eigen@@QEAAAEAN_J@Z ; Eigen::internal::evaluator<Eigen::PlainObjectBase<Eigen::Matrix<double,28,28,0,28,28> > >::coeffRef
PUBLIC	?assignCoeff@?$assign_op@NN@internal@Eigen@@QEBAXAEANAEBN@Z ; Eigen::internal::assign_op<double,double>::assignCoeff
PUBLIC	??0?$evaluator_base@V?$CwiseBinaryOp@U?$scalar_quotient_op@NN@internal@Eigen@@$$CBV?$CwiseUnaryOp@U?$scalar_cast_op@EN@internal@Eigen@@$$CBV?$Map@V?$Matrix@E$0BM@$0BM@$0A@$0BM@$0BM@@Eigen@@$0A@V?$Stride@$0A@$0A@@2@@3@@3@$$CBV?$CwiseNullaryOp@U?$scalar_constant_op@N@internal@Eigen@@$$CBV?$Matrix@N$0BM@$0BM@$0A@$0BM@$0BM@@3@@3@@Eigen@@@internal@Eigen@@QEAA@XZ ; Eigen::internal::evaluator_base<Eigen::CwiseBinaryOp<Eigen::internal::scalar_quotient_op<double,double>,Eigen::CwiseUnaryOp<Eigen::internal::scalar_cast_op<unsigned char,double>,Eigen::Map<Eigen::Matrix<unsigned char,28,28,0,28,28>,0,Eigen::Stride<0,0> > const > const ,Eigen::CwiseNullaryOp<Eigen::internal::scalar_constant_op<double>,Eigen::Matrix<double,28,28,0,28,28> const > const > >::evaluator_base<Eigen::CwiseBinaryOp<Eigen::internal::scalar_quotient_op<double,double>,Eigen::CwiseUnaryOp<Eigen::internal::scalar_cast_op<unsigned char,double>,Eigen::Map<Eigen::Matrix<unsigned char,28,28,0,28,28>,0,Eigen::Stride<0,0> > const > const ,Eigen::CwiseNullaryOp<Eigen::internal::scalar_constant_op<double>,Eigen::Matrix<double,28,28,0,28,28> const > const > >
PUBLIC	?coeff@?$binary_evaluator@V?$CwiseBinaryOp@U?$scalar_quotient_op@NN@internal@Eigen@@$$CBV?$CwiseUnaryOp@U?$scalar_cast_op@EN@internal@Eigen@@$$CBV?$Map@V?$Matrix@E$0BM@$0BM@$0A@$0BM@$0BM@@Eigen@@$0A@V?$Stride@$0A@$0A@@2@@3@@3@$$CBV?$CwiseNullaryOp@U?$scalar_constant_op@N@internal@Eigen@@$$CBV?$Matrix@N$0BM@$0BM@$0A@$0BM@$0BM@@3@@3@@Eigen@@UIndexBased@internal@2@U342@NN@internal@Eigen@@QEBAN_J@Z ; Eigen::internal::binary_evaluator<Eigen::CwiseBinaryOp<Eigen::internal::scalar_quotient_op<double,double>,Eigen::CwiseUnaryOp<Eigen::internal::scalar_cast_op<unsigned char,double>,Eigen::Map<Eigen::Matrix<unsigned char,28,28,0,28,28>,0,Eigen::Stride<0,0> > const > const ,Eigen::CwiseNullaryOp<Eigen::internal::scalar_constant_op<double>,Eigen::Matrix<double,28,28,0,28,28> const > const >,Eigen::internal::IndexBased,Eigen::internal::IndexBased,double,double>::coeff
PUBLIC	??0Data@?$binary_evaluator@V?$CwiseBinaryOp@U?$scalar_quotient_op@NN@internal@Eigen@@$$CBV?$CwiseUnaryOp@U?$scalar_cast_op@EN@internal@Eigen@@$$CBV?$Map@V?$Matrix@E$0BM@$0BM@$0A@$0BM@$0BM@@Eigen@@$0A@V?$Stride@$0A@$0A@@2@@3@@3@$$CBV?$CwiseNullaryOp@U?$scalar_constant_op@N@internal@Eigen@@$$CBV?$Matrix@N$0BM@$0BM@$0A@$0BM@$0BM@@3@@3@@Eigen@@UIndexBased@internal@2@U342@NN@internal@Eigen@@QEAA@AEBV?$CwiseBinaryOp@U?$scalar_quotient_op@NN@internal@Eigen@@$$CBV?$CwiseUnaryOp@U?$scalar_cast_op@EN@internal@Eigen@@$$CBV?$Map@V?$Matrix@E$0BM@$0BM@$0A@$0BM@$0BM@@Eigen@@$0A@V?$Stride@$0A@$0A@@2@@3@@3@$$CBV?$CwiseNullaryOp@U?$scalar_constant_op@N@internal@Eigen@@$$CBV?$Matrix@N$0BM@$0BM@$0A@$0BM@$0BM@@3@@3@@3@@Z ; Eigen::internal::binary_evaluator<Eigen::CwiseBinaryOp<Eigen::internal::scalar_quotient_op<double,double>,Eigen::CwiseUnaryOp<Eigen::internal::scalar_cast_op<unsigned char,double>,Eigen::Map<Eigen::Matrix<unsigned char,28,28,0,28,28>,0,Eigen::Stride<0,0> > const > const ,Eigen::CwiseNullaryOp<Eigen::internal::scalar_constant_op<double>,Eigen::Matrix<double,28,28,0,28,28> const > const >,Eigen::internal::IndexBased,Eigen::internal::IndexBased,double,double>::Data::Data
PUBLIC	??0?$binary_evaluator@V?$CwiseBinaryOp@U?$scalar_quotient_op@NN@internal@Eigen@@$$CBV?$CwiseUnaryOp@U?$scalar_cast_op@EN@internal@Eigen@@$$CBV?$Map@V?$Matrix@E$0BM@$0BM@$0A@$0BM@$0BM@@Eigen@@$0A@V?$Stride@$0A@$0A@@2@@3@@3@$$CBV?$CwiseNullaryOp@U?$scalar_constant_op@N@internal@Eigen@@$$CBV?$Matrix@N$0BM@$0BM@$0A@$0BM@$0BM@@3@@3@@Eigen@@UIndexBased@internal@2@U342@NN@internal@Eigen@@QEAA@AEBV?$CwiseBinaryOp@U?$scalar_quotient_op@NN@internal@Eigen@@$$CBV?$CwiseUnaryOp@U?$scalar_cast_op@EN@internal@Eigen@@$$CBV?$Map@V?$Matrix@E$0BM@$0BM@$0A@$0BM@$0BM@@Eigen@@$0A@V?$Stride@$0A@$0A@@2@@3@@3@$$CBV?$CwiseNullaryOp@U?$scalar_constant_op@N@internal@Eigen@@$$CBV?$Matrix@N$0BM@$0BM@$0A@$0BM@$0BM@@3@@3@@2@@Z ; Eigen::internal::binary_evaluator<Eigen::CwiseBinaryOp<Eigen::internal::scalar_quotient_op<double,double>,Eigen::CwiseUnaryOp<Eigen::internal::scalar_cast_op<unsigned char,double>,Eigen::Map<Eigen::Matrix<unsigned char,28,28,0,28,28>,0,Eigen::Stride<0,0> > const > const ,Eigen::CwiseNullaryOp<Eigen::internal::scalar_constant_op<double>,Eigen::Matrix<double,28,28,0,28,28> const > const >,Eigen::internal::IndexBased,Eigen::internal::IndexBased,double,double>::binary_evaluator<Eigen::CwiseBinaryOp<Eigen::internal::scalar_quotient_op<double,double>,Eigen::CwiseUnaryOp<Eigen::internal::scalar_cast_op<unsigned char,double>,Eigen::Map<Eigen::Matrix<unsigned char,28,28,0,28,28>,0,Eigen::Stride<0,0> > const > const ,Eigen::CwiseNullaryOp<Eigen::internal::scalar_constant_op<double>,Eigen::Matrix<double,28,28,0,28,28> const > const >,Eigen::internal::IndexBased,Eigen::internal::IndexBased,double,double>
PUBLIC	?size@?$generic_dense_assignment_kernel@U?$evaluator@V?$Matrix@N$0BM@$0BM@$0A@$0BM@$0BM@@Eigen@@@internal@Eigen@@U?$evaluator@V?$CwiseBinaryOp@U?$scalar_quotient_op@NN@internal@Eigen@@$$CBV?$CwiseUnaryOp@U?$scalar_cast_op@EN@internal@Eigen@@$$CBV?$Map@V?$Matrix@E$0BM@$0BM@$0A@$0BM@$0BM@@Eigen@@$0A@V?$Stride@$0A@$0A@@2@@3@@3@$$CBV?$CwiseNullaryOp@U?$scalar_constant_op@N@internal@Eigen@@$$CBV?$Matrix@N$0BM@$0BM@$0A@$0BM@$0BM@@3@@3@@Eigen@@@23@U?$assign_op@NN@23@$0A@@internal@Eigen@@QEBA_JXZ ; Eigen::internal::generic_dense_assignment_kernel<Eigen::internal::evaluator<Eigen::Matrix<double,28,28,0,28,28> >,Eigen::internal::evaluator<Eigen::CwiseBinaryOp<Eigen::internal::scalar_quotient_op<double,double>,Eigen::CwiseUnaryOp<Eigen::internal::scalar_cast_op<unsigned char,double>,Eigen::Map<Eigen::Matrix<unsigned char,28,28,0,28,28>,0,Eigen::Stride<0,0> > const > const ,Eigen::CwiseNullaryOp<Eigen::internal::scalar_constant_op<double>,Eigen::Matrix<double,28,28,0,28,28> const > const > >,Eigen::internal::assign_op<double,double>,0>::size
PUBLIC	?assignCoeff@?$generic_dense_assignment_kernel@U?$evaluator@V?$Matrix@N$0BM@$0BM@$0A@$0BM@$0BM@@Eigen@@@internal@Eigen@@U?$evaluator@V?$CwiseBinaryOp@U?$scalar_quotient_op@NN@internal@Eigen@@$$CBV?$CwiseUnaryOp@U?$scalar_cast_op@EN@internal@Eigen@@$$CBV?$Map@V?$Matrix@E$0BM@$0BM@$0A@$0BM@$0BM@@Eigen@@$0A@V?$Stride@$0A@$0A@@2@@3@@3@$$CBV?$CwiseNullaryOp@U?$scalar_constant_op@N@internal@Eigen@@$$CBV?$Matrix@N$0BM@$0BM@$0A@$0BM@$0BM@@3@@3@@Eigen@@@23@U?$assign_op@NN@23@$0A@@internal@Eigen@@QEAAX_J@Z ; Eigen::internal::generic_dense_assignment_kernel<Eigen::internal::evaluator<Eigen::Matrix<double,28,28,0,28,28> >,Eigen::internal::evaluator<Eigen::CwiseBinaryOp<Eigen::internal::scalar_quotient_op<double,double>,Eigen::CwiseUnaryOp<Eigen::internal::scalar_cast_op<unsigned char,double>,Eigen::Map<Eigen::Matrix<unsigned char,28,28,0,28,28>,0,Eigen::Stride<0,0> > const > const ,Eigen::CwiseNullaryOp<Eigen::internal::scalar_constant_op<double>,Eigen::Matrix<double,28,28,0,28,28> const > const > >,Eigen::internal::assign_op<double,double>,0>::assignCoeff
PUBLIC	?const_cast_derived@?$EigenBase@V?$Matrix@N$0BM@$0BM@$0A@$0BM@$0BM@@Eigen@@@Eigen@@QEBAAEAV?$Matrix@N$0BM@$0BM@$0A@$0BM@$0BM@@2@XZ ; Eigen::EigenBase<Eigen::Matrix<double,28,28,0,28,28> >::const_cast_derived
PUBLIC	?run@?$checkTransposeAliasing_impl@V?$Matrix@N$0BM@$0BM@$0A@$0BM@$0BM@@Eigen@@V?$CwiseBinaryOp@U?$scalar_quotient_op@NN@internal@Eigen@@$$CBV?$CwiseUnaryOp@U?$scalar_cast_op@EN@internal@Eigen@@$$CBV?$Map@V?$Matrix@E$0BM@$0BM@$0A@$0BM@$0BM@@Eigen@@$0A@V?$Stride@$0A@$0A@@2@@3@@3@$$CBV?$CwiseNullaryOp@U?$scalar_constant_op@N@internal@Eigen@@$$CBV?$Matrix@N$0BM@$0BM@$0A@$0BM@$0BM@@3@@3@@2@$0A@@internal@Eigen@@SAXAEBV?$Matrix@N$0BM@$0BM@$0A@$0BM@$0BM@@3@AEBV?$CwiseBinaryOp@U?$scalar_quotient_op@NN@internal@Eigen@@$$CBV?$CwiseUnaryOp@U?$scalar_cast_op@EN@internal@Eigen@@$$CBV?$Map@V?$Matrix@E$0BM@$0BM@$0A@$0BM@$0BM@@Eigen@@$0A@V?$Stride@$0A@$0A@@2@@3@@3@$$CBV?$CwiseNullaryOp@U?$scalar_constant_op@N@internal@Eigen@@$$CBV?$Matrix@N$0BM@$0BM@$0A@$0BM@$0BM@@3@@3@@3@@Z ; Eigen::internal::checkTransposeAliasing_impl<Eigen::Matrix<double,28,28,0,28,28>,Eigen::CwiseBinaryOp<Eigen::internal::scalar_quotient_op<double,double>,Eigen::CwiseUnaryOp<Eigen::internal::scalar_cast_op<unsigned char,double>,Eigen::Map<Eigen::Matrix<unsigned char,28,28,0,28,28>,0,Eigen::Stride<0,0> > const > const ,Eigen::CwiseNullaryOp<Eigen::internal::scalar_constant_op<double>,Eigen::Matrix<double,28,28,0,28,28> const > const >,0>::run
PUBLIC	??1?$evaluator_base@V?$CwiseBinaryOp@U?$scalar_quotient_op@NN@internal@Eigen@@$$CBV?$CwiseUnaryOp@U?$scalar_cast_op@EN@internal@Eigen@@$$CBV?$Map@V?$Matrix@E$0BM@$0BM@$0A@$0BM@$0BM@@Eigen@@$0A@V?$Stride@$0A@$0A@@2@@3@@3@$$CBV?$CwiseNullaryOp@U?$scalar_constant_op@N@internal@Eigen@@$$CBV?$Matrix@N$0BM@$0BM@$0A@$0BM@$0BM@@3@@3@@Eigen@@@internal@Eigen@@QEAA@XZ ; Eigen::internal::evaluator_base<Eigen::CwiseBinaryOp<Eigen::internal::scalar_quotient_op<double,double>,Eigen::CwiseUnaryOp<Eigen::internal::scalar_cast_op<unsigned char,double>,Eigen::Map<Eigen::Matrix<unsigned char,28,28,0,28,28>,0,Eigen::Stride<0,0> > const > const ,Eigen::CwiseNullaryOp<Eigen::internal::scalar_constant_op<double>,Eigen::Matrix<double,28,28,0,28,28> const > const > >::~evaluator_base<Eigen::CwiseBinaryOp<Eigen::internal::scalar_quotient_op<double,double>,Eigen::CwiseUnaryOp<Eigen::internal::scalar_cast_op<unsigned char,double>,Eigen::Map<Eigen::Matrix<unsigned char,28,28,0,28,28>,0,Eigen::Stride<0,0> > const > const ,Eigen::CwiseNullaryOp<Eigen::internal::scalar_constant_op<double>,Eigen::Matrix<double,28,28,0,28,28> const > const > >
PUBLIC	??1?$evaluator_base@V?$CwiseUnaryOp@U?$scalar_cast_op@EN@internal@Eigen@@$$CBV?$Map@V?$Matrix@E$0BM@$0BM@$0A@$0BM@$0BM@@Eigen@@$0A@V?$Stride@$0A@$0A@@2@@3@@Eigen@@@internal@Eigen@@QEAA@XZ ; Eigen::internal::evaluator_base<Eigen::CwiseUnaryOp<Eigen::internal::scalar_cast_op<unsigned char,double>,Eigen::Map<Eigen::Matrix<unsigned char,28,28,0,28,28>,0,Eigen::Stride<0,0> > const > >::~evaluator_base<Eigen::CwiseUnaryOp<Eigen::internal::scalar_cast_op<unsigned char,double>,Eigen::Map<Eigen::Matrix<unsigned char,28,28,0,28,28>,0,Eigen::Stride<0,0> > const > >
PUBLIC	??1?$evaluator_base@V?$Map@V?$Matrix@E$0BM@$0BM@$0A@$0BM@$0BM@@Eigen@@$0A@V?$Stride@$0A@$0A@@2@@Eigen@@@internal@Eigen@@QEAA@XZ ; Eigen::internal::evaluator_base<Eigen::Map<Eigen::Matrix<unsigned char,28,28,0,28,28>,0,Eigen::Stride<0,0> > >::~evaluator_base<Eigen::Map<Eigen::Matrix<unsigned char,28,28,0,28,28>,0,Eigen::Stride<0,0> > >
PUBLIC	??1?$evaluator_base@V?$CwiseNullaryOp@U?$scalar_constant_op@N@internal@Eigen@@$$CBV?$Matrix@N$0BM@$0BM@$0A@$0BM@$0BM@@3@@Eigen@@@internal@Eigen@@QEAA@XZ ; Eigen::internal::evaluator_base<Eigen::CwiseNullaryOp<Eigen::internal::scalar_constant_op<double>,Eigen::Matrix<double,28,28,0,28,28> const > >::~evaluator_base<Eigen::CwiseNullaryOp<Eigen::internal::scalar_constant_op<double>,Eigen::Matrix<double,28,28,0,28,28> const > >
PUBLIC	??0?$evaluator@V?$CwiseBinaryOp@U?$scalar_quotient_op@NN@internal@Eigen@@$$CBV?$CwiseUnaryOp@U?$scalar_cast_op@EN@internal@Eigen@@$$CBV?$Map@V?$Matrix@E$0BM@$0BM@$0A@$0BM@$0BM@@Eigen@@$0A@V?$Stride@$0A@$0A@@2@@3@@3@$$CBV?$CwiseNullaryOp@U?$scalar_constant_op@N@internal@Eigen@@$$CBV?$Matrix@N$0BM@$0BM@$0A@$0BM@$0BM@@3@@3@@Eigen@@@internal@Eigen@@QEAA@AEBV?$CwiseBinaryOp@U?$scalar_quotient_op@NN@internal@Eigen@@$$CBV?$CwiseUnaryOp@U?$scalar_cast_op@EN@internal@Eigen@@$$CBV?$Map@V?$Matrix@E$0BM@$0BM@$0A@$0BM@$0BM@@Eigen@@$0A@V?$Stride@$0A@$0A@@2@@3@@3@$$CBV?$CwiseNullaryOp@U?$scalar_constant_op@N@internal@Eigen@@$$CBV?$Matrix@N$0BM@$0BM@$0A@$0BM@$0BM@@3@@3@@2@@Z ; Eigen::internal::evaluator<Eigen::CwiseBinaryOp<Eigen::internal::scalar_quotient_op<double,double>,Eigen::CwiseUnaryOp<Eigen::internal::scalar_cast_op<unsigned char,double>,Eigen::Map<Eigen::Matrix<unsigned char,28,28,0,28,28>,0,Eigen::Stride<0,0> > const > const ,Eigen::CwiseNullaryOp<Eigen::internal::scalar_constant_op<double>,Eigen::Matrix<double,28,28,0,28,28> const > const > >::evaluator<Eigen::CwiseBinaryOp<Eigen::internal::scalar_quotient_op<double,double>,Eigen::CwiseUnaryOp<Eigen::internal::scalar_cast_op<unsigned char,double>,Eigen::Map<Eigen::Matrix<unsigned char,28,28,0,28,28>,0,Eigen::Stride<0,0> > const > const ,Eigen::CwiseNullaryOp<Eigen::internal::scalar_constant_op<double>,Eigen::Matrix<double,28,28,0,28,28> const > const > >
PUBLIC	??0?$generic_dense_assignment_kernel@U?$evaluator@V?$Matrix@N$0BM@$0BM@$0A@$0BM@$0BM@@Eigen@@@internal@Eigen@@U?$evaluator@V?$CwiseBinaryOp@U?$scalar_quotient_op@NN@internal@Eigen@@$$CBV?$CwiseUnaryOp@U?$scalar_cast_op@EN@internal@Eigen@@$$CBV?$Map@V?$Matrix@E$0BM@$0BM@$0A@$0BM@$0BM@@Eigen@@$0A@V?$Stride@$0A@$0A@@2@@3@@3@$$CBV?$CwiseNullaryOp@U?$scalar_constant_op@N@internal@Eigen@@$$CBV?$Matrix@N$0BM@$0BM@$0A@$0BM@$0BM@@3@@3@@Eigen@@@23@U?$assign_op@NN@23@$0A@@internal@Eigen@@QEAA@AEAU?$evaluator@V?$Matrix@N$0BM@$0BM@$0A@$0BM@$0BM@@Eigen@@@12@AEBU?$evaluator@V?$CwiseBinaryOp@U?$scalar_quotient_op@NN@internal@Eigen@@$$CBV?$CwiseUnaryOp@U?$scalar_cast_op@EN@internal@Eigen@@$$CBV?$Map@V?$Matrix@E$0BM@$0BM@$0A@$0BM@$0BM@@Eigen@@$0A@V?$Stride@$0A@$0A@@2@@3@@3@$$CBV?$CwiseNullaryOp@U?$scalar_constant_op@N@internal@Eigen@@$$CBV?$Matrix@N$0BM@$0BM@$0A@$0BM@$0BM@@3@@3@@Eigen@@@12@AEBU?$assign_op@NN@12@AEAV?$Matrix@N$0BM@$0BM@$0A@$0BM@$0BM@@2@@Z ; Eigen::internal::generic_dense_assignment_kernel<Eigen::internal::evaluator<Eigen::Matrix<double,28,28,0,28,28> >,Eigen::internal::evaluator<Eigen::CwiseBinaryOp<Eigen::internal::scalar_quotient_op<double,double>,Eigen::CwiseUnaryOp<Eigen::internal::scalar_cast_op<unsigned char,double>,Eigen::Map<Eigen::Matrix<unsigned char,28,28,0,28,28>,0,Eigen::Stride<0,0> > const > const ,Eigen::CwiseNullaryOp<Eigen::internal::scalar_constant_op<double>,Eigen::Matrix<double,28,28,0,28,28> const > const > >,Eigen::internal::assign_op<double,double>,0>::generic_dense_assignment_kernel<Eigen::internal::evaluator<Eigen::Matrix<double,28,28,0,28,28> >,Eigen::internal::evaluator<Eigen::CwiseBinaryOp<Eigen::internal::scalar_quotient_op<double,double>,Eigen::CwiseUnaryOp<Eigen::internal::scalar_cast_op<unsigned char,double>,Eigen::Map<Eigen::Matrix<unsigned char,28,28,0,28,28>,0,Eigen::Stride<0,0> > const > const ,Eigen::CwiseNullaryOp<Eigen::internal::scalar_constant_op<double>,Eigen::Matrix<double,28,28,0,28,28> const > const > >,Eigen::internal::assign_op<double,double>,0>
PUBLIC	?run@?$dense_assignment_loop@V?$generic_dense_assignment_kernel@U?$evaluator@V?$Matrix@N$0BM@$0BM@$0A@$0BM@$0BM@@Eigen@@@internal@Eigen@@U?$evaluator@V?$CwiseBinaryOp@U?$scalar_quotient_op@NN@internal@Eigen@@$$CBV?$CwiseUnaryOp@U?$scalar_cast_op@EN@internal@Eigen@@$$CBV?$Map@V?$Matrix@E$0BM@$0BM@$0A@$0BM@$0BM@@Eigen@@$0A@V?$Stride@$0A@$0A@@2@@3@@3@$$CBV?$CwiseNullaryOp@U?$scalar_constant_op@N@internal@Eigen@@$$CBV?$Matrix@N$0BM@$0BM@$0A@$0BM@$0BM@@3@@3@@Eigen@@@23@U?$assign_op@NN@23@$0A@@internal@Eigen@@$00$0A@@internal@Eigen@@SAXAEAV?$generic_dense_assignment_kernel@U?$evaluator@V?$Matrix@N$0BM@$0BM@$0A@$0BM@$0BM@@Eigen@@@internal@Eigen@@U?$evaluator@V?$CwiseBinaryOp@U?$scalar_quotient_op@NN@internal@Eigen@@$$CBV?$CwiseUnaryOp@U?$scalar_cast_op@EN@internal@Eigen@@$$CBV?$Map@V?$Matrix@E$0BM@$0BM@$0A@$0BM@$0BM@@Eigen@@$0A@V?$Stride@$0A@$0A@@2@@3@@3@$$CBV?$CwiseNullaryOp@U?$scalar_constant_op@N@internal@Eigen@@$$CBV?$Matrix@N$0BM@$0BM@$0A@$0BM@$0BM@@3@@3@@Eigen@@@23@U?$assign_op@NN@23@$0A@@23@@Z ; Eigen::internal::dense_assignment_loop<Eigen::internal::generic_dense_assignment_kernel<Eigen::internal::evaluator<Eigen::Matrix<double,28,28,0,28,28> >,Eigen::internal::evaluator<Eigen::CwiseBinaryOp<Eigen::internal::scalar_quotient_op<double,double>,Eigen::CwiseUnaryOp<Eigen::internal::scalar_cast_op<unsigned char,double>,Eigen::Map<Eigen::Matrix<unsigned char,28,28,0,28,28>,0,Eigen::Stride<0,0> > const > const ,Eigen::CwiseNullaryOp<Eigen::internal::scalar_constant_op<double>,Eigen::Matrix<double,28,28,0,28,28> const > const > >,Eigen::internal::assign_op<double,double>,0>,1,0>::run
PUBLIC	??1?$evaluator@V?$CwiseNullaryOp@U?$scalar_constant_op@N@internal@Eigen@@$$CBV?$Matrix@N$0BM@$0BM@$0A@$0BM@$0BM@@3@@Eigen@@@internal@Eigen@@QEAA@XZ ; Eigen::internal::evaluator<Eigen::CwiseNullaryOp<Eigen::internal::scalar_constant_op<double>,Eigen::Matrix<double,28,28,0,28,28> const > >::~evaluator<Eigen::CwiseNullaryOp<Eigen::internal::scalar_constant_op<double>,Eigen::Matrix<double,28,28,0,28,28> const > >
PUBLIC	??1?$evaluator@$$CBV?$CwiseNullaryOp@U?$scalar_constant_op@N@internal@Eigen@@$$CBV?$Matrix@N$0BM@$0BM@$0A@$0BM@$0BM@@3@@Eigen@@@internal@Eigen@@QEAA@XZ ; Eigen::internal::evaluator<Eigen::CwiseNullaryOp<Eigen::internal::scalar_constant_op<double>,Eigen::Matrix<double,28,28,0,28,28> const > const >::~evaluator<Eigen::CwiseNullaryOp<Eigen::internal::scalar_constant_op<double>,Eigen::Matrix<double,28,28,0,28,28> const > const >
PUBLIC	??1?$mapbase_evaluator@V?$Map@V?$Matrix@E$0BM@$0BM@$0A@$0BM@$0BM@@Eigen@@$0A@V?$Stride@$0A@$0A@@2@@Eigen@@V?$Matrix@E$0BM@$0BM@$0A@$0BM@$0BM@@2@@internal@Eigen@@QEAA@XZ ; Eigen::internal::mapbase_evaluator<Eigen::Map<Eigen::Matrix<unsigned char,28,28,0,28,28>,0,Eigen::Stride<0,0> >,Eigen::Matrix<unsigned char,28,28,0,28,28> >::~mapbase_evaluator<Eigen::Map<Eigen::Matrix<unsigned char,28,28,0,28,28>,0,Eigen::Stride<0,0> >,Eigen::Matrix<unsigned char,28,28,0,28,28> >
PUBLIC	??1?$evaluator@V?$Map@V?$Matrix@E$0BM@$0BM@$0A@$0BM@$0BM@@Eigen@@$0A@V?$Stride@$0A@$0A@@2@@Eigen@@@internal@Eigen@@QEAA@XZ ; Eigen::internal::evaluator<Eigen::Map<Eigen::Matrix<unsigned char,28,28,0,28,28>,0,Eigen::Stride<0,0> > >::~evaluator<Eigen::Map<Eigen::Matrix<unsigned char,28,28,0,28,28>,0,Eigen::Stride<0,0> > >
PUBLIC	??1?$evaluator@$$CBV?$Map@V?$Matrix@E$0BM@$0BM@$0A@$0BM@$0BM@@Eigen@@$0A@V?$Stride@$0A@$0A@@2@@Eigen@@@internal@Eigen@@QEAA@XZ ; Eigen::internal::evaluator<Eigen::Map<Eigen::Matrix<unsigned char,28,28,0,28,28>,0,Eigen::Stride<0,0> > const >::~evaluator<Eigen::Map<Eigen::Matrix<unsigned char,28,28,0,28,28>,0,Eigen::Stride<0,0> > const >
PUBLIC	??1Data@?$unary_evaluator@V?$CwiseUnaryOp@U?$scalar_cast_op@EN@internal@Eigen@@$$CBV?$Map@V?$Matrix@E$0BM@$0BM@$0A@$0BM@$0BM@@Eigen@@$0A@V?$Stride@$0A@$0A@@2@@3@@Eigen@@UIndexBased@internal@2@N@internal@Eigen@@QEAA@XZ ; Eigen::internal::unary_evaluator<Eigen::CwiseUnaryOp<Eigen::internal::scalar_cast_op<unsigned char,double>,Eigen::Map<Eigen::Matrix<unsigned char,28,28,0,28,28>,0,Eigen::Stride<0,0> > const >,Eigen::internal::IndexBased,double>::Data::~Data
PUBLIC	??1?$unary_evaluator@V?$CwiseUnaryOp@U?$scalar_cast_op@EN@internal@Eigen@@$$CBV?$Map@V?$Matrix@E$0BM@$0BM@$0A@$0BM@$0BM@@Eigen@@$0A@V?$Stride@$0A@$0A@@2@@3@@Eigen@@UIndexBased@internal@2@N@internal@Eigen@@QEAA@XZ ; Eigen::internal::unary_evaluator<Eigen::CwiseUnaryOp<Eigen::internal::scalar_cast_op<unsigned char,double>,Eigen::Map<Eigen::Matrix<unsigned char,28,28,0,28,28>,0,Eigen::Stride<0,0> > const >,Eigen::internal::IndexBased,double>::~unary_evaluator<Eigen::CwiseUnaryOp<Eigen::internal::scalar_cast_op<unsigned char,double>,Eigen::Map<Eigen::Matrix<unsigned char,28,28,0,28,28>,0,Eigen::Stride<0,0> > const >,Eigen::internal::IndexBased,double>
PUBLIC	??1?$evaluator@V?$CwiseUnaryOp@U?$scalar_cast_op@EN@internal@Eigen@@$$CBV?$Map@V?$Matrix@E$0BM@$0BM@$0A@$0BM@$0BM@@Eigen@@$0A@V?$Stride@$0A@$0A@@2@@3@@Eigen@@@internal@Eigen@@QEAA@XZ ; Eigen::internal::evaluator<Eigen::CwiseUnaryOp<Eigen::internal::scalar_cast_op<unsigned char,double>,Eigen::Map<Eigen::Matrix<unsigned char,28,28,0,28,28>,0,Eigen::Stride<0,0> > const > >::~evaluator<Eigen::CwiseUnaryOp<Eigen::internal::scalar_cast_op<unsigned char,double>,Eigen::Map<Eigen::Matrix<unsigned char,28,28,0,28,28>,0,Eigen::Stride<0,0> > const > >
PUBLIC	??1?$evaluator@$$CBV?$CwiseUnaryOp@U?$scalar_cast_op@EN@internal@Eigen@@$$CBV?$Map@V?$Matrix@E$0BM@$0BM@$0A@$0BM@$0BM@@Eigen@@$0A@V?$Stride@$0A@$0A@@2@@3@@Eigen@@@internal@Eigen@@QEAA@XZ ; Eigen::internal::evaluator<Eigen::CwiseUnaryOp<Eigen::internal::scalar_cast_op<unsigned char,double>,Eigen::Map<Eigen::Matrix<unsigned char,28,28,0,28,28>,0,Eigen::Stride<0,0> > const > const >::~evaluator<Eigen::CwiseUnaryOp<Eigen::internal::scalar_cast_op<unsigned char,double>,Eigen::Map<Eigen::Matrix<unsigned char,28,28,0,28,28>,0,Eigen::Stride<0,0> > const > const >
PUBLIC	??1Data@?$binary_evaluator@V?$CwiseBinaryOp@U?$scalar_quotient_op@NN@internal@Eigen@@$$CBV?$CwiseUnaryOp@U?$scalar_cast_op@EN@internal@Eigen@@$$CBV?$Map@V?$Matrix@E$0BM@$0BM@$0A@$0BM@$0BM@@Eigen@@$0A@V?$Stride@$0A@$0A@@2@@3@@3@$$CBV?$CwiseNullaryOp@U?$scalar_constant_op@N@internal@Eigen@@$$CBV?$Matrix@N$0BM@$0BM@$0A@$0BM@$0BM@@3@@3@@Eigen@@UIndexBased@internal@2@U342@NN@internal@Eigen@@QEAA@XZ ; Eigen::internal::binary_evaluator<Eigen::CwiseBinaryOp<Eigen::internal::scalar_quotient_op<double,double>,Eigen::CwiseUnaryOp<Eigen::internal::scalar_cast_op<unsigned char,double>,Eigen::Map<Eigen::Matrix<unsigned char,28,28,0,28,28>,0,Eigen::Stride<0,0> > const > const ,Eigen::CwiseNullaryOp<Eigen::internal::scalar_constant_op<double>,Eigen::Matrix<double,28,28,0,28,28> const > const >,Eigen::internal::IndexBased,Eigen::internal::IndexBased,double,double>::Data::~Data
PUBLIC	??1?$binary_evaluator@V?$CwiseBinaryOp@U?$scalar_quotient_op@NN@internal@Eigen@@$$CBV?$CwiseUnaryOp@U?$scalar_cast_op@EN@internal@Eigen@@$$CBV?$Map@V?$Matrix@E$0BM@$0BM@$0A@$0BM@$0BM@@Eigen@@$0A@V?$Stride@$0A@$0A@@2@@3@@3@$$CBV?$CwiseNullaryOp@U?$scalar_constant_op@N@internal@Eigen@@$$CBV?$Matrix@N$0BM@$0BM@$0A@$0BM@$0BM@@3@@3@@Eigen@@UIndexBased@internal@2@U342@NN@internal@Eigen@@QEAA@XZ ; Eigen::internal::binary_evaluator<Eigen::CwiseBinaryOp<Eigen::internal::scalar_quotient_op<double,double>,Eigen::CwiseUnaryOp<Eigen::internal::scalar_cast_op<unsigned char,double>,Eigen::Map<Eigen::Matrix<unsigned char,28,28,0,28,28>,0,Eigen::Stride<0,0> > const > const ,Eigen::CwiseNullaryOp<Eigen::internal::scalar_constant_op<double>,Eigen::Matrix<double,28,28,0,28,28> const > const >,Eigen::internal::IndexBased,Eigen::internal::IndexBased,double,double>::~binary_evaluator<Eigen::CwiseBinaryOp<Eigen::internal::scalar_quotient_op<double,double>,Eigen::CwiseUnaryOp<Eigen::internal::scalar_cast_op<unsigned char,double>,Eigen::Map<Eigen::Matrix<unsigned char,28,28,0,28,28>,0,Eigen::Stride<0,0> > const > const ,Eigen::CwiseNullaryOp<Eigen::internal::scalar_constant_op<double>,Eigen::Matrix<double,28,28,0,28,28> const > const >,Eigen::internal::IndexBased,Eigen::internal::IndexBased,double,double>
PUBLIC	??1?$evaluator@V?$CwiseBinaryOp@U?$scalar_quotient_op@NN@internal@Eigen@@$$CBV?$CwiseUnaryOp@U?$scalar_cast_op@EN@internal@Eigen@@$$CBV?$Map@V?$Matrix@E$0BM@$0BM@$0A@$0BM@$0BM@@Eigen@@$0A@V?$Stride@$0A@$0A@@2@@3@@3@$$CBV?$CwiseNullaryOp@U?$scalar_constant_op@N@internal@Eigen@@$$CBV?$Matrix@N$0BM@$0BM@$0A@$0BM@$0BM@@3@@3@@Eigen@@@internal@Eigen@@QEAA@XZ ; Eigen::internal::evaluator<Eigen::CwiseBinaryOp<Eigen::internal::scalar_quotient_op<double,double>,Eigen::CwiseUnaryOp<Eigen::internal::scalar_cast_op<unsigned char,double>,Eigen::Map<Eigen::Matrix<unsigned char,28,28,0,28,28>,0,Eigen::Stride<0,0> > const > const ,Eigen::CwiseNullaryOp<Eigen::internal::scalar_constant_op<double>,Eigen::Matrix<double,28,28,0,28,28> const > const > >::~evaluator<Eigen::CwiseBinaryOp<Eigen::internal::scalar_quotient_op<double,double>,Eigen::CwiseUnaryOp<Eigen::internal::scalar_cast_op<unsigned char,double>,Eigen::Map<Eigen::Matrix<unsigned char,28,28,0,28,28>,0,Eigen::Stride<0,0> > const > const ,Eigen::CwiseNullaryOp<Eigen::internal::scalar_constant_op<double>,Eigen::Matrix<double,28,28,0,28,28> const > const > >
PUBLIC	??$call_dense_assignment_loop@V?$Matrix@N$0BM@$0BM@$0A@$0BM@$0BM@@Eigen@@V?$CwiseBinaryOp@U?$scalar_quotient_op@NN@internal@Eigen@@$$CBV?$CwiseUnaryOp@U?$scalar_cast_op@EN@internal@Eigen@@$$CBV?$Map@V?$Matrix@E$0BM@$0BM@$0A@$0BM@$0BM@@Eigen@@$0A@V?$Stride@$0A@$0A@@2@@3@@3@$$CBV?$CwiseNullaryOp@U?$scalar_constant_op@N@internal@Eigen@@$$CBV?$Matrix@N$0BM@$0BM@$0A@$0BM@$0BM@@3@@3@@2@U?$assign_op@NN@internal@2@@internal@Eigen@@YAXAEAV?$Matrix@N$0BM@$0BM@$0A@$0BM@$0BM@@1@AEBV?$CwiseBinaryOp@U?$scalar_quotient_op@NN@internal@Eigen@@$$CBV?$CwiseUnaryOp@U?$scalar_cast_op@EN@internal@Eigen@@$$CBV?$Map@V?$Matrix@E$0BM@$0BM@$0A@$0BM@$0BM@@Eigen@@$0A@V?$Stride@$0A@$0A@@2@@3@@3@$$CBV?$CwiseNullaryOp@U?$scalar_constant_op@N@internal@Eigen@@$$CBV?$Matrix@N$0BM@$0BM@$0A@$0BM@$0BM@@3@@3@@1@AEBU?$assign_op@NN@01@@Z ; Eigen::internal::call_dense_assignment_loop<Eigen::Matrix<double,28,28,0,28,28>,Eigen::CwiseBinaryOp<Eigen::internal::scalar_quotient_op<double,double>,Eigen::CwiseUnaryOp<Eigen::internal::scalar_cast_op<unsigned char,double>,Eigen::Map<Eigen::Matrix<unsigned char,28,28,0,28,28>,0,Eigen::Stride<0,0> > const > const ,Eigen::CwiseNullaryOp<Eigen::internal::scalar_constant_op<double>,Eigen::Matrix<double,28,28,0,28,28> const > const >,Eigen::internal::assign_op<double,double> >
PUBLIC	??$check_for_aliasing@V?$Matrix@N$0BM@$0BM@$0A@$0BM@$0BM@@Eigen@@V?$CwiseBinaryOp@U?$scalar_quotient_op@NN@internal@Eigen@@$$CBV?$CwiseUnaryOp@U?$scalar_cast_op@EN@internal@Eigen@@$$CBV?$Map@V?$Matrix@E$0BM@$0BM@$0A@$0BM@$0BM@@Eigen@@$0A@V?$Stride@$0A@$0A@@2@@3@@3@$$CBV?$CwiseNullaryOp@U?$scalar_constant_op@N@internal@Eigen@@$$CBV?$Matrix@N$0BM@$0BM@$0A@$0BM@$0BM@@3@@3@@2@@internal@Eigen@@YAXAEBV?$Matrix@N$0BM@$0BM@$0A@$0BM@$0BM@@1@AEBV?$CwiseBinaryOp@U?$scalar_quotient_op@NN@internal@Eigen@@$$CBV?$CwiseUnaryOp@U?$scalar_cast_op@EN@internal@Eigen@@$$CBV?$Map@V?$Matrix@E$0BM@$0BM@$0A@$0BM@$0BM@@Eigen@@$0A@V?$Stride@$0A@$0A@@2@@3@@3@$$CBV?$CwiseNullaryOp@U?$scalar_constant_op@N@internal@Eigen@@$$CBV?$Matrix@N$0BM@$0BM@$0A@$0BM@$0BM@@3@@3@@1@@Z ; Eigen::internal::check_for_aliasing<Eigen::Matrix<double,28,28,0,28,28>,Eigen::CwiseBinaryOp<Eigen::internal::scalar_quotient_op<double,double>,Eigen::CwiseUnaryOp<Eigen::internal::scalar_cast_op<unsigned char,double>,Eigen::Map<Eigen::Matrix<unsigned char,28,28,0,28,28>,0,Eigen::Stride<0,0> > const > const ,Eigen::CwiseNullaryOp<Eigen::internal::scalar_constant_op<double>,Eigen::Matrix<double,28,28,0,28,28> const > const > >
PUBLIC	?run@?$Assignment@V?$Matrix@N$0BM@$0BM@$0A@$0BM@$0BM@@Eigen@@V?$CwiseBinaryOp@U?$scalar_quotient_op@NN@internal@Eigen@@$$CBV?$CwiseUnaryOp@U?$scalar_cast_op@EN@internal@Eigen@@$$CBV?$Map@V?$Matrix@E$0BM@$0BM@$0A@$0BM@$0BM@@Eigen@@$0A@V?$Stride@$0A@$0A@@2@@3@@3@$$CBV?$CwiseNullaryOp@U?$scalar_constant_op@N@internal@Eigen@@$$CBV?$Matrix@N$0BM@$0BM@$0A@$0BM@$0BM@@3@@3@@2@U?$assign_op@NN@internal@2@UDense2Dense@52@X@internal@Eigen@@SAXAEAV?$Matrix@N$0BM@$0BM@$0A@$0BM@$0BM@@3@AEBV?$CwiseBinaryOp@U?$scalar_quotient_op@NN@internal@Eigen@@$$CBV?$CwiseUnaryOp@U?$scalar_cast_op@EN@internal@Eigen@@$$CBV?$Map@V?$Matrix@E$0BM@$0BM@$0A@$0BM@$0BM@@Eigen@@$0A@V?$Stride@$0A@$0A@@2@@3@@3@$$CBV?$CwiseNullaryOp@U?$scalar_constant_op@N@internal@Eigen@@$$CBV?$Matrix@N$0BM@$0BM@$0A@$0BM@$0BM@@3@@3@@3@AEBU?$assign_op@NN@23@@Z ; Eigen::internal::Assignment<Eigen::Matrix<double,28,28,0,28,28>,Eigen::CwiseBinaryOp<Eigen::internal::scalar_quotient_op<double,double>,Eigen::CwiseUnaryOp<Eigen::internal::scalar_cast_op<unsigned char,double>,Eigen::Map<Eigen::Matrix<unsigned char,28,28,0,28,28>,0,Eigen::Stride<0,0> > const > const ,Eigen::CwiseNullaryOp<Eigen::internal::scalar_constant_op<double>,Eigen::Matrix<double,28,28,0,28,28> const > const >,Eigen::internal::assign_op<double,double>,Eigen::internal::Dense2Dense,void>::run
PUBLIC	??$call_assignment_no_alias@V?$Matrix@N$0BM@$0BM@$0A@$0BM@$0BM@@Eigen@@V?$CwiseBinaryOp@U?$scalar_quotient_op@NN@internal@Eigen@@$$CBV?$CwiseUnaryOp@U?$scalar_cast_op@EN@internal@Eigen@@$$CBV?$Map@V?$Matrix@E$0BM@$0BM@$0A@$0BM@$0BM@@Eigen@@$0A@V?$Stride@$0A@$0A@@2@@3@@3@$$CBV?$CwiseNullaryOp@U?$scalar_constant_op@N@internal@Eigen@@$$CBV?$Matrix@N$0BM@$0BM@$0A@$0BM@$0BM@@3@@3@@2@U?$assign_op@NN@internal@2@@internal@Eigen@@YAXAEAV?$Matrix@N$0BM@$0BM@$0A@$0BM@$0BM@@1@AEBV?$CwiseBinaryOp@U?$scalar_quotient_op@NN@internal@Eigen@@$$CBV?$CwiseUnaryOp@U?$scalar_cast_op@EN@internal@Eigen@@$$CBV?$Map@V?$Matrix@E$0BM@$0BM@$0A@$0BM@$0BM@@Eigen@@$0A@V?$Stride@$0A@$0A@@2@@3@@3@$$CBV?$CwiseNullaryOp@U?$scalar_constant_op@N@internal@Eigen@@$$CBV?$Matrix@N$0BM@$0BM@$0A@$0BM@$0BM@@3@@3@@1@AEBU?$assign_op@NN@01@@Z ; Eigen::internal::call_assignment_no_alias<Eigen::Matrix<double,28,28,0,28,28>,Eigen::CwiseBinaryOp<Eigen::internal::scalar_quotient_op<double,double>,Eigen::CwiseUnaryOp<Eigen::internal::scalar_cast_op<unsigned char,double>,Eigen::Map<Eigen::Matrix<unsigned char,28,28,0,28,28>,0,Eigen::Stride<0,0> > const > const ,Eigen::CwiseNullaryOp<Eigen::internal::scalar_constant_op<double>,Eigen::Matrix<double,28,28,0,28,28> const > const >,Eigen::internal::assign_op<double,double> >
PUBLIC	??$call_assignment@V?$Matrix@N$0BM@$0BM@$0A@$0BM@$0BM@@Eigen@@V?$CwiseBinaryOp@U?$scalar_quotient_op@NN@internal@Eigen@@$$CBV?$CwiseUnaryOp@U?$scalar_cast_op@EN@internal@Eigen@@$$CBV?$Map@V?$Matrix@E$0BM@$0BM@$0A@$0BM@$0BM@@Eigen@@$0A@V?$Stride@$0A@$0A@@2@@3@@3@$$CBV?$CwiseNullaryOp@U?$scalar_constant_op@N@internal@Eigen@@$$CBV?$Matrix@N$0BM@$0BM@$0A@$0BM@$0BM@@3@@3@@2@U?$assign_op@NN@internal@2@@internal@Eigen@@YAXAEAV?$Matrix@N$0BM@$0BM@$0A@$0BM@$0BM@@1@AEBV?$CwiseBinaryOp@U?$scalar_quotient_op@NN@internal@Eigen@@$$CBV?$CwiseUnaryOp@U?$scalar_cast_op@EN@internal@Eigen@@$$CBV?$Map@V?$Matrix@E$0BM@$0BM@$0A@$0BM@$0BM@@Eigen@@$0A@V?$Stride@$0A@$0A@@2@@3@@3@$$CBV?$CwiseNullaryOp@U?$scalar_constant_op@N@internal@Eigen@@$$CBV?$Matrix@N$0BM@$0BM@$0A@$0BM@$0BM@@3@@3@@1@AEBU?$assign_op@NN@01@PEAX@Z ; Eigen::internal::call_assignment<Eigen::Matrix<double,28,28,0,28,28>,Eigen::CwiseBinaryOp<Eigen::internal::scalar_quotient_op<double,double>,Eigen::CwiseUnaryOp<Eigen::internal::scalar_cast_op<unsigned char,double>,Eigen::Map<Eigen::Matrix<unsigned char,28,28,0,28,28>,0,Eigen::Stride<0,0> > const > const ,Eigen::CwiseNullaryOp<Eigen::internal::scalar_constant_op<double>,Eigen::Matrix<double,28,28,0,28,28> const > const >,Eigen::internal::assign_op<double,double> >
PUBLIC	??$forward@AEAPEAV_Facet_base@std@@@std@@YAAEAPEAV_Facet_base@0@AEAPEAV10@@Z ; std::forward<std::_Facet_base * &>
PUBLIC	??$call_assignment@V?$Matrix@N$0BM@$0BM@$0A@$0BM@$0BM@@Eigen@@V?$CwiseBinaryOp@U?$scalar_quotient_op@NN@internal@Eigen@@$$CBV?$CwiseUnaryOp@U?$scalar_cast_op@EN@internal@Eigen@@$$CBV?$Map@V?$Matrix@E$0BM@$0BM@$0A@$0BM@$0BM@@Eigen@@$0A@V?$Stride@$0A@$0A@@2@@3@@3@$$CBV?$CwiseNullaryOp@U?$scalar_constant_op@N@internal@Eigen@@$$CBV?$Matrix@N$0BM@$0BM@$0A@$0BM@$0BM@@3@@3@@2@@internal@Eigen@@YAXAEAV?$Matrix@N$0BM@$0BM@$0A@$0BM@$0BM@@1@AEBV?$CwiseBinaryOp@U?$scalar_quotient_op@NN@internal@Eigen@@$$CBV?$CwiseUnaryOp@U?$scalar_cast_op@EN@internal@Eigen@@$$CBV?$Map@V?$Matrix@E$0BM@$0BM@$0A@$0BM@$0BM@@Eigen@@$0A@V?$Stride@$0A@$0A@@2@@3@@3@$$CBV?$CwiseNullaryOp@U?$scalar_constant_op@N@internal@Eigen@@$$CBV?$Matrix@N$0BM@$0BM@$0A@$0BM@$0BM@@3@@3@@1@@Z ; Eigen::internal::call_assignment<Eigen::Matrix<double,28,28,0,28,28>,Eigen::CwiseBinaryOp<Eigen::internal::scalar_quotient_op<double,double>,Eigen::CwiseUnaryOp<Eigen::internal::scalar_cast_op<unsigned char,double>,Eigen::Map<Eigen::Matrix<unsigned char,28,28,0,28,28>,0,Eigen::Stride<0,0> > const > const ,Eigen::CwiseNullaryOp<Eigen::internal::scalar_constant_op<double>,Eigen::Matrix<double,28,28,0,28,28> const > const > >
PUBLIC	??$?0AEAPEAV_Facet_base@std@@@?$_Compressed_pair@U?$default_delete@V_Facet_base@std@@@std@@PEAV_Facet_base@2@$00@std@@QEAA@U_Zero_then_variadic_args_t@1@AEAPEAV_Facet_base@1@@Z ; std::_Compressed_pair<std::default_delete<std::_Facet_base>,std::_Facet_base *,1>::_Compressed_pair<std::default_delete<std::_Facet_base>,std::_Facet_base *,1><std::_Facet_base * &>
PUBLIC	?derived@?$EigenBase@V?$CwiseBinaryOp@U?$scalar_quotient_op@NN@internal@Eigen@@$$CBV?$CwiseUnaryOp@U?$scalar_cast_op@EN@internal@Eigen@@$$CBV?$Map@V?$Matrix@E$0BM@$0BM@$0A@$0BM@$0BM@@Eigen@@$0A@V?$Stride@$0A@$0A@@2@@3@@3@$$CBV?$CwiseNullaryOp@U?$scalar_constant_op@N@internal@Eigen@@$$CBV?$Matrix@N$0BM@$0BM@$0A@$0BM@$0BM@@3@@3@@Eigen@@@Eigen@@QEBAAEBV?$CwiseBinaryOp@U?$scalar_quotient_op@NN@internal@Eigen@@$$CBV?$CwiseUnaryOp@U?$scalar_cast_op@EN@internal@Eigen@@$$CBV?$Map@V?$Matrix@E$0BM@$0BM@$0A@$0BM@$0BM@@Eigen@@$0A@V?$Stride@$0A@$0A@@2@@3@@3@$$CBV?$CwiseNullaryOp@U?$scalar_constant_op@N@internal@Eigen@@$$CBV?$Matrix@N$0BM@$0BM@$0A@$0BM@$0BM@@3@@3@@2@XZ ; Eigen::EigenBase<Eigen::CwiseBinaryOp<Eigen::internal::scalar_quotient_op<double,double>,Eigen::CwiseUnaryOp<Eigen::internal::scalar_cast_op<unsigned char,double>,Eigen::Map<Eigen::Matrix<unsigned char,28,28,0,28,28>,0,Eigen::Stride<0,0> > const > const ,Eigen::CwiseNullaryOp<Eigen::internal::scalar_constant_op<double>,Eigen::Matrix<double,28,28,0,28,28> const > const > >::derived
PUBLIC	??$exchange@PEAV_Facet_base@std@@$$T@std@@YAPEAV_Facet_base@0@AEAPEAV10@$$QEA$$T@Z ; std::exchange<std::_Facet_base *,std::nullptr_t>
PUBLIC	??$_Allocate_manually_vector_aligned@U_Default_allocate_traits@std@@@std@@YAPEAX_K@Z ; std::_Allocate_manually_vector_aligned<std::_Default_allocate_traits>
PUBLIC	??$_Voidify_iter@PEAPEAD@std@@YAPEAXPEAPEAD@Z	; std::_Voidify_iter<char * *>
PUBLIC	??$construct_at@PEADAEBQEADX@std@@YAPEAPEADQEAPEADAEBQEAD@Z ; std::construct_at<char *,char * const &,void>
PUBLIC	??$forward@AEBQEAD@std@@YAAEBQEADAEBQEAD@Z	; std::forward<char * const &>
PUBLIC	??$addressof@PEAD@std@@YAPEAPEADAEAPEAD@Z	; std::addressof<char *>
PUBLIC	??$_set@V?$CwiseBinaryOp@U?$scalar_quotient_op@NN@internal@Eigen@@$$CBV?$CwiseUnaryOp@U?$scalar_cast_op@EN@internal@Eigen@@$$CBV?$Map@V?$Matrix@E$0BM@$0BM@$0A@$0BM@$0BM@@Eigen@@$0A@V?$Stride@$0A@$0A@@2@@3@@3@$$CBV?$CwiseNullaryOp@U?$scalar_constant_op@N@internal@Eigen@@$$CBV?$Matrix@N$0BM@$0BM@$0A@$0BM@$0BM@@3@@3@@Eigen@@@?$PlainObjectBase@V?$Matrix@N$0BM@$0BM@$0A@$0BM@$0BM@@Eigen@@@Eigen@@IEAAAEAV?$Matrix@N$0BM@$0BM@$0A@$0BM@$0BM@@1@AEBV?$DenseBase@V?$CwiseBinaryOp@U?$scalar_quotient_op@NN@internal@Eigen@@$$CBV?$CwiseUnaryOp@U?$scalar_cast_op@EN@internal@Eigen@@$$CBV?$Map@V?$Matrix@E$0BM@$0BM@$0A@$0BM@$0BM@@Eigen@@$0A@V?$Stride@$0A@$0A@@2@@3@@3@$$CBV?$CwiseNullaryOp@U?$scalar_constant_op@N@internal@Eigen@@$$CBV?$Matrix@N$0BM@$0BM@$0A@$0BM@$0BM@@3@@3@@Eigen@@@1@@Z ; Eigen::PlainObjectBase<Eigen::Matrix<double,28,28,0,28,28> >::_set<Eigen::CwiseBinaryOp<Eigen::internal::scalar_quotient_op<double,double>,Eigen::CwiseUnaryOp<Eigen::internal::scalar_cast_op<unsigned char,double>,Eigen::Map<Eigen::Matrix<unsigned char,28,28,0,28,28>,0,Eigen::Stride<0,0> > const > const ,Eigen::CwiseNullaryOp<Eigen::internal::scalar_constant_op<double>,Eigen::Matrix<double,28,28,0,28,28> const > const > >
PUBLIC	??$?0U?$default_delete@V_Facet_base@std@@@std@@$0A@@?$unique_ptr@V_Facet_base@std@@U?$default_delete@V_Facet_base@std@@@2@@std@@QEAA@PEAV_Facet_base@1@@Z ; std::unique_ptr<std::_Facet_base,std::default_delete<std::_Facet_base> >::unique_ptr<std::_Facet_base,std::default_delete<std::_Facet_base> ><std::default_delete<std::_Facet_base>,0>
PUBLIC	??$forward@AEBD@std@@YAAEBDAEBD@Z		; std::forward<char const &>
PUBLIC	??$_Voidify_iter@PEAD@std@@YAPEAXPEAD@Z		; std::_Voidify_iter<char *>
PUBLIC	?value@?$variable_if_dynamic@_J$0BM@@internal@Eigen@@SA_JXZ ; Eigen::internal::variable_if_dynamic<__int64,28>::value
PUBLIC	??0_Bxty@?$_String_val@U?$_Simple_types@D@std@@@std@@QEAA@XZ ; std::_String_val<std::_Simple_types<char> >::_Bxty::_Bxty
PUBLIC	?_Calculate_growth@?$basic_string@DU?$char_traits@D@std@@V?$allocator@D@2@@std@@CA_K_K00@Z ; std::basic_string<char,std::char_traits<char>,std::allocator<char> >::_Calculate_growth
PUBLIC	?rows@?$MapBase@V?$Map@V?$Matrix@E$0BM@$0BM@$0A@$0BM@$0BM@@Eigen@@$0A@V?$Stride@$0A@$0A@@2@@Eigen@@$0A@@Eigen@@QEBA_JXZ ; Eigen::MapBase<Eigen::Map<Eigen::Matrix<unsigned char,28,28,0,28,28>,0,Eigen::Stride<0,0> >,0>::rows
PUBLIC	?cols@?$MapBase@V?$Map@V?$Matrix@E$0BM@$0BM@$0A@$0BM@$0BM@@Eigen@@$0A@V?$Stride@$0A@$0A@@2@@Eigen@@$0A@@Eigen@@QEBA_JXZ ; Eigen::MapBase<Eigen::Map<Eigen::Matrix<unsigned char,28,28,0,28,28>,0,Eigen::Stride<0,0> >,0>::cols
PUBLIC	??0?$DenseBase@V?$CwiseUnaryOp@U?$scalar_cast_op@EN@internal@Eigen@@$$CBV?$Map@V?$Matrix@E$0BM@$0BM@$0A@$0BM@$0BM@@Eigen@@$0A@V?$Stride@$0A@$0A@@2@@3@@Eigen@@@Eigen@@IEAA@XZ ; Eigen::DenseBase<Eigen::CwiseUnaryOp<Eigen::internal::scalar_cast_op<unsigned char,double>,Eigen::Map<Eigen::Matrix<unsigned char,28,28,0,28,28>,0,Eigen::Stride<0,0> > const > >::DenseBase<Eigen::CwiseUnaryOp<Eigen::internal::scalar_cast_op<unsigned char,double>,Eigen::Map<Eigen::Matrix<unsigned char,28,28,0,28,28>,0,Eigen::Stride<0,0> > const > >
PUBLIC	??0?$DenseBase@V?$CwiseNullaryOp@U?$scalar_constant_op@N@internal@Eigen@@$$CBV?$Matrix@N$0BM@$0BM@$0A@$0BM@$0BM@@3@@Eigen@@@Eigen@@IEAA@XZ ; Eigen::DenseBase<Eigen::CwiseNullaryOp<Eigen::internal::scalar_constant_op<double>,Eigen::Matrix<double,28,28,0,28,28> const > >::DenseBase<Eigen::CwiseNullaryOp<Eigen::internal::scalar_constant_op<double>,Eigen::Matrix<double,28,28,0,28,28> const > >
PUBLIC	?rows@?$CwiseNullaryOp@U?$scalar_constant_op@N@internal@Eigen@@$$CBV?$Matrix@N$0BM@$0BM@$0A@$0BM@$0BM@@3@@Eigen@@QEBA_JXZ ; Eigen::CwiseNullaryOp<Eigen::internal::scalar_constant_op<double>,Eigen::Matrix<double,28,28,0,28,28> const >::rows
PUBLIC	?cols@?$CwiseNullaryOp@U?$scalar_constant_op@N@internal@Eigen@@$$CBV?$Matrix@N$0BM@$0BM@$0A@$0BM@$0BM@@3@@Eigen@@QEBA_JXZ ; Eigen::CwiseNullaryOp<Eigen::internal::scalar_constant_op<double>,Eigen::Matrix<double,28,28,0,28,28> const >::cols
PUBLIC	??0?$scalar_constant_op@N@internal@Eigen@@QEAA@AEBU012@@Z ; Eigen::internal::scalar_constant_op<double>::scalar_constant_op<double>
PUBLIC	??0?$DenseBase@V?$CwiseBinaryOp@U?$scalar_quotient_op@NN@internal@Eigen@@$$CBV?$CwiseUnaryOp@U?$scalar_cast_op@EN@internal@Eigen@@$$CBV?$Map@V?$Matrix@E$0BM@$0BM@$0A@$0BM@$0BM@@Eigen@@$0A@V?$Stride@$0A@$0A@@2@@3@@3@$$CBV?$CwiseNullaryOp@U?$scalar_constant_op@N@internal@Eigen@@$$CBV?$Matrix@N$0BM@$0BM@$0A@$0BM@$0BM@@3@@3@@Eigen@@@Eigen@@IEAA@XZ ; Eigen::DenseBase<Eigen::CwiseBinaryOp<Eigen::internal::scalar_quotient_op<double,double>,Eigen::CwiseUnaryOp<Eigen::internal::scalar_cast_op<unsigned char,double>,Eigen::Map<Eigen::Matrix<unsigned char,28,28,0,28,28>,0,Eigen::Stride<0,0> > const > const ,Eigen::CwiseNullaryOp<Eigen::internal::scalar_constant_op<double>,Eigen::Matrix<double,28,28,0,28,28> const > const > >::DenseBase<Eigen::CwiseBinaryOp<Eigen::internal::scalar_quotient_op<double,double>,Eigen::CwiseUnaryOp<Eigen::internal::scalar_cast_op<unsigned char,double>,Eigen::Map<Eigen::Matrix<unsigned char,28,28,0,28,28>,0,Eigen::Stride<0,0> > const > const ,Eigen::CwiseNullaryOp<Eigen::internal::scalar_constant_op<double>,Eigen::Matrix<double,28,28,0,28,28> const > const > >
PUBLIC	??R?$default_delete@V_Facet_base@std@@@std@@QEBAXPEAV_Facet_base@1@@Z ; std::default_delete<std::_Facet_base>::operator()
PUBLIC	?_Get_first@?$_Compressed_pair@U?$default_delete@V_Facet_base@std@@@std@@PEAV_Facet_base@2@$00@std@@QEAAAEAU?$default_delete@V_Facet_base@std@@@2@XZ ; std::_Compressed_pair<std::default_delete<std::_Facet_base>,std::_Facet_base *,1>::_Get_first
PUBLIC	??0?$MatrixBase@V?$CwiseUnaryOp@U?$scalar_cast_op@EN@internal@Eigen@@$$CBV?$Map@V?$Matrix@E$0BM@$0BM@$0A@$0BM@$0BM@@Eigen@@$0A@V?$Stride@$0A@$0A@@2@@3@@Eigen@@@Eigen@@IEAA@XZ ; Eigen::MatrixBase<Eigen::CwiseUnaryOp<Eigen::internal::scalar_cast_op<unsigned char,double>,Eigen::Map<Eigen::Matrix<unsigned char,28,28,0,28,28>,0,Eigen::Stride<0,0> > const > >::MatrixBase<Eigen::CwiseUnaryOp<Eigen::internal::scalar_cast_op<unsigned char,double>,Eigen::Map<Eigen::Matrix<unsigned char,28,28,0,28,28>,0,Eigen::Stride<0,0> > const > >
PUBLIC	??0?$CwiseUnaryOpImpl@U?$scalar_cast_op@EN@internal@Eigen@@$$CBV?$Map@V?$Matrix@E$0BM@$0BM@$0A@$0BM@$0BM@@Eigen@@$0A@V?$Stride@$0A@$0A@@2@@3@UDense@3@@Eigen@@QEAA@XZ ; Eigen::CwiseUnaryOpImpl<Eigen::internal::scalar_cast_op<unsigned char,double>,Eigen::Map<Eigen::Matrix<unsigned char,28,28,0,28,28>,0,Eigen::Stride<0,0> > const ,Eigen::Dense>::CwiseUnaryOpImpl<Eigen::internal::scalar_cast_op<unsigned char,double>,Eigen::Map<Eigen::Matrix<unsigned char,28,28,0,28,28>,0,Eigen::Stride<0,0> > const ,Eigen::Dense>
PUBLIC	??0?$MatrixBase@V?$CwiseNullaryOp@U?$scalar_constant_op@N@internal@Eigen@@$$CBV?$Matrix@N$0BM@$0BM@$0A@$0BM@$0BM@@3@@Eigen@@@Eigen@@IEAA@XZ ; Eigen::MatrixBase<Eigen::CwiseNullaryOp<Eigen::internal::scalar_constant_op<double>,Eigen::Matrix<double,28,28,0,28,28> const > >::MatrixBase<Eigen::CwiseNullaryOp<Eigen::internal::scalar_constant_op<double>,Eigen::Matrix<double,28,28,0,28,28> const > >
PUBLIC	??0?$CwiseNullaryOp@U?$scalar_constant_op@N@internal@Eigen@@$$CBV?$Matrix@N$0BM@$0BM@$0A@$0BM@$0BM@@3@@Eigen@@QEAA@AEBV01@@Z ; Eigen::CwiseNullaryOp<Eigen::internal::scalar_constant_op<double>,Eigen::Matrix<double,28,28,0,28,28> const >::CwiseNullaryOp<Eigen::internal::scalar_constant_op<double>,Eigen::Matrix<double,28,28,0,28,28> const >
PUBLIC	??0?$Map@V?$Matrix@E$0BM@$0BM@$0A@$0BM@$0BM@@Eigen@@$0A@V?$Stride@$0A@$0A@@2@@Eigen@@QEAA@AEBV01@@Z ; Eigen::Map<Eigen::Matrix<unsigned char,28,28,0,28,28>,0,Eigen::Stride<0,0> >::Map<Eigen::Matrix<unsigned char,28,28,0,28,28>,0,Eigen::Stride<0,0> >
PUBLIC	??0?$CwiseUnaryOp@U?$scalar_cast_op@EN@internal@Eigen@@$$CBV?$Map@V?$Matrix@E$0BM@$0BM@$0A@$0BM@$0BM@@Eigen@@$0A@V?$Stride@$0A@$0A@@2@@3@@Eigen@@QEAA@AEBV01@@Z ; Eigen::CwiseUnaryOp<Eigen::internal::scalar_cast_op<unsigned char,double>,Eigen::Map<Eigen::Matrix<unsigned char,28,28,0,28,28>,0,Eigen::Stride<0,0> > const >::CwiseUnaryOp<Eigen::internal::scalar_cast_op<unsigned char,double>,Eigen::Map<Eigen::Matrix<unsigned char,28,28,0,28,28>,0,Eigen::Stride<0,0> > const >
PUBLIC	??0?$MatrixBase@V?$CwiseBinaryOp@U?$scalar_quotient_op@NN@internal@Eigen@@$$CBV?$CwiseUnaryOp@U?$scalar_cast_op@EN@internal@Eigen@@$$CBV?$Map@V?$Matrix@E$0BM@$0BM@$0A@$0BM@$0BM@@Eigen@@$0A@V?$Stride@$0A@$0A@@2@@3@@3@$$CBV?$CwiseNullaryOp@U?$scalar_constant_op@N@internal@Eigen@@$$CBV?$Matrix@N$0BM@$0BM@$0A@$0BM@$0BM@@3@@3@@Eigen@@@Eigen@@IEAA@XZ ; Eigen::MatrixBase<Eigen::CwiseBinaryOp<Eigen::internal::scalar_quotient_op<double,double>,Eigen::CwiseUnaryOp<Eigen::internal::scalar_cast_op<unsigned char,double>,Eigen::Map<Eigen::Matrix<unsigned char,28,28,0,28,28>,0,Eigen::Stride<0,0> > const > const ,Eigen::CwiseNullaryOp<Eigen::internal::scalar_constant_op<double>,Eigen::Matrix<double,28,28,0,28,28> const > const > >::MatrixBase<Eigen::CwiseBinaryOp<Eigen::internal::scalar_quotient_op<double,double>,Eigen::CwiseUnaryOp<Eigen::internal::scalar_cast_op<unsigned char,double>,Eigen::Map<Eigen::Matrix<unsigned char,28,28,0,28,28>,0,Eigen::Stride<0,0> > const > const ,Eigen::CwiseNullaryOp<Eigen::internal::scalar_constant_op<double>,Eigen::Matrix<double,28,28,0,28,28> const > const > >
PUBLIC	??0?$CwiseBinaryOpImpl@U?$scalar_quotient_op@NN@internal@Eigen@@$$CBV?$CwiseUnaryOp@U?$scalar_cast_op@EN@internal@Eigen@@$$CBV?$Map@V?$Matrix@E$0BM@$0BM@$0A@$0BM@$0BM@@Eigen@@$0A@V?$Stride@$0A@$0A@@2@@3@@3@$$CBV?$CwiseNullaryOp@U?$scalar_constant_op@N@internal@Eigen@@$$CBV?$Matrix@N$0BM@$0BM@$0A@$0BM@$0BM@@3@@3@UDense@3@@Eigen@@QEAA@XZ ; Eigen::CwiseBinaryOpImpl<Eigen::internal::scalar_quotient_op<double,double>,Eigen::CwiseUnaryOp<Eigen::internal::scalar_cast_op<unsigned char,double>,Eigen::Map<Eigen::Matrix<unsigned char,28,28,0,28,28>,0,Eigen::Stride<0,0> > const > const ,Eigen::CwiseNullaryOp<Eigen::internal::scalar_constant_op<double>,Eigen::Matrix<double,28,28,0,28,28> const > const ,Eigen::Dense>::CwiseBinaryOpImpl<Eigen::internal::scalar_quotient_op<double,double>,Eigen::CwiseUnaryOp<Eigen::internal::scalar_cast_op<unsigned char,double>,Eigen::Map<Eigen::Matrix<unsigned char,28,28,0,28,28>,0,Eigen::Stride<0,0> > const > const ,Eigen::CwiseNullaryOp<Eigen::internal::scalar_constant_op<double>,Eigen::Matrix<double,28,28,0,28,28> const > const ,Eigen::Dense>
PUBLIC	??0?$allocator@D@std@@QEAA@XZ			; std::allocator<char>::allocator<char>
PUBLIC	??0?$_String_val@U?$_Simple_types@D@std@@@std@@QEAA@XZ ; std::_String_val<std::_Simple_types<char> >::_String_val<std::_Simple_types<char> >
PUBLIC	?_Calculate_growth@?$basic_string@DU?$char_traits@D@std@@V?$allocator@D@2@@std@@AEBA_K_K@Z ; std::basic_string<char,std::char_traits<char>,std::allocator<char> >::_Calculate_growth
PUBLIC	?derived@?$EigenBase@V?$Map@V?$Matrix@E$0BM@$0BM@$0A@$0BM@$0BM@@Eigen@@$0A@V?$Stride@$0A@$0A@@2@@Eigen@@@Eigen@@QEBAAEBV?$Map@V?$Matrix@E$0BM@$0BM@$0A@$0BM@$0BM@@Eigen@@$0A@V?$Stride@$0A@$0A@@2@@2@XZ ; Eigen::EigenBase<Eigen::Map<Eigen::Matrix<unsigned char,28,28,0,28,28>,0,Eigen::Stride<0,0> > >::derived
PUBLIC	?derived@?$EigenBase@V?$CwiseUnaryOp@U?$scalar_cast_op@EN@internal@Eigen@@$$CBV?$Map@V?$Matrix@E$0BM@$0BM@$0A@$0BM@$0BM@@Eigen@@$0A@V?$Stride@$0A@$0A@@2@@3@@Eigen@@@Eigen@@QEBAAEBV?$CwiseUnaryOp@U?$scalar_cast_op@EN@internal@Eigen@@$$CBV?$Map@V?$Matrix@E$0BM@$0BM@$0A@$0BM@$0BM@@Eigen@@$0A@V?$Stride@$0A@$0A@@2@@3@@2@XZ ; Eigen::EigenBase<Eigen::CwiseUnaryOp<Eigen::internal::scalar_cast_op<unsigned char,double>,Eigen::Map<Eigen::Matrix<unsigned char,28,28,0,28,28>,0,Eigen::Stride<0,0> > const > >::derived
PUBLIC	??0?$CwiseUnaryOp@U?$scalar_cast_op@EN@internal@Eigen@@$$CBV?$Map@V?$Matrix@E$0BM@$0BM@$0A@$0BM@$0BM@@Eigen@@$0A@V?$Stride@$0A@$0A@@2@@3@@Eigen@@QEAA@AEBV?$Map@V?$Matrix@E$0BM@$0BM@$0A@$0BM@$0BM@@Eigen@@$0A@V?$Stride@$0A@$0A@@2@@1@AEBU?$scalar_cast_op@EN@internal@1@@Z ; Eigen::CwiseUnaryOp<Eigen::internal::scalar_cast_op<unsigned char,double>,Eigen::Map<Eigen::Matrix<unsigned char,28,28,0,28,28>,0,Eigen::Stride<0,0> > const >::CwiseUnaryOp<Eigen::internal::scalar_cast_op<unsigned char,double>,Eigen::Map<Eigen::Matrix<unsigned char,28,28,0,28,28>,0,Eigen::Stride<0,0> > const >
PUBLIC	?rows@?$CwiseUnaryOp@U?$scalar_cast_op@EN@internal@Eigen@@$$CBV?$Map@V?$Matrix@E$0BM@$0BM@$0A@$0BM@$0BM@@Eigen@@$0A@V?$Stride@$0A@$0A@@2@@3@@Eigen@@QEBA_JXZ ; Eigen::CwiseUnaryOp<Eigen::internal::scalar_cast_op<unsigned char,double>,Eigen::Map<Eigen::Matrix<unsigned char,28,28,0,28,28>,0,Eigen::Stride<0,0> > const >::rows
PUBLIC	?cols@?$CwiseUnaryOp@U?$scalar_cast_op@EN@internal@Eigen@@$$CBV?$Map@V?$Matrix@E$0BM@$0BM@$0A@$0BM@$0BM@@Eigen@@$0A@V?$Stride@$0A@$0A@@2@@3@@Eigen@@QEBA_JXZ ; Eigen::CwiseUnaryOp<Eigen::internal::scalar_cast_op<unsigned char,double>,Eigen::Map<Eigen::Matrix<unsigned char,28,28,0,28,28>,0,Eigen::Stride<0,0> > const >::cols
PUBLIC	??0?$CwiseNullaryOp@U?$scalar_constant_op@N@internal@Eigen@@$$CBV?$Matrix@N$0BM@$0BM@$0A@$0BM@$0BM@@3@@Eigen@@QEAA@_J0AEBU?$scalar_constant_op@N@internal@1@@Z ; Eigen::CwiseNullaryOp<Eigen::internal::scalar_constant_op<double>,Eigen::Matrix<double,28,28,0,28,28> const >::CwiseNullaryOp<Eigen::internal::scalar_constant_op<double>,Eigen::Matrix<double,28,28,0,28,28> const >
PUBLIC	??0?$scalar_constant_op@N@internal@Eigen@@QEAA@AEBN@Z ; Eigen::internal::scalar_constant_op<double>::scalar_constant_op<double>
PUBLIC	??0?$CwiseBinaryOp@U?$scalar_quotient_op@NN@internal@Eigen@@$$CBV?$CwiseUnaryOp@U?$scalar_cast_op@EN@internal@Eigen@@$$CBV?$Map@V?$Matrix@E$0BM@$0BM@$0A@$0BM@$0BM@@Eigen@@$0A@V?$Stride@$0A@$0A@@2@@3@@3@$$CBV?$CwiseNullaryOp@U?$scalar_constant_op@N@internal@Eigen@@$$CBV?$Matrix@N$0BM@$0BM@$0A@$0BM@$0BM@@3@@3@@Eigen@@QEAA@AEBV?$CwiseUnaryOp@U?$scalar_cast_op@EN@internal@Eigen@@$$CBV?$Map@V?$Matrix@E$0BM@$0BM@$0A@$0BM@$0BM@@Eigen@@$0A@V?$Stride@$0A@$0A@@2@@3@@1@AEBV?$CwiseNullaryOp@U?$scalar_constant_op@N@internal@Eigen@@$$CBV?$Matrix@N$0BM@$0BM@$0A@$0BM@$0BM@@3@@1@AEBU?$scalar_quotient_op@NN@internal@1@@Z ; Eigen::CwiseBinaryOp<Eigen::internal::scalar_quotient_op<double,double>,Eigen::CwiseUnaryOp<Eigen::internal::scalar_cast_op<unsigned char,double>,Eigen::Map<Eigen::Matrix<unsigned char,28,28,0,28,28>,0,Eigen::Stride<0,0> > const > const ,Eigen::CwiseNullaryOp<Eigen::internal::scalar_constant_op<double>,Eigen::Matrix<double,28,28,0,28,28> const > const >::CwiseBinaryOp<Eigen::internal::scalar_quotient_op<double,double>,Eigen::CwiseUnaryOp<Eigen::internal::scalar_cast_op<unsigned char,double>,Eigen::Map<Eigen::Matrix<unsigned char,28,28,0,28,28>,0,Eigen::Stride<0,0> > const > const ,Eigen::CwiseNullaryOp<Eigen::internal::scalar_constant_op<double>,Eigen::Matrix<double,28,28,0,28,28> const > const >
PUBLIC	??1?$unique_ptr@V_Facet_base@std@@U?$default_delete@V_Facet_base@std@@@2@@std@@QEAA@XZ ; std::unique_ptr<std::_Facet_base,std::default_delete<std::_Facet_base> >::~unique_ptr<std::_Facet_base,std::default_delete<std::_Facet_base> >
PUBLIC	?release@?$unique_ptr@V_Facet_base@std@@U?$default_delete@V_Facet_base@std@@@2@@std@@QEAAPEAV_Facet_base@2@XZ ; std::unique_ptr<std::_Facet_base,std::default_delete<std::_Facet_base> >::release
PUBLIC	?__autoclassinit2@?$unique_ptr@V_Facet_base@std@@U?$default_delete@V_Facet_base@std@@@2@@std@@QEAAX_K@Z ; std::unique_ptr<std::_Facet_base,std::default_delete<std::_Facet_base> >::__autoclassinit2
PUBLIC	??$check_static_allocation_size@N$0DBA@@internal@Eigen@@YAXXZ ; Eigen::internal::check_static_allocation_size<double,784>
PUBLIC	??$ignore_unused_variable@_J@internal@Eigen@@YAXAEB_J@Z ; Eigen::internal::ignore_unused_variable<__int64>
PUBLIC	??$construct_at@DAEBDX@std@@YAPEADQEADAEBD@Z	; std::construct_at<char,char const &,void>
PUBLIC	??$checkSanity@V?$Map@V?$Matrix@E$0BM@$0BM@$0A@$0BM@$0BM@@Eigen@@$0A@V?$Stride@$0A@$0A@@2@@Eigen@@@?$MapBase@V?$Map@V?$Matrix@E$0BM@$0BM@$0A@$0BM@$0BM@@Eigen@@$0A@V?$Stride@$0A@$0A@@2@@Eigen@@$0A@@Eigen@@IEBAXPEAX@Z ; Eigen::MapBase<Eigen::Map<Eigen::Matrix<unsigned char,28,28,0,28,28>,0,Eigen::Stride<0,0> >,0>::checkSanity<Eigen::Map<Eigen::Matrix<unsigned char,28,28,0,28,28>,0,Eigen::Stride<0,0> > >
PUBLIC	??$_Deallocate@$0BA@$0A@@std@@YAXPEAX_K@Z	; std::_Deallocate<16,0>
PUBLIC	??$_Allocate@$0BA@U_Default_allocate_traits@std@@$0A@@std@@YAPEAX_K@Z ; std::_Allocate<16,std::_Default_allocate_traits,0>
PUBLIC	??$_Get_size_of_n@$00@std@@YA_K_K@Z		; std::_Get_size_of_n<1>
PUBLIC	??$_Construct_in_place@PEADAEBQEAD@std@@YAXAEAPEADAEBQEAD@Z ; std::_Construct_in_place<char *,char * const &>
PUBLIC	??$_Reallocate_grow_by@V<lambda_1>@?1??push_back@?$basic_string@DU?$char_traits@D@std@@V?$allocator@D@2@@std@@QEAAXD@Z@D@?$basic_string@DU?$char_traits@D@std@@V?$allocator@D@2@@std@@AEAAAEAV01@_KV<lambda_1>@?1??push_back@01@QEAAXD@Z@D@Z ; std::basic_string<char,std::char_traits<char>,std::allocator<char> >::_Reallocate_grow_by<`std::basic_string<char,std::char_traits<char>,std::allocator<char> >::push_back'::`2'::<lambda_1>,char>
PUBLIC	??$_Destroy_in_place@PEAD@std@@YAXAEAPEAD@Z	; std::_Destroy_in_place<char *>
PUBLIC	??$addressof@$$CBV?$codecvt@DDU_Mbstatet@@@std@@@std@@YAPEBV?$codecvt@DDU_Mbstatet@@@0@AEBV10@@Z ; std::addressof<std::codecvt<char,char,_Mbstatet> const >
PUBLIC	??$?0$$V@?$_Compressed_pair@V?$allocator@D@std@@V?$_String_val@U?$_Simple_types@D@std@@@2@$00@std@@QEAA@U_Zero_then_variadic_args_t@1@@Z ; std::_Compressed_pair<std::allocator<char>,std::_String_val<std::_Simple_types<char> >,1>::_Compressed_pair<std::allocator<char>,std::_String_val<std::_Simple_types<char> >,1><>
PUBLIC	??$_Unfancy@D@std@@YAPEADPEAD@Z			; std::_Unfancy<char>
PUBLIC	??$addressof@V?$basic_filebuf@DU?$char_traits@D@std@@@std@@@std@@YAPEAV?$basic_filebuf@DU?$char_traits@D@std@@@0@AEAV10@@Z ; std::addressof<std::basic_filebuf<char,std::char_traits<char> > >
PUBLIC	??$use_facet@V?$codecvt@DDU_Mbstatet@@@std@@@std@@YAAEBV?$codecvt@DDU_Mbstatet@@@0@AEBVlocale@0@@Z ; std::use_facet<std::codecvt<char,char,_Mbstatet> >
PUBLIC	??$?4V?$CwiseBinaryOp@U?$scalar_quotient_op@NN@internal@Eigen@@$$CBV?$CwiseUnaryOp@U?$scalar_cast_op@EN@internal@Eigen@@$$CBV?$Map@V?$Matrix@E$0BM@$0BM@$0A@$0BM@$0BM@@Eigen@@$0A@V?$Stride@$0A@$0A@@2@@3@@3@$$CBV?$CwiseNullaryOp@U?$scalar_constant_op@N@internal@Eigen@@$$CBV?$Matrix@N$0BM@$0BM@$0A@$0BM@$0BM@@3@@3@@Eigen@@@?$Matrix@N$0BM@$0BM@$0A@$0BM@$0BM@@Eigen@@QEAAAEAV01@AEBV?$DenseBase@V?$CwiseBinaryOp@U?$scalar_quotient_op@NN@internal@Eigen@@$$CBV?$CwiseUnaryOp@U?$scalar_cast_op@EN@internal@Eigen@@$$CBV?$Map@V?$Matrix@E$0BM@$0BM@$0A@$0BM@$0BM@@Eigen@@$0A@V?$Stride@$0A@$0A@@2@@3@@3@$$CBV?$CwiseNullaryOp@U?$scalar_constant_op@N@internal@Eigen@@$$CBV?$Matrix@N$0BM@$0BM@$0A@$0BM@$0BM@@3@@3@@Eigen@@@1@@Z ; Eigen::Matrix<double,28,28,0,28,28>::operator=<Eigen::CwiseBinaryOp<Eigen::internal::scalar_quotient_op<double,double>,Eigen::CwiseUnaryOp<Eigen::internal::scalar_cast_op<unsigned char,double>,Eigen::Map<Eigen::Matrix<unsigned char,28,28,0,28,28>,0,Eigen::Stride<0,0> > const > const ,Eigen::CwiseNullaryOp<Eigen::internal::scalar_constant_op<double>,Eigen::Matrix<double,28,28,0,28,28> const > const > >
PUBLIC	??$?KH@?$MatrixBase@V?$CwiseUnaryOp@U?$scalar_cast_op@EN@internal@Eigen@@$$CBV?$Map@V?$Matrix@E$0BM@$0BM@$0A@$0BM@$0BM@@Eigen@@$0A@V?$Stride@$0A@$0A@@2@@3@@Eigen@@@Eigen@@QEBA?BV?$CwiseBinaryOp@U?$scalar_quotient_op@NN@internal@Eigen@@$$CBV?$CwiseUnaryOp@U?$scalar_cast_op@EN@internal@Eigen@@$$CBV?$Map@V?$Matrix@E$0BM@$0BM@$0A@$0BM@$0BM@@Eigen@@$0A@V?$Stride@$0A@$0A@@2@@3@@3@$$CBV?$CwiseNullaryOp@U?$scalar_constant_op@N@internal@Eigen@@$$CBV?$Matrix@N$0BM@$0BM@$0A@$0BM@$0BM@@3@@3@@1@AEBH@Z ; Eigen::MatrixBase<Eigen::CwiseUnaryOp<Eigen::internal::scalar_cast_op<unsigned char,double>,Eigen::Map<Eigen::Matrix<unsigned char,28,28,0,28,28>,0,Eigen::Stride<0,0> > const > >::operator/<int>
PUBLIC	??$cast@N@?$DenseBase@V?$Map@V?$Matrix@E$0BM@$0BM@$0A@$0BM@$0BM@@Eigen@@$0A@V?$Stride@$0A@$0A@@2@@Eigen@@@Eigen@@QEBA?BV?$CwiseUnaryOp@U?$scalar_cast_op@EN@internal@Eigen@@$$CBV?$Map@V?$Matrix@E$0BM@$0BM@$0A@$0BM@$0BM@@Eigen@@$0A@V?$Stride@$0A@$0A@@2@@3@@1@XZ ; Eigen::DenseBase<Eigen::Map<Eigen::Matrix<unsigned char,28,28,0,28,28>,0,Eigen::Stride<0,0> > >::cast<double>
PUBLIC	?size@?$EigenBase@V?$Matrix@N$0BM@$0BM@$0A@$0BM@$0BM@@Eigen@@@Eigen@@QEBA_JXZ ; Eigen::EigenBase<Eigen::Matrix<double,28,28,0,28,28> >::size
PUBLIC	?innerSize@?$DenseBase@V?$Matrix@N$0BM@$0BM@$0A@$0BM@$0BM@@Eigen@@@Eigen@@QEBA_JXZ ; Eigen::DenseBase<Eigen::Matrix<double,28,28,0,28,28> >::innerSize
PUBLIC	?data@?$DenseStorage@N$0DBA@$0BM@$0BM@$0A@@Eigen@@QEBAPEBNXZ ; Eigen::DenseStorage<double,784,28,28,0>::data
PUBLIC	?outerStride@?$Matrix@N$0BM@$0BM@$0A@$0BM@$0BM@@Eigen@@QEBA_JXZ ; Eigen::Matrix<double,28,28,0,28,28>::outerStride
PUBLIC	?outerStride@?$DenseCoeffsBase@V?$Matrix@N$0BM@$0BM@$0A@$0BM@$0BM@@Eigen@@$02@Eigen@@QEBA_JXZ ; Eigen::DenseCoeffsBase<Eigen::Matrix<double,28,28,0,28,28>,3>::outerStride
PUBLIC	??0?$plain_array@N$0DBA@$0A@$0CA@@internal@Eigen@@QEAA@XZ ; Eigen::internal::plain_array<double,784,0,32>::plain_array<double,784,0,32>
PUBLIC	?data@?$PlainObjectBase@V?$Matrix@N$0BM@$0BM@$0A@$0BM@$0BM@@Eigen@@@Eigen@@QEBAPEBNXZ ; Eigen::PlainObjectBase<Eigen::Matrix<double,28,28,0,28,28> >::data
PUBLIC	??0?$evaluator_base@V?$Matrix@N$0BM@$0BM@$0A@$0BM@$0BM@@Eigen@@@internal@Eigen@@QEAA@XZ ; Eigen::internal::evaluator_base<Eigen::Matrix<double,28,28,0,28,28> >::evaluator_base<Eigen::Matrix<double,28,28,0,28,28> >
PUBLIC	??0?$plainobjectbase_evaluator_data@N$0BM@@internal@Eigen@@QEAA@PEBN_J@Z ; Eigen::internal::plainobjectbase_evaluator_data<double,28>::plainobjectbase_evaluator_data<double,28>
PUBLIC	?assign@?$_Char_traits@DH@std@@SAPEADQEAD_KD@Z	; std::_Char_traits<char,int>::assign
PUBLIC	?max_size@?$_Default_allocator_traits@V?$allocator@D@std@@@std@@SA_KAEBV?$allocator@D@2@@Z ; std::_Default_allocator_traits<std::allocator<char> >::max_size
PUBLIC	?_Xran@?$_String_val@U?$_Simple_types@D@std@@@std@@SAXXZ ; std::_String_val<std::_Simple_types<char> >::_Xran
PUBLIC	?_Clamp_suffix_size@?$_String_val@U?$_Simple_types@D@std@@@std@@QEBA_K_K0@Z ; std::_String_val<std::_Simple_types<char> >::_Clamp_suffix_size
PUBLIC	?value@?$variable_if_dynamic@_J$0A@@internal@Eigen@@SA_JXZ ; Eigen::internal::variable_if_dynamic<__int64,0>::value
PUBLIC	??0?$DenseBase@V?$Map@V?$Matrix@E$0BM@$0BM@$0A@$0BM@$0BM@@Eigen@@$0A@V?$Stride@$0A@$0A@@2@@Eigen@@@Eigen@@IEAA@XZ ; Eigen::DenseBase<Eigen::Map<Eigen::Matrix<unsigned char,28,28,0,28,28>,0,Eigen::Stride<0,0> > >::DenseBase<Eigen::Map<Eigen::Matrix<unsigned char,28,28,0,28,28>,0,Eigen::Stride<0,0> > >
PUBLIC	??0?$variable_if_dynamic@_J$0BM@@internal@Eigen@@QEAA@_J@Z ; Eigen::internal::variable_if_dynamic<__int64,28>::variable_if_dynamic<__int64,28>
PUBLIC	??0?$DenseBase@V?$Matrix@N$0BM@$0BM@$0A@$0BM@$0BM@@Eigen@@@Eigen@@IEAA@XZ ; Eigen::DenseBase<Eigen::Matrix<double,28,28,0,28,28> >::DenseBase<Eigen::Matrix<double,28,28,0,28,28> >
PUBLIC	??0?$DenseStorage@N$0DBA@$0BM@$0BM@$0A@@Eigen@@QEAA@XZ ; Eigen::DenseStorage<double,784,28,28,0>::DenseStorage<double,784,28,28,0>
PUBLIC	?rows@?$DenseStorage@N$0DBA@$0BM@$0BM@$0A@@Eigen@@SA_JXZ ; Eigen::DenseStorage<double,784,28,28,0>::rows
PUBLIC	?cols@?$DenseStorage@N$0DBA@$0BM@$0BM@$0A@@Eigen@@SA_JXZ ; Eigen::DenseStorage<double,784,28,28,0>::cols
PUBLIC	??0?$evaluator@V?$PlainObjectBase@V?$Matrix@N$0BM@$0BM@$0A@$0BM@$0BM@@Eigen@@@Eigen@@@internal@Eigen@@QEAA@AEBV?$PlainObjectBase@V?$Matrix@N$0BM@$0BM@$0A@$0BM@$0BM@@Eigen@@@2@@Z ; Eigen::internal::evaluator<Eigen::PlainObjectBase<Eigen::Matrix<double,28,28,0,28,28> > >::evaluator<Eigen::PlainObjectBase<Eigen::Matrix<double,28,28,0,28,28> > >
PUBLIC	?outerStride@?$plainobjectbase_evaluator_data@N$0BM@@internal@Eigen@@QEBA_JXZ ; Eigen::internal::plainobjectbase_evaluator_data<double,28>::outerStride
PUBLIC	??0?$MatrixBase@V?$Map@V?$Matrix@E$0BM@$0BM@$0A@$0BM@$0BM@@Eigen@@$0A@V?$Stride@$0A@$0A@@2@@Eigen@@@Eigen@@IEAA@XZ ; Eigen::MatrixBase<Eigen::Map<Eigen::Matrix<unsigned char,28,28,0,28,28>,0,Eigen::Stride<0,0> > >::MatrixBase<Eigen::Map<Eigen::Matrix<unsigned char,28,28,0,28,28>,0,Eigen::Stride<0,0> > >
PUBLIC	??0?$MatrixBase@V?$Matrix@N$0BM@$0BM@$0A@$0BM@$0BM@@Eigen@@@Eigen@@IEAA@XZ ; Eigen::MatrixBase<Eigen::Matrix<double,28,28,0,28,28> >::MatrixBase<Eigen::Matrix<double,28,28,0,28,28> >
PUBLIC	?move@?$_Char_traits@DH@std@@SAPEADQEADQEBD_K@Z	; std::_Char_traits<char,int>::move
PUBLIC	?assign@?$_Narrow_char_traits@DH@std@@SAPEADQEAD_KD@Z ; std::_Narrow_char_traits<char,int>::assign
PUBLIC	?assign@?$_Narrow_char_traits@DH@std@@SAXAEADAEBD@Z ; std::_Narrow_char_traits<char,int>::assign
PUBLIC	?_Check_offset@?$_String_val@U?$_Simple_types@D@std@@@std@@QEBAX_K@Z ; std::_String_val<std::_Simple_types<char> >::_Check_offset
PUBLIC	?_Erase_noexcept@?$basic_string@DU?$char_traits@D@std@@V?$allocator@D@2@@std@@AEAAAEAV12@_K_K@Z ; std::basic_string<char,std::char_traits<char>,std::allocator<char> >::_Erase_noexcept
PUBLIC	?max_size@?$basic_string@DU?$char_traits@D@std@@V?$allocator@D@2@@std@@QEBA_KXZ ; std::basic_string<char,std::char_traits<char>,std::allocator<char> >::max_size
PUBLIC	?_Get_first@?$_Compressed_pair@V?$allocator@D@std@@V?$_String_val@U?$_Simple_types@D@std@@@2@$00@std@@QEAAAEAV?$allocator@D@2@XZ ; std::_Compressed_pair<std::allocator<char>,std::_String_val<std::_Simple_types<char> >,1>::_Get_first
PUBLIC	?_Get_first@?$_Compressed_pair@V?$allocator@D@std@@V?$_String_val@U?$_Simple_types@D@std@@@2@$00@std@@QEBAAEBV?$allocator@D@2@XZ ; std::_Compressed_pair<std::allocator<char>,std::_String_val<std::_Simple_types<char> >,1>::_Get_first
PUBLIC	?outer@?$Stride@$0A@$0A@@Eigen@@QEBA_JXZ	; Eigen::Stride<0,0>::outer
PUBLIC	?inner@?$Stride@$0A@$0A@@Eigen@@QEBA_JXZ	; Eigen::Stride<0,0>::inner
PUBLIC	??0?$MapBase@V?$Map@V?$Matrix@E$0BM@$0BM@$0A@$0BM@$0BM@@Eigen@@$0A@V?$Stride@$0A@$0A@@2@@Eigen@@$0A@@Eigen@@QEAA@PEAE@Z ; Eigen::MapBase<Eigen::Map<Eigen::Matrix<unsigned char,28,28,0,28,28>,0,Eigen::Stride<0,0> >,0>::MapBase<Eigen::Map<Eigen::Matrix<unsigned char,28,28,0,28,28>,0,Eigen::Stride<0,0> >,0>
PUBLIC	?derived@?$EigenBase@V?$Matrix@N$0BM@$0BM@$0A@$0BM@$0BM@@Eigen@@@Eigen@@QEAAAEAV?$Matrix@N$0BM@$0BM@$0A@$0BM@$0BM@@2@XZ ; Eigen::EigenBase<Eigen::Matrix<double,28,28,0,28,28> >::derived
PUBLIC	?derived@?$EigenBase@V?$Matrix@N$0BM@$0BM@$0A@$0BM@$0BM@@Eigen@@@Eigen@@QEBAAEBV?$Matrix@N$0BM@$0BM@$0A@$0BM@$0BM@@2@XZ ; Eigen::EigenBase<Eigen::Matrix<double,28,28,0,28,28> >::derived
PUBLIC	?rows@?$PlainObjectBase@V?$Matrix@N$0BM@$0BM@$0A@$0BM@$0BM@@Eigen@@@Eigen@@QEBA_JXZ ; Eigen::PlainObjectBase<Eigen::Matrix<double,28,28,0,28,28> >::rows
PUBLIC	?cols@?$PlainObjectBase@V?$Matrix@N$0BM@$0BM@$0A@$0BM@$0BM@@Eigen@@@Eigen@@QEBA_JXZ ; Eigen::PlainObjectBase<Eigen::Matrix<double,28,28,0,28,28> >::cols
PUBLIC	??0?$PlainObjectBase@V?$Matrix@N$0BM@$0BM@$0A@$0BM@$0BM@@Eigen@@@Eigen@@IEAA@XZ ; Eigen::PlainObjectBase<Eigen::Matrix<double,28,28,0,28,28> >::PlainObjectBase<Eigen::Matrix<double,28,28,0,28,28> >
PUBLIC	?_check_template_params@?$PlainObjectBase@V?$Matrix@N$0BM@$0BM@$0A@$0BM@$0BM@@Eigen@@@Eigen@@SAXXZ ; Eigen::PlainObjectBase<Eigen::Matrix<double,28,28,0,28,28> >::_check_template_params
PUBLIC	??1?$evaluator_base@V?$Matrix@N$0BM@$0BM@$0A@$0BM@$0BM@@Eigen@@@internal@Eigen@@QEAA@XZ ; Eigen::internal::evaluator_base<Eigen::Matrix<double,28,28,0,28,28> >::~evaluator_base<Eigen::Matrix<double,28,28,0,28,28> >
PUBLIC	?coeffRef@?$evaluator@V?$PlainObjectBase@V?$Matrix@N$0BM@$0BM@$0A@$0BM@$0BM@@Eigen@@@Eigen@@@internal@Eigen@@QEAAAEAN_J0@Z ; Eigen::internal::evaluator<Eigen::PlainObjectBase<Eigen::Matrix<double,28,28,0,28,28> > >::coeffRef
PUBLIC	??0?$evaluator@V?$Matrix@N$0BM@$0BM@$0A@$0BM@$0BM@@Eigen@@@internal@Eigen@@QEAA@AEBV?$Matrix@N$0BM@$0BM@$0A@$0BM@$0BM@@2@@Z ; Eigen::internal::evaluator<Eigen::Matrix<double,28,28,0,28,28> >::evaluator<Eigen::Matrix<double,28,28,0,28,28> >
PUBLIC	??1?$evaluator@V?$PlainObjectBase@V?$Matrix@N$0BM@$0BM@$0A@$0BM@$0BM@@Eigen@@@Eigen@@@internal@Eigen@@QEAA@XZ ; Eigen::internal::evaluator<Eigen::PlainObjectBase<Eigen::Matrix<double,28,28,0,28,28> > >::~evaluator<Eigen::PlainObjectBase<Eigen::Matrix<double,28,28,0,28,28> > >
PUBLIC	??1?$evaluator@V?$Matrix@N$0BM@$0BM@$0A@$0BM@$0BM@@Eigen@@@internal@Eigen@@QEAA@XZ ; Eigen::internal::evaluator<Eigen::Matrix<double,28,28,0,28,28> >::~evaluator<Eigen::Matrix<double,28,28,0,28,28> >
PUBLIC	?copy@?$_Char_traits@DH@std@@SAPEADQEADQEBD_K@Z	; std::_Char_traits<char,int>::copy
PUBLIC	?to_int_type@?$_Narrow_char_traits@DH@std@@SAHAEBD@Z ; std::_Narrow_char_traits<char,int>::to_int_type
PUBLIC	?eq_int_type@?$_Narrow_char_traits@DH@std@@SA_NAEBH0@Z ; std::_Narrow_char_traits<char,int>::eq_int_type
PUBLIC	?not_eof@?$_Narrow_char_traits@DH@std@@SAHAEBH@Z ; std::_Narrow_char_traits<char,int>::not_eof
PUBLIC	?eof@?$_Narrow_char_traits@DH@std@@SAHXZ	; std::_Narrow_char_traits<char,int>::eof
PUBLIC	?deallocate@?$allocator@D@std@@QEAAXQEAD_K@Z	; std::allocator<char>::deallocate
PUBLIC	??$max@_K@std@@YAAEB_KAEB_K0@Z			; std::max<unsigned __int64>
PUBLIC	?allocate@?$allocator@D@std@@QEAAPEAD_K@Z	; std::allocator<char>::allocate
PUBLIC	??1_Bxty@?$_String_val@U?$_Simple_types@D@std@@@std@@QEAA@XZ ; std::_String_val<std::_Simple_types<char> >::_Bxty::~_Bxty
PUBLIC	?erase@?$basic_string@DU?$char_traits@D@std@@V?$allocator@D@2@@std@@QEAAAEAV12@_K0@Z ; std::basic_string<char,std::char_traits<char>,std::allocator<char> >::erase
PUBLIC	??R<lambda_1>@?1??push_back@?$basic_string@DU?$char_traits@D@std@@V?$allocator@D@2@@std@@QEAAXD@Z@QEBA@QEADQEBD_KD@Z ; `std::basic_string<char,std::char_traits<char>,std::allocator<char> >::push_back'::`2'::<lambda_1>::operator()
PUBLIC	?push_back@?$basic_string@DU?$char_traits@D@std@@V?$allocator@D@2@@std@@QEAAXD@Z ; std::basic_string<char,std::char_traits<char>,std::allocator<char> >::push_back
PUBLIC	?front@?$basic_string@DU?$char_traits@D@std@@V?$allocator@D@2@@std@@QEAAAEADXZ ; std::basic_string<char,std::char_traits<char>,std::allocator<char> >::front
PUBLIC	?_Tidy_init@?$basic_string@DU?$char_traits@D@std@@V?$allocator@D@2@@std@@AEAAXXZ ; std::basic_string<char,std::char_traits<char>,std::allocator<char> >::_Tidy_init
PUBLIC	?_Tidy_deallocate@?$basic_string@DU?$char_traits@D@std@@V?$allocator@D@2@@std@@AEAAXXZ ; std::basic_string<char,std::char_traits<char>,std::allocator<char> >::_Tidy_deallocate
PUBLIC	?_Getal@?$basic_string@DU?$char_traits@D@std@@V?$allocator@D@2@@std@@AEAAAEAV?$allocator@D@2@XZ ; std::basic_string<char,std::char_traits<char>,std::allocator<char> >::_Getal
PUBLIC	?_Getal@?$basic_string@DU?$char_traits@D@std@@V?$allocator@D@2@@std@@AEBAAEBV?$allocator@D@2@XZ ; std::basic_string<char,std::char_traits<char>,std::allocator<char> >::_Getal
PUBLIC	??0?$variable_if_dynamic@_J$0A@@internal@Eigen@@QEAA@_J@Z ; Eigen::internal::variable_if_dynamic<__int64,0>::variable_if_dynamic<__int64,0>
PUBLIC	??0?$basic_filebuf@DU?$char_traits@D@std@@@std@@QEAA@XZ ; std::basic_filebuf<char,std::char_traits<char> >::basic_filebuf<char,std::char_traits<char> >
PUBLIC	?is_open@?$basic_filebuf@DU?$char_traits@D@std@@@std@@QEBA_NXZ ; std::basic_filebuf<char,std::char_traits<char> >::is_open
PUBLIC	?open@?$basic_filebuf@DU?$char_traits@D@std@@@std@@QEAAPEAV12@PEBDHH@Z ; std::basic_filebuf<char,std::char_traits<char> >::open
PUBLIC	?close@?$basic_filebuf@DU?$char_traits@D@std@@@std@@QEAAPEAV12@XZ ; std::basic_filebuf<char,std::char_traits<char> >::close
PUBLIC	?_Init@?$basic_filebuf@DU?$char_traits@D@std@@@std@@IEAAXPEAU_iobuf@@W4_Initfl@12@@Z ; std::basic_filebuf<char,std::char_traits<char> >::_Init
PUBLIC	?_Endwrite@?$basic_filebuf@DU?$char_traits@D@std@@@std@@IEAA_NXZ ; std::basic_filebuf<char,std::char_traits<char> >::_Endwrite
PUBLIC	?_Initcvt@?$basic_filebuf@DU?$char_traits@D@std@@@std@@IEAAXAEBV?$codecvt@DDU_Mbstatet@@@2@@Z ; std::basic_filebuf<char,std::char_traits<char> >::_Initcvt
PUBLIC	?_Reset_back@?$basic_filebuf@DU?$char_traits@D@std@@@std@@AEAAXXZ ; std::basic_filebuf<char,std::char_traits<char> >::_Reset_back
PUBLIC	?_Set_back@?$basic_filebuf@DU?$char_traits@D@std@@@std@@AEAAXXZ ; std::basic_filebuf<char,std::char_traits<char> >::_Set_back
PUBLIC	??0?$fpos@U_Mbstatet@@@std@@QEAA@U_Mbstatet@@_J@Z ; std::fpos<_Mbstatet>::fpos<_Mbstatet>
PUBLIC	?state@?$fpos@U_Mbstatet@@@std@@QEBA?AU_Mbstatet@@XZ ; std::fpos<_Mbstatet>::state
PUBLIC	?_check_template_params@?$PlainObjectBase@V?$Matrix@E$0BM@$0BM@$0A@$0BM@$0BM@@Eigen@@@Eigen@@SAXXZ ; Eigen::PlainObjectBase<Eigen::Matrix<unsigned char,28,28,0,28,28> >::_check_template_params
PUBLIC	??0?$Stride@$0A@$0A@@Eigen@@QEAA@AEBV01@@Z	; Eigen::Stride<0,0>::Stride<0,0>
PUBLIC	??0?$MapBase@V?$Map@V?$Matrix@E$0BM@$0BM@$0A@$0BM@$0BM@@Eigen@@$0A@V?$Stride@$0A@$0A@@2@@Eigen@@$00@Eigen@@QEAA@PEAE@Z ; Eigen::MapBase<Eigen::Map<Eigen::Matrix<unsigned char,28,28,0,28,28>,0,Eigen::Stride<0,0> >,1>::MapBase<Eigen::Map<Eigen::Matrix<unsigned char,28,28,0,28,28>,0,Eigen::Stride<0,0> >,1>
PUBLIC	?cast_to_pointer_type@?$Map@V?$Matrix@E$0BM@$0BM@$0A@$0BM@$0BM@@Eigen@@$0A@V?$Stride@$0A@$0A@@2@@Eigen@@QEAAPEAEPEAE@Z ; Eigen::Map<Eigen::Matrix<unsigned char,28,28,0,28,28>,0,Eigen::Stride<0,0> >::cast_to_pointer_type
PUBLIC	?rows@?$EigenBase@V?$Matrix@N$0BM@$0BM@$0A@$0BM@$0BM@@Eigen@@@Eigen@@QEBA_JXZ ; Eigen::EigenBase<Eigen::Matrix<double,28,28,0,28,28> >::rows
PUBLIC	?cols@?$EigenBase@V?$Matrix@N$0BM@$0BM@$0A@$0BM@$0BM@@Eigen@@@Eigen@@QEBA_JXZ ; Eigen::EigenBase<Eigen::Matrix<double,28,28,0,28,28> >::cols
PUBLIC	?coeffRef@?$DenseCoeffsBase@V?$Matrix@N$0BM@$0BM@$0A@$0BM@$0BM@@Eigen@@$00@Eigen@@QEAAAEAN_J0@Z ; Eigen::DenseCoeffsBase<Eigen::Matrix<double,28,28,0,28,28>,1>::coeffRef
PUBLIC	??0?$Matrix@N$0BM@$0BM@$0A@$0BM@$0BM@@Eigen@@QEAA@XZ ; Eigen::Matrix<double,28,28,0,28,28>::Matrix<double,28,28,0,28,28>
PUBLIC	??_G?$basic_fstream@DU?$char_traits@D@std@@@std@@UEAAPEAXI@Z ; std::basic_fstream<char,std::char_traits<char> >::`scalar deleting destructor'
PUBLIC	??_G?$basic_filebuf@DU?$char_traits@D@std@@@std@@UEAAPEAXI@Z ; std::basic_filebuf<char,std::char_traits<char> >::`scalar deleting destructor'
PUBLIC	??0?$basic_string@DU?$char_traits@D@std@@V?$allocator@D@2@@std@@QEAA@XZ ; std::basic_string<char,std::char_traits<char>,std::allocator<char> >::basic_string<char,std::char_traits<char>,std::allocator<char> >
PUBLIC	??1?$_String_val@U?$_Simple_types@D@std@@@std@@QEAA@XZ ; std::_String_val<std::_Simple_types<char> >::~_String_val<std::_Simple_types<char> >
PUBLIC	??1?$_Compressed_pair@V?$allocator@D@std@@V?$_String_val@U?$_Simple_types@D@std@@@2@$00@std@@QEAA@XZ ; std::_Compressed_pair<std::allocator<char>,std::_String_val<std::_Simple_types<char> >,1>::~_Compressed_pair<std::allocator<char>,std::_String_val<std::_Simple_types<char> >,1>
PUBLIC	??1?$basic_string@DU?$char_traits@D@std@@V?$allocator@D@2@@std@@QEAA@XZ ; std::basic_string<char,std::char_traits<char>,std::allocator<char> >::~basic_string<char,std::char_traits<char>,std::allocator<char> >
PUBLIC	?data@?$basic_string@DU?$char_traits@D@std@@V?$allocator@D@2@@std@@QEAAPEADXZ ; std::basic_string<char,std::char_traits<char>,std::allocator<char> >::data
PUBLIC	?size@?$basic_string@DU?$char_traits@D@std@@V?$allocator@D@2@@std@@QEBA_KXZ ; std::basic_string<char,std::char_traits<char>,std::allocator<char> >::size
PUBLIC	?_Large_string_engaged@?$_String_val@U?$_Simple_types@D@std@@@std@@QEBA_NXZ ; std::_String_val<std::_Simple_types<char> >::_Large_string_engaged
PUBLIC	?_Myptr@?$_String_val@U?$_Simple_types@D@std@@@std@@QEAAPEADXZ ; std::_String_val<std::_Simple_types<char> >::_Myptr
PUBLIC	?Initialize@?$Data@DV?$Matrix@N$0BM@$0BM@$0A@$0BM@$0BM@@Eigen@@@Neural@@QEAAX_K@Z ; Neural::Data<char,Eigen::Matrix<double,28,28,0,28,28> >::Initialize
PUBLIC	??0?$basic_fstream@DU?$char_traits@D@std@@@std@@QEAA@PEBDHH@Z ; std::basic_fstream<char,std::char_traits<char> >::basic_fstream<char,std::char_traits<char> >
PUBLIC	??1?$basic_fstream@DU?$char_traits@D@std@@@std@@UEAA@XZ ; std::basic_fstream<char,std::char_traits<char> >::~basic_fstream<char,std::char_traits<char> >
PUBLIC	?is_open@?$basic_fstream@DU?$char_traits@D@std@@@std@@QEBA_NXZ ; std::basic_fstream<char,std::char_traits<char> >::is_open
PUBLIC	?close@?$basic_fstream@DU?$char_traits@D@std@@@std@@QEAAXXZ ; std::basic_fstream<char,std::char_traits<char> >::close
PUBLIC	??1?$basic_filebuf@DU?$char_traits@D@std@@@std@@UEAA@XZ ; std::basic_filebuf<char,std::char_traits<char> >::~basic_filebuf<char,std::char_traits<char> >
PUBLIC	?_Lock@?$basic_filebuf@DU?$char_traits@D@std@@@std@@UEAAXXZ ; std::basic_filebuf<char,std::char_traits<char> >::_Lock
PUBLIC	?_Unlock@?$basic_filebuf@DU?$char_traits@D@std@@@std@@UEAAXXZ ; std::basic_filebuf<char,std::char_traits<char> >::_Unlock
PUBLIC	?to_char_type@?$_Narrow_char_traits@DH@std@@SADAEBH@Z ; std::_Narrow_char_traits<char,int>::to_char_type
PUBLIC	?overflow@?$basic_filebuf@DU?$char_traits@D@std@@@std@@MEAAHH@Z ; std::basic_filebuf<char,std::char_traits<char> >::overflow
PUBLIC	?pbackfail@?$basic_filebuf@DU?$char_traits@D@std@@@std@@MEAAHH@Z ; std::basic_filebuf<char,std::char_traits<char> >::pbackfail
PUBLIC	?underflow@?$basic_filebuf@DU?$char_traits@D@std@@@std@@MEAAHXZ ; std::basic_filebuf<char,std::char_traits<char> >::underflow
PUBLIC	?uflow@?$basic_filebuf@DU?$char_traits@D@std@@@std@@MEAAHXZ ; std::basic_filebuf<char,std::char_traits<char> >::uflow
PUBLIC	??$min@_K@std@@YAAEB_KAEB_K0@Z			; std::min<unsigned __int64>
PUBLIC	?xsgetn@?$basic_filebuf@DU?$char_traits@D@std@@@std@@MEAA_JPEAD_J@Z ; std::basic_filebuf<char,std::char_traits<char> >::xsgetn
PUBLIC	?xsputn@?$basic_filebuf@DU?$char_traits@D@std@@@std@@MEAA_JPEBD_J@Z ; std::basic_filebuf<char,std::char_traits<char> >::xsputn
PUBLIC	?seekoff@?$basic_filebuf@DU?$char_traits@D@std@@@std@@MEAA?AV?$fpos@U_Mbstatet@@@2@_JHH@Z ; std::basic_filebuf<char,std::char_traits<char> >::seekoff
PUBLIC	?seekpos@?$basic_filebuf@DU?$char_traits@D@std@@@std@@MEAA?AV?$fpos@U_Mbstatet@@@2@V32@H@Z ; std::basic_filebuf<char,std::char_traits<char> >::seekpos
PUBLIC	?setbuf@?$basic_filebuf@DU?$char_traits@D@std@@@std@@MEAAPEAV?$basic_streambuf@DU?$char_traits@D@std@@@2@PEAD_J@Z ; std::basic_filebuf<char,std::char_traits<char> >::setbuf
PUBLIC	?sync@?$basic_filebuf@DU?$char_traits@D@std@@@std@@MEAAHXZ ; std::basic_filebuf<char,std::char_traits<char> >::sync
PUBLIC	?imbue@?$basic_filebuf@DU?$char_traits@D@std@@@std@@MEAAXAEBVlocale@2@@Z ; std::basic_filebuf<char,std::char_traits<char> >::imbue
PUBLIC	??0?$fpos@U_Mbstatet@@@std@@QEAA@_J@Z		; std::fpos<_Mbstatet>::fpos<_Mbstatet>
PUBLIC	??B?$fpos@U_Mbstatet@@@std@@QEBA_JXZ		; std::fpos<_Mbstatet>::operator __int64
PUBLIC	??0?$Stride@$0A@$0A@@Eigen@@QEAA@XZ		; Eigen::Stride<0,0>::Stride<0,0>
PUBLIC	??0?$Map@V?$Matrix@E$0BM@$0BM@$0A@$0BM@$0BM@@Eigen@@$0A@V?$Stride@$0A@$0A@@2@@Eigen@@QEAA@PEAEAEBV?$Stride@$0A@$0A@@1@@Z ; Eigen::Map<Eigen::Matrix<unsigned char,28,28,0,28,28>,0,Eigen::Stride<0,0> >::Map<Eigen::Matrix<unsigned char,28,28,0,28,28>,0,Eigen::Stride<0,0> >
PUBLIC	??R?$DenseCoeffsBase@V?$Matrix@N$0BM@$0BM@$0A@$0BM@$0BM@@Eigen@@$00@Eigen@@QEAAAEAN_J0@Z ; Eigen::DenseCoeffsBase<Eigen::Matrix<double,28,28,0,28,28>,1>::operator()
PUBLIC	?__autoclassinit2@?$basic_fstream@DU?$char_traits@D@std@@@std@@QEAAX_K@Z ; std::basic_fstream<char,std::char_traits<char> >::__autoclassinit2
PUBLIC	??_D?$basic_fstream@DU?$char_traits@D@std@@@std@@QEAAXXZ ; std::basic_fstream<char,std::char_traits<char> >::`vbase destructor'
PUBLIC	??0?$Data@DV?$Matrix@N$0BM@$0BM@$0A@$0BM@$0BM@@Eigen@@@Neural@@QEAA@XZ ; Neural::Data<char,Eigen::Matrix<double,28,28,0,28,28> >::Data<char,Eigen::Matrix<double,28,28,0,28,28> >
PUBLIC	??$_Ungetc@D@std@@YA_NAEBDPEAU_iobuf@@@Z	; std::_Ungetc<char>
PUBLIC	??$_Fputc@D@std@@YA_NDPEAU_iobuf@@@Z		; std::_Fputc<char>
PUBLIC	??$_Fgetc@D@std@@YA_NAEADPEAU_iobuf@@@Z		; std::_Fgetc<char>
PUBLIC	?_Getfacet@locale@std@@QEBAPEBVfacet@12@_K@Z	; std::locale::_Getfacet
PUBLIC	??1locale@std@@QEAA@XZ				; std::locale::~locale
PUBLIC	??0bad_cast@std@@QEAA@AEBV01@@Z			; std::bad_cast::bad_cast
PUBLIC	?_Throw_bad_cast@std@@YAXXZ			; std::_Throw_bad_cast
PUBLIC	??1bad_cast@std@@UEAA@XZ			; std::bad_cast::~bad_cast
PUBLIC	??_Gbad_cast@std@@UEAAPEAXI@Z			; std::bad_cast::`scalar deleting destructor'
PUBLIC	??0bad_cast@std@@QEAA@XZ			; std::bad_cast::bad_cast
PUBLIC	?_Xlen_string@std@@YAXXZ			; std::_Xlen_string
PUBLIC	?_Alloc_proxy@_Container_base0@std@@QEAAXAEBU_Fake_allocator@2@@Z ; std::_Container_base0::_Alloc_proxy
PUBLIC	?_Orphan_all@_Container_base0@std@@QEAAXXZ	; std::_Container_base0::_Orphan_all
PUBLIC	?_Adjust_manually_vector_aligned@std@@YAXAEAPEAXAEA_K@Z ; std::_Adjust_manually_vector_aligned
PUBLIC	?_Allocate@_Default_allocate_traits@std@@SAPEAX_K@Z ; std::_Default_allocate_traits::_Allocate
PUBLIC	??0bad_array_new_length@std@@QEAA@AEBV01@@Z	; std::bad_array_new_length::bad_array_new_length
PUBLIC	?_Throw_bad_array_new_length@std@@YAXXZ		; std::_Throw_bad_array_new_length
PUBLIC	??1bad_array_new_length@std@@UEAA@XZ		; std::bad_array_new_length::~bad_array_new_length
PUBLIC	??_Gbad_array_new_length@std@@UEAAPEAXI@Z	; std::bad_array_new_length::`scalar deleting destructor'
PUBLIC	??0bad_array_new_length@std@@QEAA@XZ		; std::bad_array_new_length::bad_array_new_length
PUBLIC	??0bad_alloc@std@@AEAA@QEBD@Z			; std::bad_alloc::bad_alloc
PUBLIC	?max@?$numeric_limits@_J@std@@SA_JXZ		; std::numeric_limits<__int64>::max
PUBLIC	printf
PUBLIC	_vfprintf_l
PUBLIC	__local_stdio_printf_options
PUBLIC	?is_constant_evaluated@std@@YA_NXZ		; std::is_constant_evaluated
PUBLIC	??0Data_Set@Mnist@@QEAA@PEBD0K@Z		; Mnist::Data_Set::Data_Set
PUBLIC	?print_mnist_data@Mnist@@YAXPEBUData_Set@1@@Z	; Mnist::print_mnist_data
PUBLIC	?_Stinit@?1??_Init@?$basic_filebuf@DU?$char_traits@D@std@@@std@@IEAAXPEAU_iobuf@@W4_Initfl@23@@Z@4U_Mbstatet@@A ; `std::basic_filebuf<char,std::char_traits<char> >::_Init'::`2'::_Stinit
EXTRN	??1_Lockit@std@@QEAA@XZ:PROC			; std::_Lockit::~_Lockit
EXTRN	??_Ebad_cast@std@@UEAAPEAXI@Z:PROC		; std::bad_cast::`vector deleting destructor'
EXTRN	??_E?$basic_filebuf@DU?$char_traits@D@std@@@std@@UEAAPEAXI@Z:PROC ; std::basic_filebuf<char,std::char_traits<char> >::`vector deleting destructor'
EXTRN	??_E?$basic_fstream@DU?$char_traits@D@std@@@std@@UEAAPEAXI@Z:PROC ; std::basic_fstream<char,std::char_traits<char> >::`vector deleting destructor'
EXTRN	??_Ebad_array_new_length@std@@UEAAPEAXI@Z:PROC	; std::bad_array_new_length::`vector deleting destructor'
EXTRN	??1?$basic_streambuf@DU?$char_traits@D@std@@@std@@UEAA@XZ:PROC ; std::basic_streambuf<char,std::char_traits<char> >::~basic_streambuf<char,std::char_traits<char> >
;	COMDAT ?_Stinit@?1??_Init@?$basic_filebuf@DU?$char_traits@D@std@@@std@@IEAAXPEAU_iobuf@@W4_Initfl@23@@Z@4U_Mbstatet@@A
_BSS	SEGMENT
?_Stinit@?1??_Init@?$basic_filebuf@DU?$char_traits@D@std@@@std@@IEAAXPEAU_iobuf@@W4_Initfl@23@@Z@4U_Mbstatet@@A DQ 01H DUP (?) ; `std::basic_filebuf<char,std::char_traits<char> >::_Init'::`2'::_Stinit
_BSS	ENDS
;	COMDAT pdata
pdata	SEGMENT
$pdata$??0?$variable_if_dynamic@_J$00@internal@Eigen@@QEAA@_J@Z DD imagerel $LN6@variable_i
	DD	imagerel $LN6@variable_i+50
	DD	imagerel $unwind$??0?$variable_if_dynamic@_J$00@internal@Eigen@@QEAA@_J@Z
pdata	ENDS
;	COMDAT pdata
pdata	SEGMENT
$pdata$??$_Allocate_manually_vector_aligned@U_Default_allocate_traits@std@@@std@@YAPEAX_K@Z DD imagerel $LN17@Allocate_m
	DD	imagerel $LN17@Allocate_m+59
	DD	imagerel $unwind$??$_Allocate_manually_vector_aligned@U_Default_allocate_traits@std@@@std@@YAPEAX_K@Z
pdata	ENDS
;	COMDAT pdata
pdata	SEGMENT
$pdata$??0?$CwiseNullaryOp@U?$scalar_constant_op@N@internal@Eigen@@$$CBV?$Matrix@N$0BM@$0BM@$0A@$0BM@$0BM@@3@@Eigen@@QEAA@_J0AEBU?$scalar_constant_op@N@internal@1@@Z DD imagerel $LN19@CwiseNulla
	DD	imagerel $LN19@CwiseNulla+166
	DD	imagerel $unwind$??0?$CwiseNullaryOp@U?$scalar_constant_op@N@internal@Eigen@@$$CBV?$Matrix@N$0BM@$0BM@$0A@$0BM@$0BM@@3@@Eigen@@QEAA@_J0AEBU?$scalar_constant_op@N@internal@1@@Z
pdata	ENDS
;	COMDAT pdata
pdata	SEGMENT
$pdata$??$_Deallocate@$0BA@$0A@@std@@YAXPEAX_K@Z DD imagerel $LN20@Deallocate
	DD	imagerel $LN20@Deallocate+53
	DD	imagerel $unwind$??$_Deallocate@$0BA@$0A@@std@@YAXPEAX_K@Z
pdata	ENDS
;	COMDAT pdata
pdata	SEGMENT
$pdata$??$_Allocate@$0BA@U_Default_allocate_traits@std@@$0A@@std@@YAPEAX_K@Z DD imagerel $LN25@Allocate
	DD	imagerel $LN25@Allocate+89
	DD	imagerel $unwind$??$_Allocate@$0BA@U_Default_allocate_traits@std@@$0A@@std@@YAPEAX_K@Z
pdata	ENDS
;	COMDAT pdata
pdata	SEGMENT
$pdata$??$_Reallocate_grow_by@V<lambda_1>@?1??push_back@?$basic_string@DU?$char_traits@D@std@@V?$allocator@D@2@@std@@QEAAXD@Z@D@?$basic_string@DU?$char_traits@D@std@@V?$allocator@D@2@@std@@AEAAAEAV01@_KV<lambda_1>@?1??push_back@01@QEAAXD@Z@D@Z DD imagerel $LN118@Reallocate
	DD	imagerel $LN118@Reallocate+48
	DD	imagerel $unwind$??$_Reallocate_grow_by@V<lambda_1>@?1??push_back@?$basic_string@DU?$char_traits@D@std@@V?$allocator@D@2@@std@@QEAAXD@Z@D@?$basic_string@DU?$char_traits@D@std@@V?$allocator@D@2@@std@@AEAAAEAV01@_KV<lambda_1>@?1??push_back@01@QEAAXD@Z@D@Z
pdata	ENDS
;	COMDAT pdata
pdata	SEGMENT
$pdata$2$??$_Reallocate_grow_by@V<lambda_1>@?1??push_back@?$basic_string@DU?$char_traits@D@std@@V?$allocator@D@2@@std@@QEAAXD@Z@D@?$basic_string@DU?$char_traits@D@std@@V?$allocator@D@2@@std@@AEAAAEAV01@_KV<lambda_1>@?1??push_back@01@QEAAXD@Z@D@Z DD imagerel $LN118@Reallocate+48
	DD	imagerel $LN118@Reallocate+343
	DD	imagerel $chain$2$??$_Reallocate_grow_by@V<lambda_1>@?1??push_back@?$basic_string@DU?$char_traits@D@std@@V?$allocator@D@2@@std@@QEAAXD@Z@D@?$basic_string@DU?$char_traits@D@std@@V?$allocator@D@2@@std@@AEAAAEAV01@_KV<lambda_1>@?1??push_back@01@QEAAXD@Z@D@Z
pdata	ENDS
;	COMDAT pdata
pdata	SEGMENT
$pdata$4$??$_Reallocate_grow_by@V<lambda_1>@?1??push_back@?$basic_string@DU?$char_traits@D@std@@V?$allocator@D@2@@std@@QEAAXD@Z@D@?$basic_string@DU?$char_traits@D@std@@V?$allocator@D@2@@std@@AEAAAEAV01@_KV<lambda_1>@?1??push_back@01@QEAAXD@Z@D@Z DD imagerel $LN118@Reallocate+343
	DD	imagerel $LN118@Reallocate+349
	DD	imagerel $chain$4$??$_Reallocate_grow_by@V<lambda_1>@?1??push_back@?$basic_string@DU?$char_traits@D@std@@V?$allocator@D@2@@std@@QEAAXD@Z@D@?$basic_string@DU?$char_traits@D@std@@V?$allocator@D@2@@std@@AEAAAEAV01@_KV<lambda_1>@?1??push_back@01@QEAAXD@Z@D@Z
pdata	ENDS
;	COMDAT pdata
pdata	SEGMENT
$pdata$5$??$_Reallocate_grow_by@V<lambda_1>@?1??push_back@?$basic_string@DU?$char_traits@D@std@@V?$allocator@D@2@@std@@QEAAXD@Z@D@?$basic_string@DU?$char_traits@D@std@@V?$allocator@D@2@@std@@AEAAAEAV01@_KV<lambda_1>@?1??push_back@01@QEAAXD@Z@D@Z DD imagerel $LN118@Reallocate+349
	DD	imagerel $LN118@Reallocate+355
	DD	imagerel $chain$5$??$_Reallocate_grow_by@V<lambda_1>@?1??push_back@?$basic_string@DU?$char_traits@D@std@@V?$allocator@D@2@@std@@QEAAXD@Z@D@?$basic_string@DU?$char_traits@D@std@@V?$allocator@D@2@@std@@AEAAAEAV01@_KV<lambda_1>@?1??push_back@01@QEAAXD@Z@D@Z
pdata	ENDS
;	COMDAT pdata
pdata	SEGMENT
$pdata$??$use_facet@V?$codecvt@DDU_Mbstatet@@@std@@@std@@YAAEBV?$codecvt@DDU_Mbstatet@@@0@AEBVlocale@0@@Z DD imagerel $LN41@use_facet
	DD	imagerel $LN41@use_facet+269
	DD	imagerel $unwind$??$use_facet@V?$codecvt@DDU_Mbstatet@@@std@@@std@@YAAEBV?$codecvt@DDU_Mbstatet@@@0@AEBVlocale@0@@Z
pdata	ENDS
;	COMDAT pdata
pdata	SEGMENT
$pdata$??0?$plain_array@N$0DBA@$0A@$0CA@@internal@Eigen@@QEAA@XZ DD imagerel $LN7@plain_arra
	DD	imagerel $LN7@plain_arra+49
	DD	imagerel $unwind$??0?$plain_array@N$0DBA@$0A@$0CA@@internal@Eigen@@QEAA@XZ
pdata	ENDS
;	COMDAT pdata
pdata	SEGMENT
$pdata$?assign@?$_Char_traits@DH@std@@SAPEADQEAD_KD@Z DD imagerel $LN24@assign
	DD	imagerel $LN24@assign+33
	DD	imagerel $unwind$?assign@?$_Char_traits@DH@std@@SAPEADQEAD_KD@Z
pdata	ENDS
;	COMDAT pdata
pdata	SEGMENT
$pdata$?_Xran@?$_String_val@U?$_Simple_types@D@std@@@std@@SAXXZ DD imagerel $LN4@Xran
	DD	imagerel $LN4@Xran+18
	DD	imagerel $unwind$?_Xran@?$_String_val@U?$_Simple_types@D@std@@@std@@SAXXZ
pdata	ENDS
;	COMDAT pdata
pdata	SEGMENT
$pdata$??0?$variable_if_dynamic@_J$0BM@@internal@Eigen@@QEAA@_J@Z DD imagerel $LN6@variable_i
	DD	imagerel $LN6@variable_i+50
	DD	imagerel $unwind$??0?$variable_if_dynamic@_J$0BM@@internal@Eigen@@QEAA@_J@Z
pdata	ENDS
;	COMDAT pdata
pdata	SEGMENT
$pdata$??0?$DenseStorage@N$0DBA@$0BM@$0BM@$0A@@Eigen@@QEAA@XZ DD imagerel $LN9@DenseStora
	DD	imagerel $LN9@DenseStora+49
	DD	imagerel $unwind$??0?$DenseStorage@N$0DBA@$0BM@$0BM@$0A@@Eigen@@QEAA@XZ
pdata	ENDS
;	COMDAT pdata
pdata	SEGMENT
$pdata$?move@?$_Char_traits@DH@std@@SAPEADQEADQEBD_K@Z DD imagerel $LN33@move
	DD	imagerel $LN33@move+23
	DD	imagerel $unwind$?move@?$_Char_traits@DH@std@@SAPEADQEADQEBD_K@Z
pdata	ENDS
;	COMDAT pdata
pdata	SEGMENT
$pdata$?_Erase_noexcept@?$basic_string@DU?$char_traits@D@std@@V?$allocator@D@2@@std@@AEAAAEAV12@_K_K@Z DD imagerel $LN45@Erase_noex
	DD	imagerel $LN45@Erase_noex+61
	DD	imagerel $unwind$?_Erase_noexcept@?$basic_string@DU?$char_traits@D@std@@V?$allocator@D@2@@std@@AEAAAEAV12@_K_K@Z
pdata	ENDS
;	COMDAT pdata
pdata	SEGMENT
$pdata$??0?$PlainObjectBase@V?$Matrix@N$0BM@$0BM@$0A@$0BM@$0BM@@Eigen@@@Eigen@@IEAA@XZ DD imagerel $LN11@PlainObjec
	DD	imagerel $LN11@PlainObjec+49
	DD	imagerel $unwind$??0?$PlainObjectBase@V?$Matrix@N$0BM@$0BM@$0A@$0BM@$0BM@@Eigen@@@Eigen@@IEAA@XZ
pdata	ENDS
;	COMDAT pdata
pdata	SEGMENT
$pdata$?copy@?$_Char_traits@DH@std@@SAPEADQEADQEBD_K@Z DD imagerel $LN15@copy
	DD	imagerel $LN15@copy+23
	DD	imagerel $unwind$?copy@?$_Char_traits@DH@std@@SAPEADQEADQEBD_K@Z
pdata	ENDS
;	COMDAT pdata
pdata	SEGMENT
$pdata$?deallocate@?$allocator@D@std@@QEAAXQEAD_K@Z DD imagerel $LN23@deallocate
	DD	imagerel $LN23@deallocate+62
	DD	imagerel $unwind$?deallocate@?$allocator@D@std@@QEAAXQEAD_K@Z
pdata	ENDS
;	COMDAT pdata
pdata	SEGMENT
$pdata$?allocate@?$allocator@D@std@@QEAAPEAD_K@Z DD imagerel $LN28@allocate
	DD	imagerel $LN28@allocate+89
	DD	imagerel $unwind$?allocate@?$allocator@D@std@@QEAAPEAD_K@Z
pdata	ENDS
;	COMDAT pdata
pdata	SEGMENT
$pdata$?erase@?$basic_string@DU?$char_traits@D@std@@V?$allocator@D@2@@std@@QEAAAEAV12@_K0@Z DD imagerel $LN47@erase
	DD	imagerel $LN47@erase+61
	DD	imagerel $unwind$?erase@?$basic_string@DU?$char_traits@D@std@@V?$allocator@D@2@@std@@QEAAAEAV12@_K0@Z
pdata	ENDS
;	COMDAT pdata
pdata	SEGMENT
$pdata$??R<lambda_1>@?1??push_back@?$basic_string@DU?$char_traits@D@std@@V?$allocator@D@2@@std@@QEAAXD@Z@QEBA@QEADQEBD_KD@Z DD imagerel $LN17@operator
	DD	imagerel $LN17@operator+57
	DD	imagerel $unwind$??R<lambda_1>@?1??push_back@?$basic_string@DU?$char_traits@D@std@@V?$allocator@D@2@@std@@QEAAXD@Z@QEBA@QEADQEBD_KD@Z
pdata	ENDS
;	COMDAT pdata
pdata	SEGMENT
$pdata$?_Tidy_init@?$basic_string@DU?$char_traits@D@std@@V?$allocator@D@2@@std@@AEAAXXZ DD imagerel $LN88@Tidy_init
	DD	imagerel $LN88@Tidy_init+20
	DD	imagerel $unwind$?_Tidy_init@?$basic_string@DU?$char_traits@D@std@@V?$allocator@D@2@@std@@AEAAXXZ
pdata	ENDS
;	COMDAT pdata
pdata	SEGMENT
$pdata$?_Tidy_deallocate@?$basic_string@DU?$char_traits@D@std@@V?$allocator@D@2@@std@@AEAAXXZ DD imagerel $LN32@Tidy_deall
	DD	imagerel $LN32@Tidy_deall+95
	DD	imagerel $unwind$?_Tidy_deallocate@?$basic_string@DU?$char_traits@D@std@@V?$allocator@D@2@@std@@AEAAXXZ
pdata	ENDS
;	COMDAT pdata
pdata	SEGMENT
$pdata$??0?$variable_if_dynamic@_J$0A@@internal@Eigen@@QEAA@_J@Z DD imagerel $LN6@variable_i
	DD	imagerel $LN6@variable_i+49
	DD	imagerel $unwind$??0?$variable_if_dynamic@_J$0A@@internal@Eigen@@QEAA@_J@Z
pdata	ENDS
;	COMDAT pdata
pdata	SEGMENT
$pdata$??0?$basic_filebuf@DU?$char_traits@D@std@@@std@@QEAA@XZ DD imagerel $LN17@basic_file
	DD	imagerel $LN17@basic_file+81
	DD	imagerel $unwind$??0?$basic_filebuf@DU?$char_traits@D@std@@@std@@QEAA@XZ
pdata	ENDS
;	COMDAT pdata
pdata	SEGMENT
$pdata$?open@?$basic_filebuf@DU?$char_traits@D@std@@@std@@QEAAPEAV12@PEBDHH@Z DD imagerel $LN36@open
	DD	imagerel $LN36@open+329
	DD	imagerel $unwind$?open@?$basic_filebuf@DU?$char_traits@D@std@@@std@@QEAAPEAV12@PEBDHH@Z
pdata	ENDS
;	COMDAT pdata
pdata	SEGMENT
$pdata$?close@?$basic_filebuf@DU?$char_traits@D@std@@@std@@QEAAPEAV12@XZ DD imagerel $LN27@close
	DD	imagerel $LN27@close+174
	DD	imagerel $unwind$?close@?$basic_filebuf@DU?$char_traits@D@std@@@std@@QEAAPEAV12@XZ
pdata	ENDS
;	COMDAT pdata
pdata	SEGMENT
$pdata$?_Init@?$basic_filebuf@DU?$char_traits@D@std@@@std@@IEAAXPEAU_iobuf@@W4_Initfl@12@@Z DD imagerel $LN13@Init
	DD	imagerel $LN13@Init+192
	DD	imagerel $unwind$?_Init@?$basic_filebuf@DU?$char_traits@D@std@@@std@@IEAAXPEAU_iobuf@@W4_Initfl@12@@Z
pdata	ENDS
;	COMDAT pdata
pdata	SEGMENT
$pdata$?_Endwrite@?$basic_filebuf@DU?$char_traits@D@std@@@std@@IEAA_NXZ DD imagerel $LN20@Endwrite
	DD	imagerel $LN20@Endwrite+53
	DD	imagerel $unwind$?_Endwrite@?$basic_filebuf@DU?$char_traits@D@std@@@std@@IEAA_NXZ
pdata	ENDS
;	COMDAT pdata
pdata	SEGMENT
$pdata$0$?_Endwrite@?$basic_filebuf@DU?$char_traits@D@std@@@std@@IEAA_NXZ DD imagerel $LN20@Endwrite+53
	DD	imagerel $LN20@Endwrite+148
	DD	imagerel $chain$0$?_Endwrite@?$basic_filebuf@DU?$char_traits@D@std@@@std@@IEAA_NXZ
pdata	ENDS
;	COMDAT pdata
pdata	SEGMENT
$pdata$2$?_Endwrite@?$basic_filebuf@DU?$char_traits@D@std@@@std@@IEAA_NXZ DD imagerel $LN20@Endwrite+148
	DD	imagerel $LN20@Endwrite+211
	DD	imagerel $chain$2$?_Endwrite@?$basic_filebuf@DU?$char_traits@D@std@@@std@@IEAA_NXZ
pdata	ENDS
;	COMDAT pdata
pdata	SEGMENT
$pdata$3$?_Endwrite@?$basic_filebuf@DU?$char_traits@D@std@@@std@@IEAA_NXZ DD imagerel $LN20@Endwrite+211
	DD	imagerel $LN20@Endwrite+232
	DD	imagerel $chain$3$?_Endwrite@?$basic_filebuf@DU?$char_traits@D@std@@@std@@IEAA_NXZ
pdata	ENDS
;	COMDAT pdata
pdata	SEGMENT
$pdata$?_Initcvt@?$basic_filebuf@DU?$char_traits@D@std@@@std@@IEAAXAEBV?$codecvt@DDU_Mbstatet@@@2@@Z DD imagerel $LN12@Initcvt
	DD	imagerel $LN12@Initcvt+72
	DD	imagerel $unwind$?_Initcvt@?$basic_filebuf@DU?$char_traits@D@std@@@std@@IEAAXAEBV?$codecvt@DDU_Mbstatet@@@2@@Z
pdata	ENDS
;	COMDAT pdata
pdata	SEGMENT
$pdata$??0?$Matrix@N$0BM@$0BM@$0A@$0BM@$0BM@@Eigen@@QEAA@XZ DD imagerel $LN13@Matrix
	DD	imagerel $LN13@Matrix+49
	DD	imagerel $unwind$??0?$Matrix@N$0BM@$0BM@$0A@$0BM@$0BM@@Eigen@@QEAA@XZ
pdata	ENDS
;	COMDAT pdata
pdata	SEGMENT
$pdata$??_G?$basic_fstream@DU?$char_traits@D@std@@@std@@UEAAPEAXI@Z DD imagerel $LN7@scalar
	DD	imagerel $LN7@scalar+59
	DD	imagerel $unwind$??_G?$basic_fstream@DU?$char_traits@D@std@@@std@@UEAAPEAXI@Z
pdata	ENDS
;	COMDAT pdata
pdata	SEGMENT
$pdata$??_G?$basic_filebuf@DU?$char_traits@D@std@@@std@@UEAAPEAXI@Z DD imagerel $LN19@scalar
	DD	imagerel $LN19@scalar+137
	DD	imagerel $unwind$??_G?$basic_filebuf@DU?$char_traits@D@std@@@std@@UEAAPEAXI@Z
pdata	ENDS
;	COMDAT pdata
pdata	SEGMENT
$pdata$??0?$basic_string@DU?$char_traits@D@std@@V?$allocator@D@2@@std@@QEAA@XZ DD imagerel $LN100@basic_stri
	DD	imagerel $LN100@basic_stri+21
	DD	imagerel $unwind$??0?$basic_string@DU?$char_traits@D@std@@V?$allocator@D@2@@std@@QEAA@XZ
pdata	ENDS
;	COMDAT pdata
pdata	SEGMENT
$pdata$??1?$basic_string@DU?$char_traits@D@std@@V?$allocator@D@2@@std@@QEAA@XZ DD imagerel $LN35@basic_stri
	DD	imagerel $LN35@basic_stri+95
	DD	imagerel $unwind$??1?$basic_string@DU?$char_traits@D@std@@V?$allocator@D@2@@std@@QEAA@XZ
pdata	ENDS
;	COMDAT pdata
pdata	SEGMENT
$pdata$?Initialize@?$Data@DV?$Matrix@N$0BM@$0BM@$0A@$0BM@$0BM@@Eigen@@@Neural@@QEAAX_K@Z DD imagerel $LN17@Initialize
	DD	imagerel $LN17@Initialize+148
	DD	imagerel $unwind$?Initialize@?$Data@DV?$Matrix@N$0BM@$0BM@$0A@$0BM@$0BM@@Eigen@@@Neural@@QEAAX_K@Z
pdata	ENDS
;	COMDAT pdata
pdata	SEGMENT
$pdata$?dtor$0@?0??Initialize@?$Data@DV?$Matrix@N$0BM@$0BM@$0A@$0BM@$0BM@@Eigen@@@Neural@@QEAAX_K@Z@4HA DD imagerel ?dtor$0@?0??Initialize@?$Data@DV?$Matrix@N$0BM@$0BM@$0A@$0BM@$0BM@@Eigen@@@Neural@@QEAAX_K@Z@4HA
	DD	imagerel ?dtor$0@?0??Initialize@?$Data@DV?$Matrix@N$0BM@$0BM@$0A@$0BM@$0BM@@Eigen@@@Neural@@QEAAX_K@Z@4HA+53
	DD	imagerel $unwind$?dtor$0@?0??Initialize@?$Data@DV?$Matrix@N$0BM@$0BM@$0A@$0BM@$0BM@@Eigen@@@Neural@@QEAAX_K@Z@4HA
pdata	ENDS
;	COMDAT pdata
pdata	SEGMENT
$pdata$??0?$basic_fstream@DU?$char_traits@D@std@@@std@@QEAA@PEBDHH@Z DD imagerel $LN60@basic_fstr
	DD	imagerel $LN60@basic_fstr+507
	DD	imagerel $unwind$??0?$basic_fstream@DU?$char_traits@D@std@@@std@@QEAA@PEBDHH@Z
pdata	ENDS
;	COMDAT pdata
pdata	SEGMENT
$pdata$?dtor$0@?0???0?$basic_fstream@DU?$char_traits@D@std@@@std@@QEAA@PEBDHH@Z@4HA DD imagerel ?dtor$0@?0???0?$basic_fstream@DU?$char_traits@D@std@@@std@@QEAA@PEBDHH@Z@4HA
	DD	imagerel ?dtor$0@?0???0?$basic_fstream@DU?$char_traits@D@std@@@std@@QEAA@PEBDHH@Z@4HA+46
	DD	imagerel $unwind$?dtor$0@?0???0?$basic_fstream@DU?$char_traits@D@std@@@std@@QEAA@PEBDHH@Z@4HA
pdata	ENDS
;	COMDAT pdata
pdata	SEGMENT
$pdata$??1?$basic_fstream@DU?$char_traits@D@std@@@std@@UEAA@XZ DD imagerel $LN17@basic_fstr
	DD	imagerel $LN17@basic_fstr+187
	DD	imagerel $unwind$??1?$basic_fstream@DU?$char_traits@D@std@@@std@@UEAA@XZ
pdata	ENDS
;	COMDAT pdata
pdata	SEGMENT
$pdata$?close@?$basic_fstream@DU?$char_traits@D@std@@@std@@QEAAXXZ DD imagerel $LN5@close
	DD	imagerel $LN5@close+58
	DD	imagerel $unwind$?close@?$basic_fstream@DU?$char_traits@D@std@@@std@@QEAAXXZ
pdata	ENDS
;	COMDAT pdata
pdata	SEGMENT
$pdata$??1?$basic_filebuf@DU?$char_traits@D@std@@@std@@UEAA@XZ DD imagerel $LN14@basic_file
	DD	imagerel $LN14@basic_file+105
	DD	imagerel $unwind$??1?$basic_filebuf@DU?$char_traits@D@std@@@std@@UEAA@XZ
pdata	ENDS
;	COMDAT pdata
pdata	SEGMENT
$pdata$?overflow@?$basic_filebuf@DU?$char_traits@D@std@@@std@@MEAAHH@Z DD imagerel $LN49@overflow
	DD	imagerel $LN49@overflow+96
	DD	imagerel $unwind$?overflow@?$basic_filebuf@DU?$char_traits@D@std@@@std@@MEAAHH@Z
pdata	ENDS
;	COMDAT pdata
pdata	SEGMENT
$pdata$0$?overflow@?$basic_filebuf@DU?$char_traits@D@std@@@std@@MEAAHH@Z DD imagerel $LN49@overflow+96
	DD	imagerel $LN49@overflow+394
	DD	imagerel $chain$0$?overflow@?$basic_filebuf@DU?$char_traits@D@std@@@std@@MEAAHH@Z
pdata	ENDS
;	COMDAT pdata
pdata	SEGMENT
$pdata$1$?overflow@?$basic_filebuf@DU?$char_traits@D@std@@@std@@MEAAHH@Z DD imagerel $LN49@overflow+394
	DD	imagerel $LN49@overflow+424
	DD	imagerel $chain$1$?overflow@?$basic_filebuf@DU?$char_traits@D@std@@@std@@MEAAHH@Z
pdata	ENDS
;	COMDAT pdata
pdata	SEGMENT
$pdata$?pbackfail@?$basic_filebuf@DU?$char_traits@D@std@@@std@@MEAAHH@Z DD imagerel $LN57@pbackfail
	DD	imagerel $LN57@pbackfail+224
	DD	imagerel $unwind$?pbackfail@?$basic_filebuf@DU?$char_traits@D@std@@@std@@MEAAHH@Z
pdata	ENDS
;	COMDAT pdata
pdata	SEGMENT
$pdata$?underflow@?$basic_filebuf@DU?$char_traits@D@std@@@std@@MEAAHXZ DD imagerel $LN22@underflow
	DD	imagerel $LN22@underflow+51
	DD	imagerel $unwind$?underflow@?$basic_filebuf@DU?$char_traits@D@std@@@std@@MEAAHXZ
pdata	ENDS
;	COMDAT pdata
pdata	SEGMENT
$pdata$0$?underflow@?$basic_filebuf@DU?$char_traits@D@std@@@std@@MEAAHXZ DD imagerel $LN22@underflow+51
	DD	imagerel $LN22@underflow+77
	DD	imagerel $chain$0$?underflow@?$basic_filebuf@DU?$char_traits@D@std@@@std@@MEAAHXZ
pdata	ENDS
;	COMDAT pdata
pdata	SEGMENT
$pdata$2$?underflow@?$basic_filebuf@DU?$char_traits@D@std@@@std@@MEAAHXZ DD imagerel $LN22@underflow+77
	DD	imagerel $LN22@underflow+101
	DD	imagerel $chain$2$?underflow@?$basic_filebuf@DU?$char_traits@D@std@@@std@@MEAAHXZ
pdata	ENDS
;	COMDAT pdata
pdata	SEGMENT
$pdata$?uflow@?$basic_filebuf@DU?$char_traits@D@std@@@std@@MEAAHXZ DD imagerel $LN430@uflow
	DD	imagerel $LN430@uflow+667
	DD	imagerel $unwind$?uflow@?$basic_filebuf@DU?$char_traits@D@std@@@std@@MEAAHXZ
pdata	ENDS
;	COMDAT pdata
pdata	SEGMENT
$pdata$?xsgetn@?$basic_filebuf@DU?$char_traits@D@std@@@std@@MEAA_JPEAD_J@Z DD imagerel $LN47@xsgetn
	DD	imagerel $LN47@xsgetn+93
	DD	imagerel $unwind$?xsgetn@?$basic_filebuf@DU?$char_traits@D@std@@@std@@MEAA_JPEAD_J@Z
pdata	ENDS
;	COMDAT pdata
pdata	SEGMENT
$pdata$1$?xsgetn@?$basic_filebuf@DU?$char_traits@D@std@@@std@@MEAA_JPEAD_J@Z DD imagerel $LN47@xsgetn+93
	DD	imagerel $LN47@xsgetn+146
	DD	imagerel $chain$1$?xsgetn@?$basic_filebuf@DU?$char_traits@D@std@@@std@@MEAA_JPEAD_J@Z
pdata	ENDS
;	COMDAT pdata
pdata	SEGMENT
$pdata$2$?xsgetn@?$basic_filebuf@DU?$char_traits@D@std@@@std@@MEAA_JPEAD_J@Z DD imagerel $LN47@xsgetn+146
	DD	imagerel $LN47@xsgetn+322
	DD	imagerel $chain$2$?xsgetn@?$basic_filebuf@DU?$char_traits@D@std@@@std@@MEAA_JPEAD_J@Z
pdata	ENDS
;	COMDAT pdata
pdata	SEGMENT
$pdata$?xsputn@?$basic_filebuf@DU?$char_traits@D@std@@@std@@MEAA_JPEBD_J@Z DD imagerel $LN30@xsputn
	DD	imagerel $LN30@xsputn+199
	DD	imagerel $unwind$?xsputn@?$basic_filebuf@DU?$char_traits@D@std@@@std@@MEAA_JPEBD_J@Z
pdata	ENDS
;	COMDAT pdata
pdata	SEGMENT
$pdata$?seekoff@?$basic_filebuf@DU?$char_traits@D@std@@@std@@MEAA?AV?$fpos@U_Mbstatet@@@2@_JHH@Z DD imagerel $LN23@seekoff
	DD	imagerel $LN23@seekoff+262
	DD	imagerel $unwind$?seekoff@?$basic_filebuf@DU?$char_traits@D@std@@@std@@MEAA?AV?$fpos@U_Mbstatet@@@2@_JHH@Z
pdata	ENDS
;	COMDAT pdata
pdata	SEGMENT
$pdata$?seekpos@?$basic_filebuf@DU?$char_traits@D@std@@@std@@MEAA?AV?$fpos@U_Mbstatet@@@2@V32@H@Z DD imagerel $LN22@seekpos
	DD	imagerel $LN22@seekpos+211
	DD	imagerel $unwind$?seekpos@?$basic_filebuf@DU?$char_traits@D@std@@@std@@MEAA?AV?$fpos@U_Mbstatet@@@2@V32@H@Z
pdata	ENDS
;	COMDAT pdata
pdata	SEGMENT
$pdata$?setbuf@?$basic_filebuf@DU?$char_traits@D@std@@@std@@MEAAPEAV?$basic_streambuf@DU?$char_traits@D@std@@@2@PEAD_J@Z DD imagerel $LN19@setbuf
	DD	imagerel $LN19@setbuf+77
	DD	imagerel $unwind$?setbuf@?$basic_filebuf@DU?$char_traits@D@std@@@std@@MEAAPEAV?$basic_streambuf@DU?$char_traits@D@std@@@2@PEAD_J@Z
pdata	ENDS
;	COMDAT pdata
pdata	SEGMENT
$pdata$0$?setbuf@?$basic_filebuf@DU?$char_traits@D@std@@@std@@MEAAPEAV?$basic_streambuf@DU?$char_traits@D@std@@@2@PEAD_J@Z DD imagerel $LN19@setbuf+77
	DD	imagerel $LN19@setbuf+221
	DD	imagerel $chain$0$?setbuf@?$basic_filebuf@DU?$char_traits@D@std@@@std@@MEAAPEAV?$basic_streambuf@DU?$char_traits@D@std@@@2@PEAD_J@Z
pdata	ENDS
;	COMDAT pdata
pdata	SEGMENT
$pdata$1$?setbuf@?$basic_filebuf@DU?$char_traits@D@std@@@std@@MEAAPEAV?$basic_streambuf@DU?$char_traits@D@std@@@2@PEAD_J@Z DD imagerel $LN19@setbuf+221
	DD	imagerel $LN19@setbuf+243
	DD	imagerel $chain$1$?setbuf@?$basic_filebuf@DU?$char_traits@D@std@@@std@@MEAAPEAV?$basic_streambuf@DU?$char_traits@D@std@@@2@PEAD_J@Z
pdata	ENDS
;	COMDAT pdata
pdata	SEGMENT
$pdata$?sync@?$basic_filebuf@DU?$char_traits@D@std@@@std@@MEAAHXZ DD imagerel $LN9@sync
	DD	imagerel $LN9@sync+72
	DD	imagerel $unwind$?sync@?$basic_filebuf@DU?$char_traits@D@std@@@std@@MEAAHXZ
pdata	ENDS
;	COMDAT pdata
pdata	SEGMENT
$pdata$?imbue@?$basic_filebuf@DU?$char_traits@D@std@@@std@@MEAAXAEBVlocale@2@@Z DD imagerel $LN14@imbue
	DD	imagerel $LN14@imbue+80
	DD	imagerel $unwind$?imbue@?$basic_filebuf@DU?$char_traits@D@std@@@std@@MEAAXAEBVlocale@2@@Z
pdata	ENDS
;	COMDAT pdata
pdata	SEGMENT
$pdata$??R?$DenseCoeffsBase@V?$Matrix@N$0BM@$0BM@$0A@$0BM@$0BM@@Eigen@@$00@Eigen@@QEAAAEAN_J0@Z DD imagerel $LN22
	DD	imagerel $LN22+89
	DD	imagerel $unwind$??R?$DenseCoeffsBase@V?$Matrix@N$0BM@$0BM@$0A@$0BM@$0BM@@Eigen@@$00@Eigen@@QEAAAEAN_J0@Z
pdata	ENDS
;	COMDAT pdata
pdata	SEGMENT
$pdata$??_D?$basic_fstream@DU?$char_traits@D@std@@@std@@QEAAXXZ DD imagerel $LN20@vbase
	DD	imagerel $LN20@vbase+190
	DD	imagerel $unwind$??_D?$basic_fstream@DU?$char_traits@D@std@@@std@@QEAAXXZ
pdata	ENDS
;	COMDAT pdata
pdata	SEGMENT
$pdata$??$_Ungetc@D@std@@YA_NAEBDPEAU_iobuf@@@Z DD imagerel $LN4@Ungetc
	DD	imagerel $LN4@Ungetc+24
	DD	imagerel $unwind$??$_Ungetc@D@std@@YA_NAEBDPEAU_iobuf@@@Z
pdata	ENDS
;	COMDAT pdata
pdata	SEGMENT
$pdata$??$_Fputc@D@std@@YA_NDPEAU_iobuf@@@Z DD imagerel $LN4@Fputc
	DD	imagerel $LN4@Fputc+24
	DD	imagerel $unwind$??$_Fputc@D@std@@YA_NDPEAU_iobuf@@@Z
pdata	ENDS
;	COMDAT pdata
pdata	SEGMENT
$pdata$??$_Fgetc@D@std@@YA_NAEADPEAU_iobuf@@@Z DD imagerel $LN6@Fgetc
	DD	imagerel $LN6@Fgetc+41
	DD	imagerel $unwind$??$_Fgetc@D@std@@YA_NAEADPEAU_iobuf@@@Z
pdata	ENDS
;	COMDAT pdata
pdata	SEGMENT
$pdata$?_Getfacet@locale@std@@QEBAPEBVfacet@12@_K@Z DD imagerel $LN10@Getfacet
	DD	imagerel $LN10@Getfacet+98
	DD	imagerel $unwind$?_Getfacet@locale@std@@QEBAPEBVfacet@12@_K@Z
pdata	ENDS
;	COMDAT pdata
pdata	SEGMENT
$pdata$??1locale@std@@QEAA@XZ DD imagerel $LN8@locale
	DD	imagerel $LN8@locale+47
	DD	imagerel $unwind$??1locale@std@@QEAA@XZ
pdata	ENDS
;	COMDAT pdata
pdata	SEGMENT
$pdata$??0bad_cast@std@@QEAA@AEBV01@@Z DD imagerel $LN7@bad_cast
	DD	imagerel $LN7@bad_cast+63
	DD	imagerel $unwind$??0bad_cast@std@@QEAA@AEBV01@@Z
pdata	ENDS
;	COMDAT pdata
pdata	SEGMENT
$pdata$?_Throw_bad_cast@std@@YAXXZ DD imagerel $LN4@Throw_bad_
	DD	imagerel $LN4@Throw_bad_+32
	DD	imagerel $unwind$?_Throw_bad_cast@std@@YAXXZ
pdata	ENDS
;	COMDAT pdata
pdata	SEGMENT
$pdata$??_Gbad_cast@std@@UEAAPEAXI@Z DD imagerel $LN12@scalar
	DD	imagerel $LN12@scalar+67
	DD	imagerel $unwind$??_Gbad_cast@std@@UEAAPEAXI@Z
pdata	ENDS
;	COMDAT pdata
pdata	SEGMENT
$pdata$?_Xlen_string@std@@YAXXZ DD imagerel $LN4@Xlen_strin
	DD	imagerel $LN4@Xlen_strin+18
	DD	imagerel $unwind$?_Xlen_string@std@@YAXXZ
pdata	ENDS
;	COMDAT pdata
pdata	SEGMENT
$pdata$?_Adjust_manually_vector_aligned@std@@YAXAEAPEAXAEA_K@Z DD imagerel $LN13@Adjust_man
	DD	imagerel $LN13@Adjust_man+43
	DD	imagerel $unwind$?_Adjust_manually_vector_aligned@std@@YAXAEAPEAXAEA_K@Z
pdata	ENDS
;	COMDAT pdata
pdata	SEGMENT
$pdata$??0bad_array_new_length@std@@QEAA@AEBV01@@Z DD imagerel $LN10@bad_array_
	DD	imagerel $LN10@bad_array_+63
	DD	imagerel $unwind$??0bad_array_new_length@std@@QEAA@AEBV01@@Z
pdata	ENDS
;	COMDAT pdata
pdata	SEGMENT
$pdata$?_Throw_bad_array_new_length@std@@YAXXZ DD imagerel $LN4@Throw_bad_
	DD	imagerel $LN4@Throw_bad_+32
	DD	imagerel $unwind$?_Throw_bad_array_new_length@std@@YAXXZ
pdata	ENDS
;	COMDAT pdata
pdata	SEGMENT
$pdata$??_Gbad_array_new_length@std@@UEAAPEAXI@Z DD imagerel $LN15@scalar
	DD	imagerel $LN15@scalar+67
	DD	imagerel $unwind$??_Gbad_array_new_length@std@@UEAAPEAXI@Z
pdata	ENDS
;	COMDAT pdata
pdata	SEGMENT
$pdata$printf DD imagerel $LN6
	DD	imagerel $LN6+82
	DD	imagerel $unwind$printf
pdata	ENDS
;	COMDAT pdata
pdata	SEGMENT
$pdata$_vfprintf_l DD imagerel $LN4
	DD	imagerel $LN4+68
	DD	imagerel $unwind$_vfprintf_l
pdata	ENDS
;	COMDAT pdata
pdata	SEGMENT
$pdata$??0Data_Set@Mnist@@QEAA@PEBD0K@Z DD imagerel $LN219@Data_Set
	DD	imagerel $LN219@Data_Set+1126
	DD	imagerel $unwind$??0Data_Set@Mnist@@QEAA@PEBD0K@Z
pdata	ENDS
;	COMDAT pdata
pdata	SEGMENT
$pdata$?dtor$3@?0???0Data_Set@Mnist@@QEAA@PEBD0K@Z@4HA DD imagerel ?dtor$3@?0???0Data_Set@Mnist@@QEAA@PEBD0K@Z@4HA
	DD	imagerel ?dtor$3@?0???0Data_Set@Mnist@@QEAA@PEBD0K@Z@4HA+53
	DD	imagerel $unwind$?dtor$3@?0???0Data_Set@Mnist@@QEAA@PEBD0K@Z@4HA
pdata	ENDS
;	COMDAT pdata
pdata	SEGMENT
$pdata$?print_mnist_data@Mnist@@YAXPEBUData_Set@1@@Z DD imagerel $LN51
	DD	imagerel $LN51+31
	DD	imagerel $unwind$?print_mnist_data@Mnist@@YAXPEBUData_Set@1@@Z
pdata	ENDS
;	COMDAT pdata
pdata	SEGMENT
$pdata$7$?print_mnist_data@Mnist@@YAXPEBUData_Set@1@@Z DD imagerel $LN51+31
	DD	imagerel $LN51+367
	DD	imagerel $chain$7$?print_mnist_data@Mnist@@YAXPEBUData_Set@1@@Z
pdata	ENDS
;	COMDAT pdata
pdata	SEGMENT
$pdata$8$?print_mnist_data@Mnist@@YAXPEBUData_Set@1@@Z DD imagerel $LN51+367
	DD	imagerel $LN51+374
	DD	imagerel $chain$8$?print_mnist_data@Mnist@@YAXPEBUData_Set@1@@Z
pdata	ENDS
;	COMDAT xdata
xdata	SEGMENT
$chain$8$?print_mnist_data@Mnist@@YAXPEBUData_Set@1@@Z DD 021H
	DD	imagerel $LN51
	DD	imagerel $LN51+31
	DD	imagerel $unwind$?print_mnist_data@Mnist@@YAXPEBUData_Set@1@@Z
xdata	ENDS
;	COMDAT xdata
xdata	SEGMENT
$chain$7$?print_mnist_data@Mnist@@YAXPEBUData_Set@1@@Z DD 0102121H
	DD	046821H
	DD	0ae41cH
	DD	0bd418H
	DD	0cc414H
	DD	0d7410H
	DD	013640cH
	DD	0125408H
	DD	0113404H
	DD	imagerel $LN51
	DD	imagerel $LN51+31
	DD	imagerel $unwind$?print_mnist_data@Mnist@@YAXPEBUData_Set@1@@Z
xdata	ENDS
;	COMDAT xdata
xdata	SEGMENT
$unwind$?print_mnist_data@Mnist@@YAXPEBUData_Set@1@@Z DD 020901H
	DD	0f005d209H
xdata	ENDS
;	COMDAT xdata
xdata	SEGMENT
$unwind$?dtor$3@?0???0Data_Set@Mnist@@QEAA@PEBD0K@Z@4HA DQ 05002320600020601r ; 2.6336e+77
xdata	ENDS
;	COMDAT xdata
xdata	SEGMENT
$ip2state$??0Data_Set@Mnist@@QEAA@PEBD0K@Z DQ 03d06ac044802fa0er ; 1.00684e-14
	DQ	04a040655067e0805r		; 3.65827e+48
	DB	00H
xdata	ENDS
;	COMDAT xdata
xdata	SEGMENT
$stateUnwindMap$??0Data_Set@Mnist@@QEAA@PEBD0K@Z DW 0c08H
	DD	imagerel ??1?$Data@DV?$Matrix@N$0BM@$0BM@$0A@$0BM@$0BM@@Eigen@@@Neural@@QEAA@XZ
	DW	032a0H
	DD	imagerel ??_D?$basic_fstream@DU?$char_traits@D@std@@@std@@QEAAXXZ
	DW	0641H
	DB	03aH
	DD	imagerel ??_D?$basic_fstream@DU?$char_traits@D@std@@@std@@QEAAXXZ
	DW	036e0H
	DD	imagerel ?dtor$3@?0???0Data_Set@Mnist@@QEAA@PEBD0K@Z@4HA
xdata	ENDS
;	COMDAT xdata
xdata	SEGMENT
$cppxdata$??0Data_Set@Mnist@@QEAA@PEBD0K@Z DB 028H
	DD	imagerel $stateUnwindMap$??0Data_Set@Mnist@@QEAA@PEBD0K@Z
	DD	imagerel $ip2state$??0Data_Set@Mnist@@QEAA@PEBD0K@Z
xdata	ENDS
;	COMDAT xdata
xdata	SEGMENT
$unwind$??0Data_Set@Mnist@@QEAA@PEBD0K@Z DQ 0005e6826000d3719r ; 6.76574e-307
	DQ	000c5342100c66421r		; 6.03899e-305
	DQ	0e011f01300be0121r		; -6.01266e+154
	DQ	00000500c700dc00fr		; 4.34849e-310
	DD	imagerel __GSHandlerCheck_EH4
	DD	imagerel $cppxdata$??0Data_Set@Mnist@@QEAA@PEBD0K@Z
	DD	05d2H
xdata	ENDS
;	COMDAT xdata
xdata	SEGMENT
$unwind$_vfprintf_l DD 060f01H
	DD	09640fH
	DD	08340fH
	DD	0700b520fH
xdata	ENDS
;	COMDAT xdata
xdata	SEGMENT
$unwind$printf DD 031a01H
	DD	07016621aH
	DD	03015H
xdata	ENDS
;	COMDAT xdata
xdata	SEGMENT
$unwind$??_Gbad_array_new_length@std@@UEAAPEAXI@Z DQ 00006340a00040a01r ; 8.62672e-309
	DD	07006320aH
xdata	ENDS
;	COMDAT xdata
xdata	SEGMENT
$unwind$?_Throw_bad_array_new_length@std@@YAXXZ DQ 00000820400010401r ; 7.06285e-310
xdata	ENDS
;	COMDAT xdata
xdata	SEGMENT
$unwind$??0bad_array_new_length@std@@QEAA@AEBV01@@Z DQ 03002320600020601r ; 1.96423e-77
xdata	ENDS
;	COMDAT xdata
xdata	SEGMENT
$unwind$?_Adjust_manually_vector_aligned@std@@YAXAEAPEAXAEA_K@Z DQ 00000420400010401r ; 3.58617e-310
xdata	ENDS
;	COMDAT xdata
xdata	SEGMENT
$unwind$?_Xlen_string@std@@YAXXZ DQ 00000420400010401r ; 3.58617e-310
xdata	ENDS
;	COMDAT xdata
xdata	SEGMENT
$unwind$??_Gbad_cast@std@@UEAAPEAXI@Z DQ 00006340a00040a01r ; 8.62672e-309
	DD	07006320aH
xdata	ENDS
;	COMDAT xdata
xdata	SEGMENT
$unwind$?_Throw_bad_cast@std@@YAXXZ DQ 00000820400010401r ; 7.06285e-310
xdata	ENDS
;	COMDAT xdata
xdata	SEGMENT
$unwind$??0bad_cast@std@@QEAA@AEBV01@@Z DQ 03002320600020601r ; 1.96423e-77
xdata	ENDS
;	COMDAT xdata
xdata	SEGMENT
$unwind$??1locale@std@@QEAA@XZ DQ 00000420400010401r ; 3.58617e-310
xdata	ENDS
;	COMDAT xdata
xdata	SEGMENT
$unwind$?_Getfacet@locale@std@@QEBAPEBVfacet@12@_K@Z DQ 00006340a00040a01r ; 8.62672e-309
	DD	07006320aH
xdata	ENDS
;	COMDAT xdata
xdata	SEGMENT
$unwind$??$_Fgetc@D@std@@YA_NAEADPEAU_iobuf@@@Z DQ 03002320600020601r ; 1.96423e-77
xdata	ENDS
;	COMDAT xdata
xdata	SEGMENT
$unwind$??$_Fputc@D@std@@YA_NDPEAU_iobuf@@@Z DQ 00000420400010401r ; 3.58617e-310
xdata	ENDS
;	COMDAT xdata
xdata	SEGMENT
$unwind$??$_Ungetc@D@std@@YA_NAEBDPEAU_iobuf@@@Z DQ 00000420400010401r ; 3.58617e-310
xdata	ENDS
;	COMDAT xdata
xdata	SEGMENT
$ip2state$??_D?$basic_fstream@DU?$char_traits@D@std@@@std@@QEAAXXZ DD 02023902H
xdata	ENDS
;	COMDAT xdata
xdata	SEGMENT
$stateUnwindMap$??_D?$basic_fstream@DU?$char_traits@D@std@@@std@@QEAAXXZ DW 0e02H
	DD	imagerel __std_terminate
xdata	ENDS
;	COMDAT xdata
xdata	SEGMENT
$cppxdata$??_D?$basic_fstream@DU?$char_traits@D@std@@@std@@QEAAXXZ DB 068H
	DD	imagerel $stateUnwindMap$??_D?$basic_fstream@DU?$char_traits@D@std@@@std@@QEAAXXZ
	DD	imagerel $ip2state$??_D?$basic_fstream@DU?$char_traits@D@std@@@std@@QEAAXXZ
xdata	ENDS
;	COMDAT xdata
xdata	SEGMENT
$unwind$??_D?$basic_fstream@DU?$char_traits@D@std@@@std@@QEAAXXZ DQ 00006340a00040a19r ; 8.62672e-309
	DD	07006320aH
	DD	imagerel __CxxFrameHandler4
	DD	imagerel $cppxdata$??_D?$basic_fstream@DU?$char_traits@D@std@@@std@@QEAAXXZ
xdata	ENDS
;	COMDAT xdata
xdata	SEGMENT
$unwind$??R?$DenseCoeffsBase@V?$Matrix@N$0BM@$0BM@$0A@$0BM@$0BM@@Eigen@@$00@Eigen@@QEAAAEAN_J0@Z DD 060f01H
	DD	07640fH
	DD	06340fH
	DD	0700b320fH
xdata	ENDS
;	COMDAT xdata
xdata	SEGMENT
$unwind$?imbue@?$basic_filebuf@DU?$char_traits@D@std@@@std@@MEAAXAEBVlocale@2@@Z DQ 00006340a00040a01r ; 8.62672e-309
	DD	07006320aH
xdata	ENDS
;	COMDAT xdata
xdata	SEGMENT
$unwind$?sync@?$basic_filebuf@DU?$char_traits@D@std@@@std@@MEAAHXZ DQ 03002320600020601r ; 1.96423e-77
xdata	ENDS
;	COMDAT xdata
xdata	SEGMENT
$chain$1$?setbuf@?$basic_filebuf@DU?$char_traits@D@std@@@std@@MEAAPEAV?$basic_streambuf@DU?$char_traits@D@std@@@2@PEAD_J@Z DD 021H
	DD	imagerel $LN19@setbuf
	DD	imagerel $LN19@setbuf+77
	DD	imagerel $unwind$?setbuf@?$basic_filebuf@DU?$char_traits@D@std@@@std@@MEAAPEAV?$basic_streambuf@DU?$char_traits@D@std@@@2@PEAD_J@Z
xdata	ENDS
;	COMDAT xdata
xdata	SEGMENT
$chain$0$?setbuf@?$basic_filebuf@DU?$char_traits@D@std@@@std@@MEAAPEAV?$basic_streambuf@DU?$char_traits@D@std@@@2@PEAD_J@Z DQ 00008740500020521r ; 1.17556e-308
	DD	imagerel $LN19@setbuf
	DD	imagerel $LN19@setbuf+77
	DD	imagerel $unwind$?setbuf@?$basic_filebuf@DU?$char_traits@D@std@@@std@@MEAAPEAV?$basic_streambuf@DU?$char_traits@D@std@@@2@PEAD_J@Z
xdata	ENDS
;	COMDAT xdata
xdata	SEGMENT
$unwind$?setbuf@?$basic_filebuf@DU?$char_traits@D@std@@@std@@MEAAPEAV?$basic_streambuf@DU?$char_traits@D@std@@@2@PEAD_J@Z DQ 06003820700031619r ; 3.26948e+154
	DD	03002H
	DD	imagerel __GSHandlerCheck
	DD	038H
xdata	ENDS
;	COMDAT xdata
xdata	SEGMENT
$unwind$?seekpos@?$basic_filebuf@DU?$char_traits@D@std@@@std@@MEAA?AV?$fpos@U_Mbstatet@@@2@V32@H@Z DQ 07004520800041719r ; 3.94348e+231
	DD	030026003H
	DD	imagerel __GSHandlerCheck
	DD	028H
xdata	ENDS
;	COMDAT xdata
xdata	SEGMENT
$unwind$?seekoff@?$basic_filebuf@DU?$char_traits@D@std@@@std@@MEAA?AV?$fpos@U_Mbstatet@@@2@_JHH@Z DQ 0e007520b00061a19r ; -3.90846e+154
	DQ	03002500360047005r		; 1.97688e-77
	DD	imagerel __GSHandlerCheck
	DD	028H
xdata	ENDS
;	COMDAT xdata
xdata	SEGMENT
$unwind$?xsputn@?$basic_filebuf@DU?$char_traits@D@std@@@std@@MEAA_JPEBD_J@Z DQ 0000be43e000a3e01r ; 1.65373e-308
	DQ	00008543100096436r		; 1.15827e-308
	DQ	030027003f0053209r		; 1.99037e-77
xdata	ENDS
;	COMDAT xdata
xdata	SEGMENT
$chain$2$?xsgetn@?$basic_filebuf@DU?$char_traits@D@std@@@std@@MEAA_JPEAD_J@Z DD 021H
	DD	imagerel $LN47@xsgetn
	DD	imagerel $LN47@xsgetn+93
	DD	imagerel $unwind$?xsgetn@?$basic_filebuf@DU?$char_traits@D@std@@@std@@MEAA_JPEAD_J@Z
xdata	ENDS
;	COMDAT xdata
xdata	SEGMENT
$chain$1$?xsgetn@?$basic_filebuf@DU?$char_traits@D@std@@@std@@MEAA_JPEAD_J@Z DQ 00004740500020521r ; 6.19294e-309
	DD	imagerel $LN47@xsgetn
	DD	imagerel $LN47@xsgetn+93
	DD	imagerel $unwind$?xsgetn@?$basic_filebuf@DU?$char_traits@D@std@@@std@@MEAA_JPEAD_J@Z
xdata	ENDS
;	COMDAT xdata
xdata	SEGMENT
$unwind$?xsgetn@?$basic_filebuf@DU?$char_traits@D@std@@@std@@MEAA_JPEAD_J@Z DQ 00005344100064101r ; 7.23722e-309
	DQ	050026003e0055209r		; 2.65961e+77
xdata	ENDS
;	COMDAT xdata
xdata	SEGMENT
$ip2state$?uflow@?$basic_filebuf@DU?$char_traits@D@std@@@std@@MEAAHXZ DD 04048d04H
	DW	045dH
	DB	00H
xdata	ENDS
;	COMDAT xdata
xdata	SEGMENT
$stateUnwindMap$?uflow@?$basic_filebuf@DU?$char_traits@D@std@@@std@@MEAAHXZ DW 0e04H
	DD	imagerel __std_terminate
	DB	032H
	DD	imagerel ??1?$basic_string@DU?$char_traits@D@std@@V?$allocator@D@2@@std@@QEAA@XZ
	DB	0b0H
xdata	ENDS
;	COMDAT xdata
xdata	SEGMENT
$cppxdata$?uflow@?$basic_filebuf@DU?$char_traits@D@std@@@std@@MEAAHXZ DB 028H
	DD	imagerel $stateUnwindMap$?uflow@?$basic_filebuf@DU?$char_traits@D@std@@@std@@MEAAHXZ
	DD	imagerel $ip2state$?uflow@?$basic_filebuf@DU?$char_traits@D@std@@@std@@MEAAHXZ
xdata	ENDS
;	COMDAT xdata
xdata	SEGMENT
$unwind$?uflow@?$basic_filebuf@DU?$char_traits@D@std@@@std@@MEAAHXZ DQ 00014741500062319r ; 2.8444e-308
	DQ	0500bf21500133415r		; 4.04485e+77
	DD	imagerel __GSHandlerCheck_EH4
	DD	imagerel $cppxdata$?uflow@?$basic_filebuf@DU?$char_traits@D@std@@@std@@MEAAHXZ
	DD	07aH
xdata	ENDS
;	COMDAT xdata
xdata	SEGMENT
$chain$2$?underflow@?$basic_filebuf@DU?$char_traits@D@std@@@std@@MEAAHXZ DQ 00006740000020021r ; 8.97417e-309
	DD	imagerel $LN22@underflow
	DD	imagerel $LN22@underflow+51
	DD	imagerel $unwind$?underflow@?$basic_filebuf@DU?$char_traits@D@std@@@std@@MEAAHXZ
xdata	ENDS
;	COMDAT xdata
xdata	SEGMENT
$chain$0$?underflow@?$basic_filebuf@DU?$char_traits@D@std@@@std@@MEAAHXZ DQ 00006740500020521r ; 8.97428e-309
	DD	imagerel $LN22@underflow
	DD	imagerel $LN22@underflow+51
	DD	imagerel $unwind$?underflow@?$basic_filebuf@DU?$char_traits@D@std@@@std@@MEAAHXZ
xdata	ENDS
;	COMDAT xdata
xdata	SEGMENT
$unwind$?underflow@?$basic_filebuf@DU?$char_traits@D@std@@@std@@MEAAHXZ DQ 03002320600020601r ; 1.96423e-77
xdata	ENDS
;	COMDAT xdata
xdata	SEGMENT
$unwind$?pbackfail@?$basic_filebuf@DU?$char_traits@D@std@@@std@@MEAAHH@Z DQ 00008340a00040a01r ; 1.14081e-308
	DD	07006320aH
xdata	ENDS
;	COMDAT xdata
xdata	SEGMENT
$chain$1$?overflow@?$basic_filebuf@DU?$char_traits@D@std@@@std@@MEAAHH@Z DD 021H
	DD	imagerel $LN49@overflow
	DD	imagerel $LN49@overflow+96
	DD	imagerel $unwind$?overflow@?$basic_filebuf@DU?$char_traits@D@std@@@std@@MEAAHH@Z
xdata	ENDS
;	COMDAT xdata
xdata	SEGMENT
$chain$0$?overflow@?$basic_filebuf@DU?$char_traits@D@std@@@std@@MEAAHH@Z DQ 00014640800020821r ; 2.83568e-308
	DD	imagerel $LN49@overflow
	DD	imagerel $LN49@overflow+96
	DD	imagerel $unwind$?overflow@?$basic_filebuf@DU?$char_traits@D@std@@@std@@MEAAHH@Z
xdata	ENDS
;	COMDAT xdata
xdata	SEGMENT
$unwind$?overflow@?$basic_filebuf@DU?$char_traits@D@std@@@std@@MEAAHH@Z DQ 00015340d00041c19r ; 2.94869e-308
	DD	07006f20dH
	DD	imagerel __GSHandlerCheck
	DD	078H
xdata	ENDS
;	COMDAT xdata
xdata	SEGMENT
$ip2state$??1?$basic_filebuf@DU?$char_traits@D@std@@@std@@UEAA@XZ DW 0aa02H
	DB	00H
xdata	ENDS
;	COMDAT xdata
xdata	SEGMENT
$cppxdata$??1?$basic_filebuf@DU?$char_traits@D@std@@@std@@UEAA@XZ DB 060H
	DD	imagerel $ip2state$??1?$basic_filebuf@DU?$char_traits@D@std@@@std@@UEAA@XZ
xdata	ENDS
;	COMDAT xdata
xdata	SEGMENT
$unwind$??1?$basic_filebuf@DU?$char_traits@D@std@@@std@@UEAA@XZ DQ 03002320600020619r ; 1.96423e-77
	DD	imagerel __CxxFrameHandler4
	DD	imagerel $cppxdata$??1?$basic_filebuf@DU?$char_traits@D@std@@@std@@UEAA@XZ
xdata	ENDS
;	COMDAT xdata
xdata	SEGMENT
$unwind$?close@?$basic_fstream@DU?$char_traits@D@std@@@std@@QEAAXXZ DQ 03002320600020601r ; 1.96423e-77
xdata	ENDS
;	COMDAT xdata
xdata	SEGMENT
$ip2state$??1?$basic_fstream@DU?$char_traits@D@std@@@std@@UEAA@XZ DD 02025102H
xdata	ENDS
;	COMDAT xdata
xdata	SEGMENT
$stateUnwindMap$??1?$basic_fstream@DU?$char_traits@D@std@@@std@@UEAA@XZ DW 0e02H
	DD	imagerel __std_terminate
xdata	ENDS
;	COMDAT xdata
xdata	SEGMENT
$cppxdata$??1?$basic_fstream@DU?$char_traits@D@std@@@std@@UEAA@XZ DB 068H
	DD	imagerel $stateUnwindMap$??1?$basic_fstream@DU?$char_traits@D@std@@@std@@UEAA@XZ
	DD	imagerel $ip2state$??1?$basic_fstream@DU?$char_traits@D@std@@@std@@UEAA@XZ
xdata	ENDS
;	COMDAT xdata
xdata	SEGMENT
$unwind$??1?$basic_fstream@DU?$char_traits@D@std@@@std@@UEAA@XZ DQ 00006340a00040a19r ; 8.62672e-309
	DD	07006320aH
	DD	imagerel __CxxFrameHandler4
	DD	imagerel $cppxdata$??1?$basic_fstream@DU?$char_traits@D@std@@@std@@UEAA@XZ
xdata	ENDS
;	COMDAT xdata
xdata	SEGMENT
$unwind$?dtor$0@?0???0?$basic_fstream@DU?$char_traits@D@std@@@std@@QEAA@PEBDHH@Z@4HA DQ 05002320600020601r ; 2.6336e+77
xdata	ENDS
;	COMDAT xdata
xdata	SEGMENT
$ip2state$??0?$basic_fstream@DU?$char_traits@D@std@@@std@@QEAA@PEBDHH@Z DQ 03804640238009010r ; 7.49035e-39
	DQ	008580a0259084c06r		; 1.82013e-268
	DW	082H
xdata	ENDS
;	COMDAT xdata
xdata	SEGMENT
$stateUnwindMap$??0?$basic_fstream@DU?$char_traits@D@std@@@std@@QEAA@PEBDHH@Z DW 0e0aH
	DD	imagerel ?dtor$0@?0???0?$basic_fstream@DU?$char_traits@D@std@@@std@@QEAA@PEBDHH@Z@4HA
	DB	02eH
	DD	imagerel ?dtor$1@?0???0?$basic_fstream@DU?$char_traits@D@std@@@std@@QEAA@PEBDHH@Z@4HA
	DB	02cH
	DD	imagerel ??1?$basic_streambuf@DU?$char_traits@D@std@@@std@@UEAA@XZ
	DW	05ea0H
	DD	imagerel ?dtor$2@?0???0?$basic_fstream@DU?$char_traits@D@std@@@std@@QEAA@PEBDHH@Z@4HA
	DB	02aH
	DD	imagerel ??1locale@std@@QEAA@XZ
	DB	080H
xdata	ENDS
;	COMDAT xdata
xdata	SEGMENT
$cppxdata$??0?$basic_fstream@DU?$char_traits@D@std@@@std@@QEAA@PEBDHH@Z DB 028H
	DD	imagerel $stateUnwindMap$??0?$basic_fstream@DU?$char_traits@D@std@@@std@@QEAA@PEBDHH@Z
	DD	imagerel $ip2state$??0?$basic_fstream@DU?$char_traits@D@std@@@std@@QEAA@PEBDHH@Z
xdata	ENDS
;	COMDAT xdata
xdata	SEGMENT
$unwind$??0?$basic_fstream@DU?$char_traits@D@std@@@std@@QEAA@PEBDHH@Z DQ 00014340c00061b19r ; 2.80962e-308
	DQ	0500660077008d20cr		; 3.23858e+77
	DD	imagerel __GSHandlerCheck_EH4
	DD	imagerel $cppxdata$??0?$basic_fstream@DU?$char_traits@D@std@@@std@@QEAA@PEBDHH@Z
	DD	06aH
xdata	ENDS
;	COMDAT xdata
xdata	SEGMENT
$unwind$?dtor$0@?0??Initialize@?$Data@DV?$Matrix@N$0BM@$0BM@$0A@$0BM@$0BM@@Eigen@@@Neural@@QEAAX_K@Z@4HA DQ 05002320600020601r ; 2.6336e+77
xdata	ENDS
;	COMDAT xdata
xdata	SEGMENT
$ip2state$?Initialize@?$Data@DV?$Matrix@N$0BM@$0BM@$0A@$0BM@$0BM@@Eigen@@@Neural@@QEAAX_K@Z DD 066003604H
	DB	02H
xdata	ENDS
;	COMDAT xdata
xdata	SEGMENT
$stateUnwindMap$?Initialize@?$Data@DV?$Matrix@N$0BM@$0BM@$0A@$0BM@$0BM@@Eigen@@@Neural@@QEAAX_K@Z DW 0e02H
	DD	imagerel ?dtor$0@?0??Initialize@?$Data@DV?$Matrix@N$0BM@$0BM@$0A@$0BM@$0BM@@Eigen@@@Neural@@QEAAX_K@Z@4HA
xdata	ENDS
;	COMDAT xdata
xdata	SEGMENT
$cppxdata$?Initialize@?$Data@DV?$Matrix@N$0BM@$0BM@$0A@$0BM@$0BM@@Eigen@@@Neural@@QEAAX_K@Z DB 028H
	DD	imagerel $stateUnwindMap$?Initialize@?$Data@DV?$Matrix@N$0BM@$0BM@$0A@$0BM@$0BM@@Eigen@@@Neural@@QEAAX_K@Z
	DD	imagerel $ip2state$?Initialize@?$Data@DV?$Matrix@N$0BM@$0BM@$0A@$0BM@$0BM@@Eigen@@@Neural@@QEAAX_K@Z
xdata	ENDS
;	COMDAT xdata
xdata	SEGMENT
$unwind$?Initialize@?$Data@DV?$Matrix@N$0BM@$0BM@$0A@$0BM@$0BM@@Eigen@@@Neural@@QEAAX_K@Z DQ 0000b541200081211r ; 1.57541e-308
	DQ	0e00e3212000a3412r		; -5.06071e+154
	DD	0600b700cH
	DD	imagerel __CxxFrameHandler4
	DD	imagerel $cppxdata$?Initialize@?$Data@DV?$Matrix@N$0BM@$0BM@$0A@$0BM@$0BM@@Eigen@@@Neural@@QEAAX_K@Z
xdata	ENDS
;	COMDAT xdata
xdata	SEGMENT
$unwind$??1?$basic_string@DU?$char_traits@D@std@@V?$allocator@D@2@@std@@QEAA@XZ DQ 03002320600020601r ; 1.96423e-77
xdata	ENDS
;	COMDAT xdata
xdata	SEGMENT
$ip2state$??0?$basic_string@DU?$char_traits@D@std@@V?$allocator@D@2@@std@@QEAA@XZ DB 00H
xdata	ENDS
;	COMDAT xdata
xdata	SEGMENT
$stateUnwindMap$??0?$basic_string@DU?$char_traits@D@std@@V?$allocator@D@2@@std@@QEAA@XZ DW 0e02H
	DD	imagerel __std_terminate
xdata	ENDS
;	COMDAT xdata
xdata	SEGMENT
$cppxdata$??0?$basic_string@DU?$char_traits@D@std@@V?$allocator@D@2@@std@@QEAA@XZ DB 068H
	DD	imagerel $stateUnwindMap$??0?$basic_string@DU?$char_traits@D@std@@V?$allocator@D@2@@std@@QEAA@XZ
	DD	imagerel $ip2state$??0?$basic_string@DU?$char_traits@D@std@@V?$allocator@D@2@@std@@QEAA@XZ
xdata	ENDS
;	COMDAT xdata
xdata	SEGMENT
$unwind$??0?$basic_string@DU?$char_traits@D@std@@V?$allocator@D@2@@std@@QEAA@XZ DD 019H
	DD	imagerel __CxxFrameHandler4
	DD	imagerel $cppxdata$??0?$basic_string@DU?$char_traits@D@std@@V?$allocator@D@2@@std@@QEAA@XZ
xdata	ENDS
;	COMDAT xdata
xdata	SEGMENT
$ip2state$??_G?$basic_filebuf@DU?$char_traits@D@std@@@std@@UEAAPEAXI@Z DW 0b202H
	DB	02H
xdata	ENDS
;	COMDAT xdata
xdata	SEGMENT
$stateUnwindMap$??_G?$basic_filebuf@DU?$char_traits@D@std@@@std@@UEAAPEAXI@Z DW 0e02H
	DD	imagerel __std_terminate
xdata	ENDS
;	COMDAT xdata
xdata	SEGMENT
$cppxdata$??_G?$basic_filebuf@DU?$char_traits@D@std@@@std@@UEAAPEAXI@Z DB 068H
	DD	imagerel $stateUnwindMap$??_G?$basic_filebuf@DU?$char_traits@D@std@@@std@@UEAAPEAXI@Z
	DD	imagerel $ip2state$??_G?$basic_filebuf@DU?$char_traits@D@std@@@std@@UEAAPEAXI@Z
xdata	ENDS
;	COMDAT xdata
xdata	SEGMENT
$unwind$??_G?$basic_filebuf@DU?$char_traits@D@std@@@std@@UEAAPEAXI@Z DQ 00006340a00040a19r ; 8.62672e-309
	DD	07006320aH
	DD	imagerel __CxxFrameHandler4
	DD	imagerel $cppxdata$??_G?$basic_filebuf@DU?$char_traits@D@std@@@std@@UEAAPEAXI@Z
xdata	ENDS
;	COMDAT xdata
xdata	SEGMENT
$unwind$??_G?$basic_fstream@DU?$char_traits@D@std@@@std@@UEAAPEAXI@Z DQ 00006340a00040a01r ; 8.62672e-309
	DD	07006320aH
xdata	ENDS
;	COMDAT xdata
xdata	SEGMENT
$unwind$??0?$Matrix@N$0BM@$0BM@$0A@$0BM@$0BM@@Eigen@@QEAA@XZ DQ 03002320600020601r ; 1.96423e-77
xdata	ENDS
;	COMDAT xdata
xdata	SEGMENT
$unwind$?_Initcvt@?$basic_filebuf@DU?$char_traits@D@std@@@std@@IEAAXAEBV?$codecvt@DDU_Mbstatet@@@2@@Z DQ 00006340a00040a01r ; 8.62672e-309
	DD	07006320aH
xdata	ENDS
;	COMDAT xdata
xdata	SEGMENT
$chain$3$?_Endwrite@?$basic_filebuf@DU?$char_traits@D@std@@@std@@IEAA_NXZ DD 021H
	DD	imagerel $LN20@Endwrite
	DD	imagerel $LN20@Endwrite+53
	DD	imagerel $unwind$?_Endwrite@?$basic_filebuf@DU?$char_traits@D@std@@@std@@IEAA_NXZ
xdata	ENDS
;	COMDAT xdata
xdata	SEGMENT
$chain$2$?_Endwrite@?$basic_filebuf@DU?$char_traits@D@std@@@std@@IEAA_NXZ DQ 0000f740000020021r ; 2.14902e-308
	DD	imagerel $LN20@Endwrite
	DD	imagerel $LN20@Endwrite+53
	DD	imagerel $unwind$?_Endwrite@?$basic_filebuf@DU?$char_traits@D@std@@@std@@IEAA_NXZ
xdata	ENDS
;	COMDAT xdata
xdata	SEGMENT
$chain$0$?_Endwrite@?$basic_filebuf@DU?$char_traits@D@std@@@std@@IEAA_NXZ DQ 0000f740500020521r ; 2.14903e-308
	DD	imagerel $LN20@Endwrite
	DD	imagerel $LN20@Endwrite+53
	DD	imagerel $unwind$?_Endwrite@?$basic_filebuf@DU?$char_traits@D@std@@@std@@IEAA_NXZ
xdata	ENDS
;	COMDAT xdata
xdata	SEGMENT
$unwind$?_Endwrite@?$basic_filebuf@DU?$char_traits@D@std@@@std@@IEAA_NXZ DQ 03002b20600021519r ; 2.01821e-77
	DD	imagerel __GSHandlerCheck
	DD	058H
xdata	ENDS
;	COMDAT xdata
xdata	SEGMENT
$unwind$?_Init@?$basic_filebuf@DU?$char_traits@D@std@@@std@@IEAAXPEAU_iobuf@@W4_Initfl@12@@Z DQ 0000d640f00061e19r ; 1.86223e-308
	DQ	0700b720f000c340fr		; 5.32621e+231
	DD	imagerel __GSHandlerCheck
	DD	038H
xdata	ENDS
;	COMDAT xdata
xdata	SEGMENT
$unwind$?close@?$basic_filebuf@DU?$char_traits@D@std@@@std@@QEAAPEAV12@XZ DQ 00008640f00060f01r ; 1.16689e-308
	DQ	0700b320f0007340fr		; 5.2777e+231
xdata	ENDS
;	COMDAT xdata
xdata	SEGMENT
$ip2state$?open@?$basic_filebuf@DU?$char_traits@D@std@@@std@@QEAAPEAV12@PEBDHH@Z DQ 00058020261007c06r ; 5.34192e-307
xdata	ENDS
;	COMDAT xdata
xdata	SEGMENT
$stateUnwindMap$?open@?$basic_filebuf@DU?$char_traits@D@std@@@std@@QEAAPEAV12@PEBDHH@Z DW 0a02H
	DD	imagerel ??1locale@std@@QEAA@XZ
	DB	060H
xdata	ENDS
;	COMDAT xdata
xdata	SEGMENT
$cppxdata$?open@?$basic_filebuf@DU?$char_traits@D@std@@@std@@QEAAPEAV12@PEBDHH@Z DB 028H
	DD	imagerel $stateUnwindMap$?open@?$basic_filebuf@DU?$char_traits@D@std@@@std@@QEAAPEAV12@PEBDHH@Z
	DD	imagerel $ip2state$?open@?$basic_filebuf@DU?$char_traits@D@std@@@std@@QEAAPEAV12@PEBDHH@Z
xdata	ENDS
;	COMDAT xdata
xdata	SEGMENT
$unwind$?open@?$basic_filebuf@DU?$char_traits@D@std@@@std@@QEAAPEAV12@PEBDHH@Z DQ 0000f640f00061e19r ; 2.14036e-308
	DQ	0700b920f000e340fr		; 5.35047e+231
	DD	imagerel __GSHandlerCheck_EH4
	DD	imagerel $cppxdata$?open@?$basic_filebuf@DU?$char_traits@D@std@@@std@@QEAAPEAV12@PEBDHH@Z
	DD	042H
xdata	ENDS
;	COMDAT xdata
xdata	SEGMENT
$ip2state$??0?$basic_filebuf@DU?$char_traits@D@std@@@std@@QEAA@XZ DD 038001c04H
	DB	02H
xdata	ENDS
;	COMDAT xdata
xdata	SEGMENT
$stateUnwindMap$??0?$basic_filebuf@DU?$char_traits@D@std@@@std@@QEAA@XZ DW 0c02H
	DD	imagerel ??1?$basic_streambuf@DU?$char_traits@D@std@@@std@@UEAA@XZ
	DB	040H
xdata	ENDS
;	COMDAT xdata
xdata	SEGMENT
$cppxdata$??0?$basic_filebuf@DU?$char_traits@D@std@@@std@@QEAA@XZ DB 028H
	DD	imagerel $stateUnwindMap$??0?$basic_filebuf@DU?$char_traits@D@std@@@std@@QEAA@XZ
	DD	imagerel $ip2state$??0?$basic_filebuf@DU?$char_traits@D@std@@@std@@QEAA@XZ
xdata	ENDS
;	COMDAT xdata
xdata	SEGMENT
$unwind$??0?$basic_filebuf@DU?$char_traits@D@std@@@std@@QEAA@XZ DQ 03002520600020611r ; 1.97773e-77
	DD	imagerel __CxxFrameHandler4
	DD	imagerel $cppxdata$??0?$basic_filebuf@DU?$char_traits@D@std@@@std@@QEAA@XZ
xdata	ENDS
;	COMDAT xdata
xdata	SEGMENT
$unwind$??0?$variable_if_dynamic@_J$0A@@internal@Eigen@@QEAA@_J@Z DQ 03002320600020601r ; 1.96423e-77
xdata	ENDS
;	COMDAT xdata
xdata	SEGMENT
$unwind$?_Tidy_deallocate@?$basic_string@DU?$char_traits@D@std@@V?$allocator@D@2@@std@@AEAAXXZ DQ 03002320600020601r ; 1.96423e-77
xdata	ENDS
;	COMDAT xdata
xdata	SEGMENT
$ip2state$?_Tidy_init@?$basic_string@DU?$char_traits@D@std@@V?$allocator@D@2@@std@@AEAAXXZ DB 00H
xdata	ENDS
;	COMDAT xdata
xdata	SEGMENT
$cppxdata$?_Tidy_init@?$basic_string@DU?$char_traits@D@std@@V?$allocator@D@2@@std@@AEAAXXZ DB 060H
	DD	imagerel $ip2state$?_Tidy_init@?$basic_string@DU?$char_traits@D@std@@V?$allocator@D@2@@std@@AEAAXXZ
xdata	ENDS
;	COMDAT xdata
xdata	SEGMENT
$unwind$?_Tidy_init@?$basic_string@DU?$char_traits@D@std@@V?$allocator@D@2@@std@@AEAAXXZ DD 019H
	DD	imagerel __CxxFrameHandler4
	DD	imagerel $cppxdata$?_Tidy_init@?$basic_string@DU?$char_traits@D@std@@V?$allocator@D@2@@std@@AEAAXXZ
xdata	ENDS
;	COMDAT xdata
xdata	SEGMENT
$unwind$??R<lambda_1>@?1??push_back@?$basic_string@DU?$char_traits@D@std@@V?$allocator@D@2@@std@@QEAAXD@Z@QEBA@QEADQEBD_KD@Z DQ 00006340a00040a01r ; 8.62672e-309
	DD	07006320aH
xdata	ENDS
;	COMDAT xdata
xdata	SEGMENT
$unwind$?erase@?$basic_string@DU?$char_traits@D@std@@V?$allocator@D@2@@std@@QEAAAEAV12@_K0@Z DQ 03002320600020601r ; 1.96423e-77
xdata	ENDS
;	COMDAT xdata
xdata	SEGMENT
$unwind$?allocate@?$allocator@D@std@@QEAAPEAD_K@Z DQ 00000420400010401r ; 3.58617e-310
xdata	ENDS
;	COMDAT xdata
xdata	SEGMENT
$unwind$?deallocate@?$allocator@D@std@@QEAAXQEAD_K@Z DQ 00000420400010401r ; 3.58617e-310
xdata	ENDS
;	COMDAT xdata
xdata	SEGMENT
$unwind$?copy@?$_Char_traits@DH@std@@SAPEADQEADQEBD_K@Z DQ 03002320600020601r ; 1.96423e-77
xdata	ENDS
;	COMDAT xdata
xdata	SEGMENT
$unwind$??0?$PlainObjectBase@V?$Matrix@N$0BM@$0BM@$0A@$0BM@$0BM@@Eigen@@@Eigen@@IEAA@XZ DQ 03002320600020601r ; 1.96423e-77
xdata	ENDS
;	COMDAT xdata
xdata	SEGMENT
$unwind$?_Erase_noexcept@?$basic_string@DU?$char_traits@D@std@@V?$allocator@D@2@@std@@AEAAAEAV12@_K_K@Z DQ 03002320600020601r ; 1.96423e-77
xdata	ENDS
;	COMDAT xdata
xdata	SEGMENT
$unwind$?move@?$_Char_traits@DH@std@@SAPEADQEADQEBD_K@Z DQ 03002320600020601r ; 1.96423e-77
xdata	ENDS
;	COMDAT xdata
xdata	SEGMENT
$unwind$??0?$DenseStorage@N$0DBA@$0BM@$0BM@$0A@@Eigen@@QEAA@XZ DQ 03002320600020601r ; 1.96423e-77
xdata	ENDS
;	COMDAT xdata
xdata	SEGMENT
$unwind$??0?$variable_if_dynamic@_J$0BM@@internal@Eigen@@QEAA@_J@Z DQ 03002320600020601r ; 1.96423e-77
xdata	ENDS
;	COMDAT xdata
xdata	SEGMENT
$unwind$?_Xran@?$_String_val@U?$_Simple_types@D@std@@@std@@SAXXZ DQ 00000420400010401r ; 3.58617e-310
xdata	ENDS
;	COMDAT xdata
xdata	SEGMENT
$unwind$?assign@?$_Char_traits@DH@std@@SAPEADQEAD_KD@Z DQ 03002320600020601r ; 1.96423e-77
xdata	ENDS
;	COMDAT xdata
xdata	SEGMENT
$unwind$??0?$plain_array@N$0DBA@$0A@$0CA@@internal@Eigen@@QEAA@XZ DQ 03002320600020601r ; 1.96423e-77
xdata	ENDS
;	COMDAT xdata
xdata	SEGMENT
$ip2state$??$use_facet@V?$codecvt@DDU_Mbstatet@@@std@@@std@@YAAEBV?$codecvt@DDU_Mbstatet@@@0@AEBVlocale@0@@Z DQ 060003a04e6028e08r ; 2.71955e+154
	DB	02H
xdata	ENDS
;	COMDAT xdata
xdata	SEGMENT
$stateUnwindMap$??$use_facet@V?$codecvt@DDU_Mbstatet@@@std@@@std@@YAAEBV?$codecvt@DDU_Mbstatet@@@0@AEBVlocale@0@@Z DW 0a04H
	DD	imagerel ??1_Lockit@std@@QEAA@XZ
	DW	03250H
	DD	imagerel ??1?$unique_ptr@V_Facet_base@std@@U?$default_delete@V_Facet_base@std@@@2@@std@@QEAA@XZ
	DB	060H
xdata	ENDS
;	COMDAT xdata
xdata	SEGMENT
$cppxdata$??$use_facet@V?$codecvt@DDU_Mbstatet@@@std@@@std@@YAAEBV?$codecvt@DDU_Mbstatet@@@0@AEBVlocale@0@@Z DB 028H
	DD	imagerel $stateUnwindMap$??$use_facet@V?$codecvt@DDU_Mbstatet@@@std@@@std@@YAAEBV?$codecvt@DDU_Mbstatet@@@0@AEBVlocale@0@@Z
	DD	imagerel $ip2state$??$use_facet@V?$codecvt@DDU_Mbstatet@@@std@@@std@@YAAEBV?$codecvt@DDU_Mbstatet@@@0@AEBVlocale@0@@Z
xdata	ENDS
;	COMDAT xdata
xdata	SEGMENT
$unwind$??$use_facet@V?$codecvt@DDU_Mbstatet@@@std@@@std@@YAAEBV?$codecvt@DDU_Mbstatet@@@0@AEBVlocale@0@@Z DQ 0000d641400082319r ; 1.86224e-308
	DQ	0000b3414000c5414r		; 1.55803e-308
	DD	070107214H
	DD	imagerel __GSHandlerCheck_EH4
	DD	imagerel $cppxdata$??$use_facet@V?$codecvt@DDU_Mbstatet@@@std@@@std@@YAAEBV?$codecvt@DDU_Mbstatet@@@0@AEBVlocale@0@@Z
	DD	03aH
xdata	ENDS
;	COMDAT xdata
xdata	SEGMENT
$chain$5$??$_Reallocate_grow_by@V<lambda_1>@?1??push_back@?$basic_string@DU?$char_traits@D@std@@V?$allocator@D@2@@std@@QEAAXD@Z@D@?$basic_string@DU?$char_traits@D@std@@V?$allocator@D@2@@std@@AEAAAEAV01@_KV<lambda_1>@?1??push_back@01@QEAAXD@Z@D@Z DD 021H
	DD	imagerel $LN118@Reallocate
	DD	imagerel $LN118@Reallocate+48
	DD	imagerel $unwind$??$_Reallocate_grow_by@V<lambda_1>@?1??push_back@?$basic_string@DU?$char_traits@D@std@@V?$allocator@D@2@@std@@QEAAXD@Z@D@?$basic_string@DU?$char_traits@D@std@@V?$allocator@D@2@@std@@AEAAAEAV01@_KV<lambda_1>@?1??push_back@01@QEAAXD@Z@D@Z
xdata	ENDS
;	COMDAT xdata
xdata	SEGMENT
$chain$4$??$_Reallocate_grow_by@V<lambda_1>@?1??push_back@?$basic_string@DU?$char_traits@D@std@@V?$allocator@D@2@@std@@QEAAXD@Z@D@?$basic_string@DU?$char_traits@D@std@@V?$allocator@D@2@@std@@AEAAAEAV01@_KV<lambda_1>@?1??push_back@01@QEAAXD@Z@D@Z DQ 00004c40000060021r ; 6.62742e-309
	DQ	0000b5400000c7400r		; 1.57537e-308
	DD	imagerel $LN118@Reallocate
	DD	imagerel $LN118@Reallocate+48
	DD	imagerel $unwind$??$_Reallocate_grow_by@V<lambda_1>@?1??push_back@?$basic_string@DU?$char_traits@D@std@@V?$allocator@D@2@@std@@QEAAXD@Z@D@?$basic_string@DU?$char_traits@D@std@@V?$allocator@D@2@@std@@AEAAAEAV01@_KV<lambda_1>@?1??push_back@01@QEAAXD@Z@D@Z
xdata	ENDS
;	COMDAT xdata
xdata	SEGMENT
$chain$2$??$_Reallocate_grow_by@V<lambda_1>@?1??push_back@?$basic_string@DU?$char_traits@D@std@@V?$allocator@D@2@@std@@QEAAXD@Z@D@?$basic_string@DU?$char_traits@D@std@@V?$allocator@D@2@@std@@AEAAAEAV01@_KV<lambda_1>@?1??push_back@01@QEAAXD@Z@D@Z DQ 0000c744500064521r ; 1.73197e-308
	DQ	0000b54050004c40er		; 1.57538e-308
	DD	imagerel $LN118@Reallocate
	DD	imagerel $LN118@Reallocate+48
	DD	imagerel $unwind$??$_Reallocate_grow_by@V<lambda_1>@?1??push_back@?$basic_string@DU?$char_traits@D@std@@V?$allocator@D@2@@std@@QEAAXD@Z@D@?$basic_string@DU?$char_traits@D@std@@V?$allocator@D@2@@std@@AEAAAEAV01@_KV<lambda_1>@?1??push_back@01@QEAAXD@Z@D@Z
xdata	ENDS
;	COMDAT xdata
xdata	SEGMENT
$unwind$??$_Reallocate_grow_by@V<lambda_1>@?1??push_back@?$basic_string@DU?$char_traits@D@std@@V?$allocator@D@2@@std@@QEAAXD@Z@D@?$basic_string@DU?$char_traits@D@std@@V?$allocator@D@2@@std@@AEAAAEAV01@_KV<lambda_1>@?1??push_back@01@QEAAXD@Z@D@Z DQ 0f007420b00050b01r ; -4.51355e+231
	DQ	0000030026003e005r		; 2.60801e-310
xdata	ENDS
;	COMDAT xdata
xdata	SEGMENT
$unwind$??$_Allocate@$0BA@U_Default_allocate_traits@std@@$0A@@std@@YAPEAX_K@Z DQ 00000420400010401r ; 3.58617e-310
xdata	ENDS
;	COMDAT xdata
xdata	SEGMENT
$unwind$??$_Deallocate@$0BA@$0A@@std@@YAXPEAX_K@Z DQ 00000420400010401r ; 3.58617e-310
xdata	ENDS
;	COMDAT xdata
xdata	SEGMENT
$unwind$??0?$CwiseNullaryOp@U?$scalar_constant_op@N@internal@Eigen@@$$CBV?$Matrix@N$0BM@$0BM@$0A@$0BM@$0BM@@3@@Eigen@@QEAA@_J0AEBU?$scalar_constant_op@N@internal@1@@Z DQ 00008741500081501r ; 1.1756e-308
	DQ	00006341500076415r		; 8.62695e-309
	DD	0e0113215H
xdata	ENDS
;	COMDAT xdata
xdata	SEGMENT
$unwind$??$_Allocate_manually_vector_aligned@U_Default_allocate_traits@std@@@std@@YAPEAX_K@Z DQ 00000420400010401r ; 3.58617e-310
xdata	ENDS
;	COMDAT xdata
xdata	SEGMENT
$unwind$??0?$variable_if_dynamic@_J$00@internal@Eigen@@QEAA@_J@Z DQ 03002320600020601r ; 1.96423e-77
; Function compile flags: /Ogtpy
; File C:\Users\marij\OneDrive\Desktop\Code_Stuff\Projects\AI\NeuralNetwork_0\src\mnist.cpp
; File C:\Users\marij\OneDrive\Desktop\Code_Stuff\Projects\AI\NeuralNetwork_0\dependencies\Eigen\src\Core\DenseCoeffsBase.h
; File C:\Users\marij\OneDrive\Desktop\Code_Stuff\Projects\AI\NeuralNetwork_0\src\mnist.cpp
;	COMDAT ?print_mnist_data@Mnist@@YAXPEBUData_Set@1@@Z
_TEXT	SEGMENT
i$1$ = 32
tv458 = 40
tv453 = 48
dat$ = 128
?print_mnist_data@Mnist@@YAXPEBUData_Set@1@@Z PROC	; Mnist::print_mnist_data, COMDAT

; 44   : void Mnist::print_mnist_data(const Data_Set* dat) {

$LN51:
  00000	48 8b c4	 mov	 rax, rsp
  00003	41 57		 push	 r15
  00005	48 83 ec 70	 sub	 rsp, 112		; 00000070H

; 45   : 	uint8 current;
; 46   : 	for (uint32 i = 0; i < dat->count; i++) {

  00009	48 83 79 10 00	 cmp	 QWORD PTR [rcx+16], 0
  0000e	4c 8b f9	 mov	 r15, rcx
  00011	c7 44 24 20 00
	00 00 00	 mov	 DWORD PTR i$1$[rsp], 0
  00019	0f 86 50 01 00
	00		 jbe	 $LN3@print_mnis
  0001f	48 89 58 10	 mov	 QWORD PTR [rax+16], rbx
  00023	48 89 68 18	 mov	 QWORD PTR [rax+24], rbp
  00027	48 89 70 20	 mov	 QWORD PTR [rax+32], rsi
  0002b	48 89 78 f0	 mov	 QWORD PTR [rax-16], rdi
  0002f	4c 89 60 e8	 mov	 QWORD PTR [rax-24], r12
  00033	4c 89 68 e0	 mov	 QWORD PTR [rax-32], r13
  00037	4c 89 70 d8	 mov	 QWORD PTR [rax-40], r14
  0003b	c5 f8 29 70 c8	 vmovaps XMMWORD PTR [rax-56], xmm6
  00040	33 c0		 xor	 eax, eax
  00042	c5 fb 10 35 00
	00 00 00	 vmovsd	 xmm6, QWORD PTR __real@406fe00000000000
  0004a	48 89 44 24 30	 mov	 QWORD PTR tv453[rsp], rax
  0004f	90		 npad	 1
$LL4@print_mnis:
  00050	4c 69 e0 80 18
	00 00		 imul	 r12, rax, 6272		; 00001880H

; 47   : 		for (uint32 j = 0; j < 28; j++) {

  00057	45 33 f6	 xor	 r14d, r14d
  0005a	48 c7 44 24 28
	1c 00 00 00	 mov	 QWORD PTR tv458[rsp], 28
  00063	0f 1f 40 00 66
	0f 1f 84 00 00
	00 00 00	 npad	 13
$LL7@print_mnis:

; 48   : 			for (uint32 k = 0; k < 28; k++) {

  00070	33 db		 xor	 ebx, ebx
  00072	4c 8d 2d 00 00
	00 00		 lea	 r13, OFFSET FLAT:??_C@_09CIGFLNGD@?$BL?$FL0m?4?4?$BL?$FLm@
  00079	49 8b fe	 mov	 rdi, r14
  0007c	8d 6b 1c	 lea	 ebp, QWORD PTR [rbx+28]
  0007f	90		 npad	 1
$LL10@print_mnis:

; 49   : 				current = (uint8)std::round(dat->data[i](k, j) * 255);

  00080	49 8b 77 08	 mov	 rsi, QWORD PTR [r15+8]
  00084	49 03 f4	 add	 rsi, r12
; File C:\Users\marij\OneDrive\Desktop\Code_Stuff\Projects\AI\NeuralNetwork_0\dependencies\Eigen\src\Core\DenseCoeffsBase.h

; 366  :       eigen_assert(row >= 0 && row < rows()

  00087	48 83 fb 1b	 cmp	 rbx, 27
  0008b	77 09		 ja	 SHORT $LN18@print_mnis
  0008d	49 81 fe 7f 18
	00 00		 cmp	 r14, 6271		; 0000187fH
  00094	76 1a		 jbe	 SHORT $LN19@print_mnis
$LN18@print_mnis:
  00096	41 b8 6f 01 00
	00		 mov	 r8d, 367		; 0000016fH
  0009c	48 8d 15 00 00
	00 00		 lea	 rdx, OFFSET FLAT:??_C@_1OK@FPGGDFAL@?$AAC?$AA?3?$AA?2?$AAU?$AAs?$AAe?$AAr?$AAs?$AA?2?$AAm?$AAa?$AAr?$AAi?$AAj?$AA?2@
  000a3	48 8d 0d 00 00
	00 00		 lea	 rcx, OFFSET FLAT:??_C@_1GK@FICMDKNL@?$AAr?$AAo?$AAw?$AA?5?$AA?$DO?$AA?$DN?$AA?5?$AA0?$AA?5?$AA?$CG?$AA?$CG?$AA?5?$AAr?$AAo?$AAw@
  000aa	ff 15 00 00 00
	00		 call	 QWORD PTR __imp__wassert
$LN19@print_mnis:
; File C:\Users\marij\OneDrive\Desktop\Code_Stuff\Projects\AI\NeuralNetwork_0\src\mnist.cpp

; 49   : 				current = (uint8)std::round(dat->data[i](k, j) * 255);

  000b0	c5 cb 59 04 37	 vmulsd	 xmm0, xmm6, QWORD PTR [rdi+rsi]
  000b5	ff 15 00 00 00
	00		 call	 QWORD PTR __imp_round
  000bb	c5 fb 2c c0	 vcvttsd2si eax, xmm0

; 50   : 				if (current > 127) { printf("\033[7m..\033[m"); }  // "%02x", current

  000bf	3c 7f		 cmp	 al, 127			; 0000007fH
  000c1	76 09		 jbe	 SHORT $LN11@print_mnis
  000c3	48 8d 0d 00 00
	00 00		 lea	 rcx, OFFSET FLAT:??_C@_09CCKALEHK@?$BL?$FL7m?4?4?$BL?$FLm@
  000ca	eb 0d		 jmp	 SHORT $LN8@print_mnis
$LN11@print_mnis:

; 51   : 				else if (current != 0) { printf("\033[100m..\033[m"); }  // "%02x", current

  000cc	84 c0		 test	 al, al
  000ce	48 8d 0d 00 00
	00 00		 lea	 rcx, OFFSET FLAT:??_C@_0M@BAGGIMII@?$BL?$FL100m?4?4?$BL?$FLm@
  000d5	49 0f 44 cd	 cmove	 rcx, r13
$LN8@print_mnis:

; 48   : 			for (uint32 k = 0; k < 28; k++) {

  000d9	e8 00 00 00 00	 call	 printf
  000de	48 ff c3	 inc	 rbx
  000e1	48 83 c7 08	 add	 rdi, 8
  000e5	48 83 ed 01	 sub	 rbp, 1
  000e9	75 95		 jne	 SHORT $LL10@print_mnis

; 52   : 				else { printf("\033[0m..\033[m"); }  // "00"
; 53   : 			}
; 54   : 			printf("\n");

  000eb	48 8d 0d 00 00
	00 00		 lea	 rcx, OFFSET FLAT:??_C@_01EEMJAFIK@?6@
  000f2	e8 00 00 00 00	 call	 printf
  000f7	49 81 c6 e0 00
	00 00		 add	 r14, 224		; 000000e0H
  000fe	48 83 6c 24 28
	01		 sub	 QWORD PTR tv458[rsp], 1
  00104	0f 85 66 ff ff
	ff		 jne	 $LL7@print_mnis

; 55   : 		}
; 56   : 		printf(" => %d\n\n", dat->labels[i]);

  0010a	49 8b 07	 mov	 rax, QWORD PTR [r15]
  0010d	48 8b 4c 24 30	 mov	 rcx, QWORD PTR tv453[rsp]
  00112	0f be 14 08	 movsx	 edx, BYTE PTR [rax+rcx]
  00116	48 8d 0d 00 00
	00 00		 lea	 rcx, OFFSET FLAT:??_C@_08DACCFJBL@?5?$DN?$DO?5?$CFd?6?6@
  0011d	e8 00 00 00 00	 call	 printf
  00122	8b 4c 24 20	 mov	 ecx, DWORD PTR i$1$[rsp]
  00126	ff c1		 inc	 ecx
  00128	8b c1		 mov	 eax, ecx
  0012a	89 4c 24 20	 mov	 DWORD PTR i$1$[rsp], ecx
  0012e	48 89 44 24 30	 mov	 QWORD PTR tv453[rsp], rax
  00133	49 3b 47 10	 cmp	 rax, QWORD PTR [r15+16]
  00137	0f 82 13 ff ff
	ff		 jb	 $LL4@print_mnis

; 45   : 	uint8 current;
; 46   : 	for (uint32 i = 0; i < dat->count; i++) {

  0013d	c5 f8 28 74 24
	40		 vmovaps xmm6, XMMWORD PTR [rsp+64]
  00143	4c 8b 74 24 50	 mov	 r14, QWORD PTR [rsp+80]
  00148	4c 8b 6c 24 58	 mov	 r13, QWORD PTR [rsp+88]
  0014d	4c 8b 64 24 60	 mov	 r12, QWORD PTR [rsp+96]
  00152	48 8b 7c 24 68	 mov	 rdi, QWORD PTR [rsp+104]
  00157	48 8b b4 24 98
	00 00 00	 mov	 rsi, QWORD PTR [rsp+152]
  0015f	48 8b ac 24 90
	00 00 00	 mov	 rbp, QWORD PTR [rsp+144]
  00167	48 8b 9c 24 88
	00 00 00	 mov	 rbx, QWORD PTR [rsp+136]
$LN3@print_mnis:

; 57   : 	}
; 58   : }

  0016f	48 83 c4 70	 add	 rsp, 112		; 00000070H
  00173	41 5f		 pop	 r15
  00175	c3		 ret	 0
?print_mnist_data@Mnist@@YAXPEBUData_Set@1@@Z ENDP	; Mnist::print_mnist_data
_TEXT	ENDS
; Function compile flags: /Ogtpy
; File C:\Program Files (x86)\Windows Kits\10\Include\10.0.19041.0\ucrt\stdio.h
;	COMDAT _vfprintf_l
_TEXT	SEGMENT
_Stream$ = 64
_Format$ = 72
_Locale$dead$ = 80
_ArgList$ = 88
_vfprintf_l PROC					; COMDAT

; 644  :     {

$LN4:
  00000	48 89 5c 24 08	 mov	 QWORD PTR [rsp+8], rbx
  00005	48 89 74 24 10	 mov	 QWORD PTR [rsp+16], rsi
  0000a	57		 push	 rdi
  0000b	48 83 ec 30	 sub	 rsp, 48			; 00000030H
  0000f	49 8b d9	 mov	 rbx, r9
  00012	48 8b fa	 mov	 rdi, rdx
  00015	48 8b f1	 mov	 rsi, rcx

; 645  :         return __stdio_common_vfprintf(_CRT_INTERNAL_LOCAL_PRINTF_OPTIONS, _Stream, _Format, _Locale, _ArgList);

  00018	e8 00 00 00 00	 call	 __local_stdio_printf_options
  0001d	45 33 c9	 xor	 r9d, r9d
  00020	48 89 5c 24 20	 mov	 QWORD PTR [rsp+32], rbx
  00025	4c 8b c7	 mov	 r8, rdi
  00028	48 8b d6	 mov	 rdx, rsi
  0002b	48 8b 08	 mov	 rcx, QWORD PTR [rax]
  0002e	ff 15 00 00 00
	00		 call	 QWORD PTR __imp___stdio_common_vfprintf

; 646  :     }

  00034	48 8b 5c 24 40	 mov	 rbx, QWORD PTR [rsp+64]
  00039	48 8b 74 24 48	 mov	 rsi, QWORD PTR [rsp+72]
  0003e	48 83 c4 30	 add	 rsp, 48			; 00000030H
  00042	5f		 pop	 rdi
  00043	c3		 ret	 0
_vfprintf_l ENDP
_TEXT	ENDS
; Function compile flags: /Ogtpy
; File C:\Program Files (x86)\Windows Kits\10\Include\10.0.19041.0\ucrt\stdio.h
;	COMDAT printf
_TEXT	SEGMENT
_Format$ = 80
printf	PROC						; COMDAT

; 956  :     {

$LN6:
  00000	48 89 4c 24 08	 mov	 QWORD PTR [rsp+8], rcx
  00005	48 89 54 24 10	 mov	 QWORD PTR [rsp+16], rdx
  0000a	4c 89 44 24 18	 mov	 QWORD PTR [rsp+24], r8
  0000f	4c 89 4c 24 20	 mov	 QWORD PTR [rsp+32], r9
  00014	53		 push	 rbx
  00015	57		 push	 rdi
  00016	48 83 ec 38	 sub	 rsp, 56			; 00000038H

; 957  :         int _Result;
; 958  :         va_list _ArgList;
; 959  :         __crt_va_start(_ArgList, _Format);
; 960  :         _Result = _vfprintf_l(stdout, _Format, NULL, _ArgList);

  0001a	b9 01 00 00 00	 mov	 ecx, 1
  0001f	48 8d 7c 24 58	 lea	 rdi, QWORD PTR _Format$[rsp+8]
  00024	ff 15 00 00 00
	00		 call	 QWORD PTR __imp___acrt_iob_func
  0002a	48 8b d8	 mov	 rbx, rax

; 645  :         return __stdio_common_vfprintf(_CRT_INTERNAL_LOCAL_PRINTF_OPTIONS, _Stream, _Format, _Locale, _ArgList);

  0002d	e8 00 00 00 00	 call	 __local_stdio_printf_options
  00032	4c 8b 44 24 50	 mov	 r8, QWORD PTR _Format$[rsp]
  00037	45 33 c9	 xor	 r9d, r9d
  0003a	48 8b d3	 mov	 rdx, rbx
  0003d	48 89 7c 24 20	 mov	 QWORD PTR [rsp+32], rdi
  00042	48 8b 08	 mov	 rcx, QWORD PTR [rax]
  00045	ff 15 00 00 00
	00		 call	 QWORD PTR __imp___stdio_common_vfprintf

; 961  :         __crt_va_end(_ArgList);
; 962  :         return _Result;
; 963  :     }

  0004b	48 83 c4 38	 add	 rsp, 56			; 00000038H
  0004f	5f		 pop	 rdi
  00050	5b		 pop	 rbx
  00051	c3		 ret	 0
printf	ENDP
_TEXT	ENDS
; Function compile flags: /Ogtpy
; File C:\Users\marij\OneDrive\Desktop\Code_Stuff\Projects\AI\NeuralNetwork_0\dependencies\Eigen\src\Core\DenseCoeffsBase.h
; File C:\Users\marij\OneDrive\Desktop\Code_Stuff\Projects\AI\NeuralNetwork_0\dependencies\Eigen\src\Core\CoreEvaluators.h
; File C:\Users\marij\OneDrive\Desktop\Code_Stuff\Projects\AI\NeuralNetwork_0\dependencies\Eigen\src\Core\DenseCoeffsBase.h
; File C:\Users\marij\OneDrive\Desktop\Code_Stuff\Projects\AI\NeuralNetwork_0\dependencies\Eigen\src\Core\CoreEvaluators.h
; File C:\Users\marij\OneDrive\Desktop\Code_Stuff\Projects\AI\NeuralNetwork_0\dependencies\Eigen\src\Core\DenseCoeffsBase.h
;	COMDAT ??R?$DenseCoeffsBase@V?$Matrix@N$0BM@$0BM@$0A@$0BM@$0BM@@Eigen@@$00@Eigen@@QEAAAEAN_J0@Z
_TEXT	SEGMENT
this$ = 48
row$ = 56
col$ = 64
??R?$DenseCoeffsBase@V?$Matrix@N$0BM@$0BM@$0A@$0BM@$0BM@@Eigen@@$00@Eigen@@QEAAAEAN_J0@Z PROC ; Eigen::DenseCoeffsBase<Eigen::Matrix<double,28,28,0,28,28>,1>::operator(), COMDAT

; 365  :     {

$LN22:
  00000	48 89 5c 24 08	 mov	 QWORD PTR [rsp+8], rbx
  00005	48 89 74 24 10	 mov	 QWORD PTR [rsp+16], rsi
  0000a	57		 push	 rdi
  0000b	48 83 ec 20	 sub	 rsp, 32			; 00000020H
  0000f	49 8b d8	 mov	 rbx, r8
  00012	48 8b fa	 mov	 rdi, rdx
  00015	48 8b f1	 mov	 rsi, rcx

; 366  :       eigen_assert(row >= 0 && row < rows()

  00018	48 83 fa 1b	 cmp	 rdx, 27
  0001c	77 06		 ja	 SHORT $LN3@operator
  0001e	48 83 fb 1b	 cmp	 rbx, 27
  00022	76 1a		 jbe	 SHORT $LN4@operator
$LN3@operator:
  00024	41 b8 6f 01 00
	00		 mov	 r8d, 367		; 0000016fH
  0002a	48 8d 15 00 00
	00 00		 lea	 rdx, OFFSET FLAT:??_C@_1OK@FPGGDFAL@?$AAC?$AA?3?$AA?2?$AAU?$AAs?$AAe?$AAr?$AAs?$AA?2?$AAm?$AAa?$AAr?$AAi?$AAj?$AA?2@
  00031	48 8d 0d 00 00
	00 00		 lea	 rcx, OFFSET FLAT:??_C@_1GK@FICMDKNL@?$AAr?$AAo?$AAw?$AA?5?$AA?$DO?$AA?$DN?$AA?5?$AA0?$AA?5?$AA?$CG?$AA?$CG?$AA?5?$AAr?$AAo?$AAw@
  00038	ff 15 00 00 00
	00		 call	 QWORD PTR __imp__wassert
$LN4@operator:
; File C:\Users\marij\OneDrive\Desktop\Code_Stuff\Projects\AI\NeuralNetwork_0\dependencies\Eigen\src\Core\CoreEvaluators.h

; 222  :       return const_cast<Scalar*>(m_d.data)[row + col * m_d.outerStride()];

  0003e	48 6b c3 1c	 imul	 rax, rbx, 28
; File C:\Users\marij\OneDrive\Desktop\Code_Stuff\Projects\AI\NeuralNetwork_0\dependencies\Eigen\src\Core\DenseCoeffsBase.h

; 369  :     }

  00042	48 8b 5c 24 30	 mov	 rbx, QWORD PTR [rsp+48]
; File C:\Users\marij\OneDrive\Desktop\Code_Stuff\Projects\AI\NeuralNetwork_0\dependencies\Eigen\src\Core\CoreEvaluators.h

; 222  :       return const_cast<Scalar*>(m_d.data)[row + col * m_d.outerStride()];

  00047	48 03 c7	 add	 rax, rdi
  0004a	48 8d 04 c6	 lea	 rax, QWORD PTR [rsi+rax*8]
; File C:\Users\marij\OneDrive\Desktop\Code_Stuff\Projects\AI\NeuralNetwork_0\dependencies\Eigen\src\Core\DenseCoeffsBase.h

; 369  :     }

  0004e	48 8b 74 24 38	 mov	 rsi, QWORD PTR [rsp+56]
  00053	48 83 c4 20	 add	 rsp, 32			; 00000020H
  00057	5f		 pop	 rdi
  00058	c3		 ret	 0
??R?$DenseCoeffsBase@V?$Matrix@N$0BM@$0BM@$0A@$0BM@$0BM@@Eigen@@$00@Eigen@@QEAAAEAN_J0@Z ENDP ; Eigen::DenseCoeffsBase<Eigen::Matrix<double,28,28,0,28,28>,1>::operator()
_TEXT	ENDS
; Function compile flags: /Ogtpy
; File C:\Users\marij\OneDrive\Desktop\Code_Stuff\Projects\AI\NeuralNetwork_0\dependencies\Eigen\src\Core\DenseCoeffsBase.h
; File C:\Users\marij\OneDrive\Desktop\Code_Stuff\Projects\AI\NeuralNetwork_0\dependencies\Eigen\src\Core\CoreEvaluators.h
; File C:\Users\marij\OneDrive\Desktop\Code_Stuff\Projects\AI\NeuralNetwork_0\dependencies\Eigen\src\Core\DenseCoeffsBase.h
;	COMDAT ?coeffRef@?$DenseCoeffsBase@V?$Matrix@N$0BM@$0BM@$0A@$0BM@$0BM@@Eigen@@$00@Eigen@@QEAAAEAN_J0@Z
_TEXT	SEGMENT
this$ = 8
row$ = 16
col$ = 24
?coeffRef@?$DenseCoeffsBase@V?$Matrix@N$0BM@$0BM@$0A@$0BM@$0BM@@Eigen@@$00@Eigen@@QEAAAEAN_J0@Z PROC ; Eigen::DenseCoeffsBase<Eigen::Matrix<double,28,28,0,28,28>,1>::coeffRef, COMDAT
; File C:\Users\marij\OneDrive\Desktop\Code_Stuff\Projects\AI\NeuralNetwork_0\dependencies\Eigen\src\Core\CoreEvaluators.h

; 222  :       return const_cast<Scalar*>(m_d.data)[row + col * m_d.outerStride()];

  00000	49 6b c0 1c	 imul	 rax, r8, 28
  00004	48 03 c2	 add	 rax, rdx
  00007	48 8d 04 c1	 lea	 rax, QWORD PTR [rcx+rax*8]
; File C:\Users\marij\OneDrive\Desktop\Code_Stuff\Projects\AI\NeuralNetwork_0\dependencies\Eigen\src\Core\DenseCoeffsBase.h

; 347  :     }

  0000b	c3		 ret	 0
?coeffRef@?$DenseCoeffsBase@V?$Matrix@N$0BM@$0BM@$0A@$0BM@$0BM@@Eigen@@$00@Eigen@@QEAAAEAN_J0@Z ENDP ; Eigen::DenseCoeffsBase<Eigen::Matrix<double,28,28,0,28,28>,1>::coeffRef
_TEXT	ENDS
; Function compile flags: /Ogtpy
; File C:\Users\marij\OneDrive\Desktop\Code_Stuff\Projects\AI\NeuralNetwork_0\dependencies\Eigen\src\Core\EigenBase.h
;	COMDAT ?cols@?$EigenBase@V?$Matrix@N$0BM@$0BM@$0A@$0BM@$0BM@@Eigen@@@Eigen@@QEBA_JXZ
_TEXT	SEGMENT
this$dead$ = 8
?cols@?$EigenBase@V?$Matrix@N$0BM@$0BM@$0A@$0BM@$0BM@@Eigen@@@Eigen@@QEBA_JXZ PROC ; Eigen::EigenBase<Eigen::Matrix<double,28,28,0,28,28> >::cols, COMDAT

; 63   :   inline Index cols() const EIGEN_NOEXCEPT { return derived().cols(); }

  00000	b8 1c 00 00 00	 mov	 eax, 28
  00005	c3		 ret	 0
?cols@?$EigenBase@V?$Matrix@N$0BM@$0BM@$0A@$0BM@$0BM@@Eigen@@@Eigen@@QEBA_JXZ ENDP ; Eigen::EigenBase<Eigen::Matrix<double,28,28,0,28,28> >::cols
_TEXT	ENDS
; Function compile flags: /Ogtpy
; File C:\Users\marij\OneDrive\Desktop\Code_Stuff\Projects\AI\NeuralNetwork_0\dependencies\Eigen\src\Core\EigenBase.h
;	COMDAT ?rows@?$EigenBase@V?$Matrix@N$0BM@$0BM@$0A@$0BM@$0BM@@Eigen@@@Eigen@@QEBA_JXZ
_TEXT	SEGMENT
this$dead$ = 8
?rows@?$EigenBase@V?$Matrix@N$0BM@$0BM@$0A@$0BM@$0BM@@Eigen@@@Eigen@@QEBA_JXZ PROC ; Eigen::EigenBase<Eigen::Matrix<double,28,28,0,28,28> >::rows, COMDAT

; 60   :   inline Index rows() const EIGEN_NOEXCEPT { return derived().rows(); }

  00000	b8 1c 00 00 00	 mov	 eax, 28
  00005	c3		 ret	 0
?rows@?$EigenBase@V?$Matrix@N$0BM@$0BM@$0A@$0BM@$0BM@@Eigen@@@Eigen@@QEBA_JXZ ENDP ; Eigen::EigenBase<Eigen::Matrix<double,28,28,0,28,28> >::rows
_TEXT	ENDS
; Function compile flags: /Ogtpy
;	COMDAT ??1?$evaluator@V?$Matrix@N$0BM@$0BM@$0A@$0BM@$0BM@@Eigen@@@internal@Eigen@@QEAA@XZ
_TEXT	SEGMENT
this$ = 8
??1?$evaluator@V?$Matrix@N$0BM@$0BM@$0A@$0BM@$0BM@@Eigen@@@internal@Eigen@@QEAA@XZ PROC ; Eigen::internal::evaluator<Eigen::Matrix<double,28,28,0,28,28> >::~evaluator<Eigen::Matrix<double,28,28,0,28,28> >, COMDAT
  00000	c2 00 00	 ret	 0
??1?$evaluator@V?$Matrix@N$0BM@$0BM@$0A@$0BM@$0BM@@Eigen@@@internal@Eigen@@QEAA@XZ ENDP ; Eigen::internal::evaluator<Eigen::Matrix<double,28,28,0,28,28> >::~evaluator<Eigen::Matrix<double,28,28,0,28,28> >
_TEXT	ENDS
; Function compile flags: /Ogtpy
;	COMDAT ??1?$evaluator@V?$PlainObjectBase@V?$Matrix@N$0BM@$0BM@$0A@$0BM@$0BM@@Eigen@@@Eigen@@@internal@Eigen@@QEAA@XZ
_TEXT	SEGMENT
this$ = 8
??1?$evaluator@V?$PlainObjectBase@V?$Matrix@N$0BM@$0BM@$0A@$0BM@$0BM@@Eigen@@@Eigen@@@internal@Eigen@@QEAA@XZ PROC ; Eigen::internal::evaluator<Eigen::PlainObjectBase<Eigen::Matrix<double,28,28,0,28,28> > >::~evaluator<Eigen::PlainObjectBase<Eigen::Matrix<double,28,28,0,28,28> > >, COMDAT
  00000	c2 00 00	 ret	 0
??1?$evaluator@V?$PlainObjectBase@V?$Matrix@N$0BM@$0BM@$0A@$0BM@$0BM@@Eigen@@@Eigen@@@internal@Eigen@@QEAA@XZ ENDP ; Eigen::internal::evaluator<Eigen::PlainObjectBase<Eigen::Matrix<double,28,28,0,28,28> > >::~evaluator<Eigen::PlainObjectBase<Eigen::Matrix<double,28,28,0,28,28> > >
_TEXT	ENDS
; Function compile flags: /Ogtpy
; File C:\Users\marij\OneDrive\Desktop\Code_Stuff\Projects\AI\NeuralNetwork_0\dependencies\Eigen\src\Core\CoreEvaluators.h
;	COMDAT ??0?$evaluator@V?$Matrix@N$0BM@$0BM@$0A@$0BM@$0BM@@Eigen@@@internal@Eigen@@QEAA@AEBV?$Matrix@N$0BM@$0BM@$0A@$0BM@$0BM@@2@@Z
_TEXT	SEGMENT
this$ = 8
m$ = 16
??0?$evaluator@V?$Matrix@N$0BM@$0BM@$0A@$0BM@$0BM@@Eigen@@@internal@Eigen@@QEAA@AEBV?$Matrix@N$0BM@$0BM@$0A@$0BM@$0BM@@2@@Z PROC ; Eigen::internal::evaluator<Eigen::Matrix<double,28,28,0,28,28> >::evaluator<Eigen::Matrix<double,28,28,0,28,28> >, COMDAT

; 139  :   plainobjectbase_evaluator_data(const Scalar* ptr, Index outerStride) : data(ptr)

  00000	48 89 11	 mov	 QWORD PTR [rcx], rdx

; 284  :   { }

  00003	48 8b c1	 mov	 rax, rcx
  00006	c3		 ret	 0
??0?$evaluator@V?$Matrix@N$0BM@$0BM@$0A@$0BM@$0BM@@Eigen@@@internal@Eigen@@QEAA@AEBV?$Matrix@N$0BM@$0BM@$0A@$0BM@$0BM@@2@@Z ENDP ; Eigen::internal::evaluator<Eigen::Matrix<double,28,28,0,28,28> >::evaluator<Eigen::Matrix<double,28,28,0,28,28> >
_TEXT	ENDS
; Function compile flags: /Ogtpy
; File C:\Users\marij\OneDrive\Desktop\Code_Stuff\Projects\AI\NeuralNetwork_0\dependencies\Eigen\src\Core\CoreEvaluators.h
;	COMDAT ?coeffRef@?$evaluator@V?$PlainObjectBase@V?$Matrix@N$0BM@$0BM@$0A@$0BM@$0BM@@Eigen@@@Eigen@@@internal@Eigen@@QEAAAEAN_J0@Z
_TEXT	SEGMENT
this$ = 8
row$ = 16
col$ = 24
?coeffRef@?$evaluator@V?$PlainObjectBase@V?$Matrix@N$0BM@$0BM@$0A@$0BM@$0BM@@Eigen@@@Eigen@@@internal@Eigen@@QEAAAEAN_J0@Z PROC ; Eigen::internal::evaluator<Eigen::PlainObjectBase<Eigen::Matrix<double,28,28,0,28,28> > >::coeffRef, COMDAT

; 219  :     if (IsRowMajor)
; 220  :       return const_cast<Scalar*>(m_d.data)[row * m_d.outerStride() + col];
; 221  :     else
; 222  :       return const_cast<Scalar*>(m_d.data)[row + col * m_d.outerStride()];

  00000	48 8b 01	 mov	 rax, QWORD PTR [rcx]
  00003	4d 6b c0 1c	 imul	 r8, r8, 28
  00007	4c 03 c2	 add	 r8, rdx
  0000a	4a 8d 04 c0	 lea	 rax, QWORD PTR [rax+r8*8]

; 223  :   }

  0000e	c3		 ret	 0
?coeffRef@?$evaluator@V?$PlainObjectBase@V?$Matrix@N$0BM@$0BM@$0A@$0BM@$0BM@@Eigen@@@Eigen@@@internal@Eigen@@QEAAAEAN_J0@Z ENDP ; Eigen::internal::evaluator<Eigen::PlainObjectBase<Eigen::Matrix<double,28,28,0,28,28> > >::coeffRef
_TEXT	ENDS
; Function compile flags: /Ogtpy
; File C:\Users\marij\OneDrive\Desktop\Code_Stuff\Projects\AI\NeuralNetwork_0\dependencies\Eigen\src\Core\CoreEvaluators.h
;	COMDAT ??1?$evaluator_base@V?$Matrix@N$0BM@$0BM@$0A@$0BM@$0BM@@Eigen@@@internal@Eigen@@QEAA@XZ
_TEXT	SEGMENT
this$ = 8
??1?$evaluator_base@V?$Matrix@N$0BM@$0BM@$0A@$0BM@$0BM@@Eigen@@@internal@Eigen@@QEAA@XZ PROC ; Eigen::internal::evaluator_base<Eigen::Matrix<double,28,28,0,28,28> >::~evaluator_base<Eigen::Matrix<double,28,28,0,28,28> >, COMDAT

; 122  :   EIGEN_DEVICE_FUNC EIGEN_STRONG_INLINE ~evaluator_base() {}

  00000	c2 00 00	 ret	 0
??1?$evaluator_base@V?$Matrix@N$0BM@$0BM@$0A@$0BM@$0BM@@Eigen@@@internal@Eigen@@QEAA@XZ ENDP ; Eigen::internal::evaluator_base<Eigen::Matrix<double,28,28,0,28,28> >::~evaluator_base<Eigen::Matrix<double,28,28,0,28,28> >
_TEXT	ENDS
; Function compile flags: /Ogtpy
; File C:\Users\marij\OneDrive\Desktop\Code_Stuff\Projects\AI\NeuralNetwork_0\dependencies\Eigen\src\Core\PlainObjectBase.h
;	COMDAT ?cols@?$PlainObjectBase@V?$Matrix@N$0BM@$0BM@$0A@$0BM@$0BM@@Eigen@@@Eigen@@QEBA_JXZ
_TEXT	SEGMENT
this$dead$ = 8
?cols@?$PlainObjectBase@V?$Matrix@N$0BM@$0BM@$0A@$0BM@$0BM@@Eigen@@@Eigen@@QEBA_JXZ PROC ; Eigen::PlainObjectBase<Eigen::Matrix<double,28,28,0,28,28> >::cols, COMDAT

; 145  :     Index cols() const EIGEN_NOEXCEPT { return m_storage.cols(); }

  00000	b8 1c 00 00 00	 mov	 eax, 28
  00005	c3		 ret	 0
?cols@?$PlainObjectBase@V?$Matrix@N$0BM@$0BM@$0A@$0BM@$0BM@@Eigen@@@Eigen@@QEBA_JXZ ENDP ; Eigen::PlainObjectBase<Eigen::Matrix<double,28,28,0,28,28> >::cols
_TEXT	ENDS
; Function compile flags: /Ogtpy
; File C:\Users\marij\OneDrive\Desktop\Code_Stuff\Projects\AI\NeuralNetwork_0\dependencies\Eigen\src\Core\PlainObjectBase.h
;	COMDAT ?rows@?$PlainObjectBase@V?$Matrix@N$0BM@$0BM@$0A@$0BM@$0BM@@Eigen@@@Eigen@@QEBA_JXZ
_TEXT	SEGMENT
this$dead$ = 8
?rows@?$PlainObjectBase@V?$Matrix@N$0BM@$0BM@$0A@$0BM@$0BM@@Eigen@@@Eigen@@QEBA_JXZ PROC ; Eigen::PlainObjectBase<Eigen::Matrix<double,28,28,0,28,28> >::rows, COMDAT

; 143  :     Index rows() const EIGEN_NOEXCEPT { return m_storage.rows(); }

  00000	b8 1c 00 00 00	 mov	 eax, 28
  00005	c3		 ret	 0
?rows@?$PlainObjectBase@V?$Matrix@N$0BM@$0BM@$0A@$0BM@$0BM@@Eigen@@@Eigen@@QEBA_JXZ ENDP ; Eigen::PlainObjectBase<Eigen::Matrix<double,28,28,0,28,28> >::rows
_TEXT	ENDS
; Function compile flags: /Ogtpy
; File C:\Users\marij\OneDrive\Desktop\Code_Stuff\Projects\AI\NeuralNetwork_0\dependencies\Eigen\src\Core\EigenBase.h
;	COMDAT ?derived@?$EigenBase@V?$Matrix@N$0BM@$0BM@$0A@$0BM@$0BM@@Eigen@@@Eigen@@QEBAAEBV?$Matrix@N$0BM@$0BM@$0A@$0BM@$0BM@@2@XZ
_TEXT	SEGMENT
this$ = 8
?derived@?$EigenBase@V?$Matrix@N$0BM@$0BM@$0A@$0BM@$0BM@@Eigen@@@Eigen@@QEBAAEBV?$Matrix@N$0BM@$0BM@$0A@$0BM@$0BM@@2@XZ PROC ; Eigen::EigenBase<Eigen::Matrix<double,28,28,0,28,28> >::derived, COMDAT

; 49   :   const Derived& derived() const { return *static_cast<const Derived*>(this); }

  00000	48 8b c1	 mov	 rax, rcx
  00003	c3		 ret	 0
?derived@?$EigenBase@V?$Matrix@N$0BM@$0BM@$0A@$0BM@$0BM@@Eigen@@@Eigen@@QEBAAEBV?$Matrix@N$0BM@$0BM@$0A@$0BM@$0BM@@2@XZ ENDP ; Eigen::EigenBase<Eigen::Matrix<double,28,28,0,28,28> >::derived
_TEXT	ENDS
; Function compile flags: /Ogtpy
; File C:\Users\marij\OneDrive\Desktop\Code_Stuff\Projects\AI\NeuralNetwork_0\dependencies\Eigen\src\Core\EigenBase.h
;	COMDAT ?derived@?$EigenBase@V?$Matrix@N$0BM@$0BM@$0A@$0BM@$0BM@@Eigen@@@Eigen@@QEAAAEAV?$Matrix@N$0BM@$0BM@$0A@$0BM@$0BM@@2@XZ
_TEXT	SEGMENT
this$ = 8
?derived@?$EigenBase@V?$Matrix@N$0BM@$0BM@$0A@$0BM@$0BM@@Eigen@@@Eigen@@QEAAAEAV?$Matrix@N$0BM@$0BM@$0A@$0BM@$0BM@@2@XZ PROC ; Eigen::EigenBase<Eigen::Matrix<double,28,28,0,28,28> >::derived, COMDAT

; 46   :   Derived& derived() { return *static_cast<Derived*>(this); }

  00000	48 8b c1	 mov	 rax, rcx
  00003	c3		 ret	 0
?derived@?$EigenBase@V?$Matrix@N$0BM@$0BM@$0A@$0BM@$0BM@@Eigen@@@Eigen@@QEAAAEAV?$Matrix@N$0BM@$0BM@$0A@$0BM@$0BM@@2@XZ ENDP ; Eigen::EigenBase<Eigen::Matrix<double,28,28,0,28,28> >::derived
_TEXT	ENDS
; Function compile flags: /Ogtpy
; File C:\Users\marij\OneDrive\Desktop\Code_Stuff\Projects\AI\NeuralNetwork_0\dependencies\Eigen\src\Core\CoreEvaluators.h
;	COMDAT ?outerStride@?$plainobjectbase_evaluator_data@N$0BM@@internal@Eigen@@QEBA_JXZ
_TEXT	SEGMENT
this$dead$ = 8
?outerStride@?$plainobjectbase_evaluator_data@N$0BM@@internal@Eigen@@QEBA_JXZ PROC ; Eigen::internal::plainobjectbase_evaluator_data<double,28>::outerStride, COMDAT

; 147  :   Index outerStride() const EIGEN_NOEXCEPT { return OuterStride; }

  00000	b8 1c 00 00 00	 mov	 eax, 28
  00005	c3		 ret	 0
?outerStride@?$plainobjectbase_evaluator_data@N$0BM@@internal@Eigen@@QEBA_JXZ ENDP ; Eigen::internal::plainobjectbase_evaluator_data<double,28>::outerStride
_TEXT	ENDS
; Function compile flags: /Ogtpy
; File C:\Users\marij\OneDrive\Desktop\Code_Stuff\Projects\AI\NeuralNetwork_0\dependencies\Eigen\src\Core\CoreEvaluators.h
;	COMDAT ??0?$evaluator@V?$PlainObjectBase@V?$Matrix@N$0BM@$0BM@$0A@$0BM@$0BM@@Eigen@@@Eigen@@@internal@Eigen@@QEAA@AEBV?$PlainObjectBase@V?$Matrix@N$0BM@$0BM@$0A@$0BM@$0BM@@Eigen@@@2@@Z
_TEXT	SEGMENT
this$ = 8
m$ = 16
??0?$evaluator@V?$PlainObjectBase@V?$Matrix@N$0BM@$0BM@$0A@$0BM@$0BM@@Eigen@@@Eigen@@@internal@Eigen@@QEAA@AEBV?$PlainObjectBase@V?$Matrix@N$0BM@$0BM@$0A@$0BM@$0BM@@Eigen@@@2@@Z PROC ; Eigen::internal::evaluator<Eigen::PlainObjectBase<Eigen::Matrix<double,28,28,0,28,28> > >::evaluator<Eigen::PlainObjectBase<Eigen::Matrix<double,28,28,0,28,28> > >, COMDAT

; 139  :   plainobjectbase_evaluator_data(const Scalar* ptr, Index outerStride) : data(ptr)

  00000	48 89 11	 mov	 QWORD PTR [rcx], rdx

; 198  :     EIGEN_INTERNAL_CHECK_COST_VALUE(CoeffReadCost);
; 199  :   }

  00003	48 8b c1	 mov	 rax, rcx
  00006	c3		 ret	 0
??0?$evaluator@V?$PlainObjectBase@V?$Matrix@N$0BM@$0BM@$0A@$0BM@$0BM@@Eigen@@@Eigen@@@internal@Eigen@@QEAA@AEBV?$PlainObjectBase@V?$Matrix@N$0BM@$0BM@$0A@$0BM@$0BM@@Eigen@@@2@@Z ENDP ; Eigen::internal::evaluator<Eigen::PlainObjectBase<Eigen::Matrix<double,28,28,0,28,28> > >::evaluator<Eigen::PlainObjectBase<Eigen::Matrix<double,28,28,0,28,28> > >
_TEXT	ENDS
; Function compile flags: /Ogtpy
; File C:\Users\marij\OneDrive\Desktop\Code_Stuff\Projects\AI\NeuralNetwork_0\dependencies\Eigen\src\Core\CoreEvaluators.h
;	COMDAT ??0?$plainobjectbase_evaluator_data@N$0BM@@internal@Eigen@@QEAA@PEBN_J@Z
_TEXT	SEGMENT
this$ = 8
ptr$ = 16
outerStride$dead$ = 24
??0?$plainobjectbase_evaluator_data@N$0BM@@internal@Eigen@@QEAA@PEBN_J@Z PROC ; Eigen::internal::plainobjectbase_evaluator_data<double,28>::plainobjectbase_evaluator_data<double,28>, COMDAT

; 139  :   plainobjectbase_evaluator_data(const Scalar* ptr, Index outerStride) : data(ptr)

  00000	48 89 11	 mov	 QWORD PTR [rcx], rdx

; 141  : #ifndef EIGEN_INTERNAL_DEBUGGING
; 142  :     EIGEN_UNUSED_VARIABLE(outerStride);
; 143  : #endif
; 144  :     eigen_internal_assert(outerStride==OuterStride);
; 145  :   }

  00003	48 8b c1	 mov	 rax, rcx
  00006	c3		 ret	 0
??0?$plainobjectbase_evaluator_data@N$0BM@@internal@Eigen@@QEAA@PEBN_J@Z ENDP ; Eigen::internal::plainobjectbase_evaluator_data<double,28>::plainobjectbase_evaluator_data<double,28>
_TEXT	ENDS
; Function compile flags: /Ogtpy
; File C:\Users\marij\OneDrive\Desktop\Code_Stuff\Projects\AI\NeuralNetwork_0\dependencies\Eigen\src\Core\CoreEvaluators.h
;	COMDAT ??0?$evaluator_base@V?$Matrix@N$0BM@$0BM@$0A@$0BM@$0BM@@Eigen@@@internal@Eigen@@QEAA@XZ
_TEXT	SEGMENT
this$ = 8
??0?$evaluator_base@V?$Matrix@N$0BM@$0BM@$0A@$0BM@$0BM@@Eigen@@@internal@Eigen@@QEAA@XZ PROC ; Eigen::internal::evaluator_base<Eigen::Matrix<double,28,28,0,28,28> >::evaluator_base<Eigen::Matrix<double,28,28,0,28,28> >, COMDAT

; 121  :   EIGEN_DEVICE_FUNC EIGEN_STRONG_INLINE evaluator_base() {}

  00000	48 8b c1	 mov	 rax, rcx
  00003	c3		 ret	 0
??0?$evaluator_base@V?$Matrix@N$0BM@$0BM@$0A@$0BM@$0BM@@Eigen@@@internal@Eigen@@QEAA@XZ ENDP ; Eigen::internal::evaluator_base<Eigen::Matrix<double,28,28,0,28,28> >::evaluator_base<Eigen::Matrix<double,28,28,0,28,28> >
_TEXT	ENDS
; Function compile flags: /Ogtpy
; File C:\Users\marij\OneDrive\Desktop\Code_Stuff\Projects\AI\NeuralNetwork_0\dependencies\Eigen\src\Core\PlainObjectBase.h
;	COMDAT ?data@?$PlainObjectBase@V?$Matrix@N$0BM@$0BM@$0A@$0BM@$0BM@@Eigen@@@Eigen@@QEBAPEBNXZ
_TEXT	SEGMENT
this$ = 8
?data@?$PlainObjectBase@V?$Matrix@N$0BM@$0BM@$0A@$0BM@$0BM@@Eigen@@@Eigen@@QEBAPEBNXZ PROC ; Eigen::PlainObjectBase<Eigen::Matrix<double,28,28,0,28,28> >::data, COMDAT

; 248  :     { return m_storage.data(); }

  00000	48 8b c1	 mov	 rax, rcx
  00003	c3		 ret	 0
?data@?$PlainObjectBase@V?$Matrix@N$0BM@$0BM@$0A@$0BM@$0BM@@Eigen@@@Eigen@@QEBAPEBNXZ ENDP ; Eigen::PlainObjectBase<Eigen::Matrix<double,28,28,0,28,28> >::data
_TEXT	ENDS
; Function compile flags: /Ogtpy
; File C:\Users\marij\OneDrive\Desktop\Code_Stuff\Projects\AI\NeuralNetwork_0\dependencies\Eigen\src\Core\DenseCoeffsBase.h
;	COMDAT ?outerStride@?$DenseCoeffsBase@V?$Matrix@N$0BM@$0BM@$0A@$0BM@$0BM@@Eigen@@$02@Eigen@@QEBA_JXZ
_TEXT	SEGMENT
this$dead$ = 8
?outerStride@?$DenseCoeffsBase@V?$Matrix@N$0BM@$0BM@$0A@$0BM@$0BM@@Eigen@@$02@Eigen@@QEBA_JXZ PROC ; Eigen::DenseCoeffsBase<Eigen::Matrix<double,28,28,0,28,28>,3>::outerStride, COMDAT

; 587  :       return derived().outerStride();

  00000	b8 1c 00 00 00	 mov	 eax, 28

; 588  :     }

  00005	c3		 ret	 0
?outerStride@?$DenseCoeffsBase@V?$Matrix@N$0BM@$0BM@$0A@$0BM@$0BM@@Eigen@@$02@Eigen@@QEBA_JXZ ENDP ; Eigen::DenseCoeffsBase<Eigen::Matrix<double,28,28,0,28,28>,3>::outerStride
_TEXT	ENDS
; Function compile flags: /Ogtpy
; File C:\Users\marij\OneDrive\Desktop\Code_Stuff\Projects\AI\NeuralNetwork_0\dependencies\Eigen\src\Core\Matrix.h
;	COMDAT ?outerStride@?$Matrix@N$0BM@$0BM@$0A@$0BM@$0BM@@Eigen@@QEBA_JXZ
_TEXT	SEGMENT
this$dead$ = 8
?outerStride@?$Matrix@N$0BM@$0BM@$0A@$0BM@$0BM@@Eigen@@QEBA_JXZ PROC ; Eigen::Matrix<double,28,28,0,28,28>::outerStride, COMDAT

; 429  :     inline Index outerStride() const EIGEN_NOEXCEPT { return this->innerSize(); }

  00000	b8 1c 00 00 00	 mov	 eax, 28
  00005	c3		 ret	 0
?outerStride@?$Matrix@N$0BM@$0BM@$0A@$0BM@$0BM@@Eigen@@QEBA_JXZ ENDP ; Eigen::Matrix<double,28,28,0,28,28>::outerStride
_TEXT	ENDS
; Function compile flags: /Ogtpy
; File C:\Users\marij\OneDrive\Desktop\Code_Stuff\Projects\AI\NeuralNetwork_0\dependencies\Eigen\src\Core\DenseStorage.h
;	COMDAT ?data@?$DenseStorage@N$0DBA@$0BM@$0BM@$0A@@Eigen@@QEBAPEBNXZ
_TEXT	SEGMENT
this$ = 8
?data@?$DenseStorage@N$0DBA@$0BM@$0BM@$0A@@Eigen@@QEBAPEBNXZ PROC ; Eigen::DenseStorage<double,784,28,28,0>::data, COMDAT

; 266  :     EIGEN_DEVICE_FUNC const T *data() const { return m_data.array; }

  00000	48 8b c1	 mov	 rax, rcx
  00003	c3		 ret	 0
?data@?$DenseStorage@N$0DBA@$0BM@$0BM@$0A@@Eigen@@QEBAPEBNXZ ENDP ; Eigen::DenseStorage<double,784,28,28,0>::data
_TEXT	ENDS
; Function compile flags: /Ogtpy
; File C:\Users\marij\OneDrive\Desktop\Code_Stuff\Projects\AI\NeuralNetwork_0\dependencies\Eigen\src\Core\DenseBase.h
;	COMDAT ?innerSize@?$DenseBase@V?$Matrix@N$0BM@$0BM@$0A@$0BM@$0BM@@Eigen@@@Eigen@@QEBA_JXZ
_TEXT	SEGMENT
this$dead$ = 8
?innerSize@?$DenseBase@V?$Matrix@N$0BM@$0BM@$0A@$0BM@$0BM@@Eigen@@@Eigen@@QEBA_JXZ PROC ; Eigen::DenseBase<Eigen::Matrix<double,28,28,0,28,28> >::innerSize, COMDAT

; 237  :       return IsVectorAtCompileTime ? this->size()

  00000	b8 1c 00 00 00	 mov	 eax, 28

; 238  :            : int(IsRowMajor) ? this->cols() : this->rows();
; 239  :     }

  00005	c3		 ret	 0
?innerSize@?$DenseBase@V?$Matrix@N$0BM@$0BM@$0A@$0BM@$0BM@@Eigen@@@Eigen@@QEBA_JXZ ENDP ; Eigen::DenseBase<Eigen::Matrix<double,28,28,0,28,28> >::innerSize
_TEXT	ENDS
; Function compile flags: /Ogtpy
; File C:\Users\marij\OneDrive\Desktop\Code_Stuff\Projects\AI\NeuralNetwork_0\dependencies\Eigen\src\Core\EigenBase.h
;	COMDAT ?size@?$EigenBase@V?$Matrix@N$0BM@$0BM@$0A@$0BM@$0BM@@Eigen@@@Eigen@@QEBA_JXZ
_TEXT	SEGMENT
this$dead$ = 8
?size@?$EigenBase@V?$Matrix@N$0BM@$0BM@$0A@$0BM@$0BM@@Eigen@@@Eigen@@QEBA_JXZ PROC ; Eigen::EigenBase<Eigen::Matrix<double,28,28,0,28,28> >::size, COMDAT

; 67   :   inline Index size() const EIGEN_NOEXCEPT { return rows() * cols(); }

  00000	b8 10 03 00 00	 mov	 eax, 784		; 00000310H
  00005	c3		 ret	 0
?size@?$EigenBase@V?$Matrix@N$0BM@$0BM@$0A@$0BM@$0BM@@Eigen@@@Eigen@@QEBA_JXZ ENDP ; Eigen::EigenBase<Eigen::Matrix<double,28,28,0,28,28> >::size
_TEXT	ENDS
; Function compile flags: /Ogtpy
; File C:\Users\marij\OneDrive\Desktop\Code_Stuff\Projects\AI\NeuralNetwork_0\dependencies\Eigen\src\Core\util\Macros.h
;	COMDAT ??$ignore_unused_variable@_J@internal@Eigen@@YAXAEB_J@Z
_TEXT	SEGMENT
__formal$dead$ = 8
??$ignore_unused_variable@_J@internal@Eigen@@YAXAEB_J@Z PROC ; Eigen::internal::ignore_unused_variable<__int64>, COMDAT

; 1073 :     template<typename T> EIGEN_DEVICE_FUNC EIGEN_STRONG_INLINE void ignore_unused_variable(const T&) {}

  00000	c2 00 00	 ret	 0
??$ignore_unused_variable@_J@internal@Eigen@@YAXAEB_J@Z ENDP ; Eigen::internal::ignore_unused_variable<__int64>
_TEXT	ENDS
; Function compile flags: /Ogtpy
; File C:\Users\marij\OneDrive\Desktop\Code_Stuff\Projects\AI\NeuralNetwork_0\dependencies\Eigen\src\Core\PlainObjectBase.h
; File C:\Users\marij\OneDrive\Desktop\Code_Stuff\Projects\AI\NeuralNetwork_0\dependencies\Eigen\src\Core\CoreEvaluators.h
; File C:\Users\marij\OneDrive\Desktop\Code_Stuff\Projects\AI\NeuralNetwork_0\dependencies\Eigen\src\Core\functors\NullaryFunctors.h
; File C:\Users\marij\OneDrive\Desktop\Code_Stuff\Projects\AI\NeuralNetwork_0\dependencies\Eigen\src\Core\PlainObjectBase.h
; File C:\Users\marij\OneDrive\Desktop\Code_Stuff\Projects\AI\NeuralNetwork_0\dependencies\Eigen\src\Core\functors\BinaryFunctors.h
; File C:\Users\marij\OneDrive\Desktop\Code_Stuff\Projects\AI\NeuralNetwork_0\dependencies\Eigen\src\Core\functors\AssignmentFunctors.h
; File C:\Users\marij\OneDrive\Desktop\Code_Stuff\Projects\AI\NeuralNetwork_0\dependencies\Eigen\src\Core\MathFunctions.h
; File C:\Users\marij\OneDrive\Desktop\Code_Stuff\Projects\AI\NeuralNetwork_0\dependencies\Eigen\src\Core\functors\BinaryFunctors.h
; File C:\Users\marij\OneDrive\Desktop\Code_Stuff\Projects\AI\NeuralNetwork_0\dependencies\Eigen\src\Core\functors\AssignmentFunctors.h
; File C:\Users\marij\OneDrive\Desktop\Code_Stuff\Projects\AI\NeuralNetwork_0\dependencies\Eigen\src\Core\functors\BinaryFunctors.h
; File C:\Users\marij\OneDrive\Desktop\Code_Stuff\Projects\AI\NeuralNetwork_0\dependencies\Eigen\src\Core\MathFunctions.h
; File C:\Users\marij\OneDrive\Desktop\Code_Stuff\Projects\AI\NeuralNetwork_0\dependencies\Eigen\src\Core\functors\BinaryFunctors.h
; File C:\Users\marij\OneDrive\Desktop\Code_Stuff\Projects\AI\NeuralNetwork_0\dependencies\Eigen\src\Core\functors\AssignmentFunctors.h
; File C:\Users\marij\OneDrive\Desktop\Code_Stuff\Projects\AI\NeuralNetwork_0\dependencies\Eigen\src\Core\functors\BinaryFunctors.h
; File C:\Users\marij\OneDrive\Desktop\Code_Stuff\Projects\AI\NeuralNetwork_0\dependencies\Eigen\src\Core\MathFunctions.h
; File C:\Users\marij\OneDrive\Desktop\Code_Stuff\Projects\AI\NeuralNetwork_0\dependencies\Eigen\src\Core\functors\BinaryFunctors.h
; File C:\Users\marij\OneDrive\Desktop\Code_Stuff\Projects\AI\NeuralNetwork_0\dependencies\Eigen\src\Core\functors\AssignmentFunctors.h
; File C:\Users\marij\OneDrive\Desktop\Code_Stuff\Projects\AI\NeuralNetwork_0\dependencies\Eigen\src\Core\functors\BinaryFunctors.h
; File C:\Users\marij\OneDrive\Desktop\Code_Stuff\Projects\AI\NeuralNetwork_0\dependencies\Eigen\src\Core\MathFunctions.h
; File C:\Users\marij\OneDrive\Desktop\Code_Stuff\Projects\AI\NeuralNetwork_0\dependencies\Eigen\src\Core\functors\BinaryFunctors.h
; File C:\Users\marij\OneDrive\Desktop\Code_Stuff\Projects\AI\NeuralNetwork_0\dependencies\Eigen\src\Core\functors\AssignmentFunctors.h
; File C:\Users\marij\OneDrive\Desktop\Code_Stuff\Projects\AI\NeuralNetwork_0\dependencies\Eigen\src\Core\functors\BinaryFunctors.h
; File C:\Users\marij\OneDrive\Desktop\Code_Stuff\Projects\AI\NeuralNetwork_0\dependencies\Eigen\src\Core\MathFunctions.h
; File C:\Users\marij\OneDrive\Desktop\Code_Stuff\Projects\AI\NeuralNetwork_0\dependencies\Eigen\src\Core\functors\BinaryFunctors.h
; File C:\Users\marij\OneDrive\Desktop\Code_Stuff\Projects\AI\NeuralNetwork_0\dependencies\Eigen\src\Core\functors\AssignmentFunctors.h
; File C:\Users\marij\OneDrive\Desktop\Code_Stuff\Projects\AI\NeuralNetwork_0\dependencies\Eigen\src\Core\functors\BinaryFunctors.h
; File C:\Users\marij\OneDrive\Desktop\Code_Stuff\Projects\AI\NeuralNetwork_0\dependencies\Eigen\src\Core\MathFunctions.h
; File C:\Users\marij\OneDrive\Desktop\Code_Stuff\Projects\AI\NeuralNetwork_0\dependencies\Eigen\src\Core\functors\BinaryFunctors.h
; File C:\Users\marij\OneDrive\Desktop\Code_Stuff\Projects\AI\NeuralNetwork_0\dependencies\Eigen\src\Core\functors\AssignmentFunctors.h
; File C:\Users\marij\OneDrive\Desktop\Code_Stuff\Projects\AI\NeuralNetwork_0\dependencies\Eigen\src\Core\functors\BinaryFunctors.h
; File C:\Users\marij\OneDrive\Desktop\Code_Stuff\Projects\AI\NeuralNetwork_0\dependencies\Eigen\src\Core\MathFunctions.h
; File C:\Users\marij\OneDrive\Desktop\Code_Stuff\Projects\AI\NeuralNetwork_0\dependencies\Eigen\src\Core\functors\BinaryFunctors.h
; File C:\Users\marij\OneDrive\Desktop\Code_Stuff\Projects\AI\NeuralNetwork_0\dependencies\Eigen\src\Core\functors\AssignmentFunctors.h
; File C:\Users\marij\OneDrive\Desktop\Code_Stuff\Projects\AI\NeuralNetwork_0\dependencies\Eigen\src\Core\functors\BinaryFunctors.h
; File C:\Users\marij\OneDrive\Desktop\Code_Stuff\Projects\AI\NeuralNetwork_0\dependencies\Eigen\src\Core\functors\AssignmentFunctors.h
; File C:\Users\marij\OneDrive\Desktop\Code_Stuff\Projects\AI\NeuralNetwork_0\dependencies\Eigen\src\Core\MathFunctions.h
; File C:\Users\marij\OneDrive\Desktop\Code_Stuff\Projects\AI\NeuralNetwork_0\dependencies\Eigen\src\Core\functors\BinaryFunctors.h
; File C:\Users\marij\OneDrive\Desktop\Code_Stuff\Projects\AI\NeuralNetwork_0\dependencies\Eigen\src\Core\functors\AssignmentFunctors.h
; File C:\Users\marij\OneDrive\Desktop\Code_Stuff\Projects\AI\NeuralNetwork_0\dependencies\Eigen\src\Core\AssignEvaluator.h
; File C:\Users\marij\OneDrive\Desktop\Code_Stuff\Projects\AI\NeuralNetwork_0\dependencies\Eigen\src\Core\PlainObjectBase.h
;	COMDAT ??$_set@V?$CwiseBinaryOp@U?$scalar_quotient_op@NN@internal@Eigen@@$$CBV?$CwiseUnaryOp@U?$scalar_cast_op@EN@internal@Eigen@@$$CBV?$Map@V?$Matrix@E$0BM@$0BM@$0A@$0BM@$0BM@@Eigen@@$0A@V?$Stride@$0A@$0A@@2@@3@@3@$$CBV?$CwiseNullaryOp@U?$scalar_constant_op@N@internal@Eigen@@$$CBV?$Matrix@N$0BM@$0BM@$0A@$0BM@$0BM@@3@@3@@Eigen@@@?$PlainObjectBase@V?$Matrix@N$0BM@$0BM@$0A@$0BM@$0BM@@Eigen@@@Eigen@@IEAAAEAV?$Matrix@N$0BM@$0BM@$0A@$0BM@$0BM@@1@AEBV?$DenseBase@V?$CwiseBinaryOp@U?$scalar_quotient_op@NN@internal@Eigen@@$$CBV?$CwiseUnaryOp@U?$scalar_cast_op@EN@internal@Eigen@@$$CBV?$Map@V?$Matrix@E$0BM@$0BM@$0A@$0BM@$0BM@@Eigen@@$0A@V?$Stride@$0A@$0A@@2@@3@@3@$$CBV?$CwiseNullaryOp@U?$scalar_constant_op@N@internal@Eigen@@$$CBV?$Matrix@N$0BM@$0BM@$0A@$0BM@$0BM@@3@@3@@Eigen@@@1@@Z
_TEXT	SEGMENT
this$ = 8
other$ = 16
??$_set@V?$CwiseBinaryOp@U?$scalar_quotient_op@NN@internal@Eigen@@$$CBV?$CwiseUnaryOp@U?$scalar_cast_op@EN@internal@Eigen@@$$CBV?$Map@V?$Matrix@E$0BM@$0BM@$0A@$0BM@$0BM@@Eigen@@$0A@V?$Stride@$0A@$0A@@2@@3@@3@$$CBV?$CwiseNullaryOp@U?$scalar_constant_op@N@internal@Eigen@@$$CBV?$Matrix@N$0BM@$0BM@$0A@$0BM@$0BM@@3@@3@@Eigen@@@?$PlainObjectBase@V?$Matrix@N$0BM@$0BM@$0A@$0BM@$0BM@@Eigen@@@Eigen@@IEAAAEAV?$Matrix@N$0BM@$0BM@$0A@$0BM@$0BM@@1@AEBV?$DenseBase@V?$CwiseBinaryOp@U?$scalar_quotient_op@NN@internal@Eigen@@$$CBV?$CwiseUnaryOp@U?$scalar_cast_op@EN@internal@Eigen@@$$CBV?$Map@V?$Matrix@E$0BM@$0BM@$0A@$0BM@$0BM@@Eigen@@$0A@V?$Stride@$0A@$0A@@2@@3@@3@$$CBV?$CwiseNullaryOp@U?$scalar_constant_op@N@internal@Eigen@@$$CBV?$Matrix@N$0BM@$0BM@$0A@$0BM@$0BM@@3@@3@@Eigen@@@1@@Z PROC ; Eigen::PlainObjectBase<Eigen::Matrix<double,28,28,0,28,28> >::_set<Eigen::CwiseBinaryOp<Eigen::internal::scalar_quotient_op<double,double>,Eigen::CwiseUnaryOp<Eigen::internal::scalar_cast_op<unsigned char,double>,Eigen::Map<Eigen::Matrix<unsigned char,28,28,0,28,28>,0,Eigen::Stride<0,0> > const > const ,Eigen::CwiseNullaryOp<Eigen::internal::scalar_constant_op<double>,Eigen::Matrix<double,28,28,0,28,28> const > const > >, COMDAT
; File C:\Users\marij\OneDrive\Desktop\Code_Stuff\Projects\AI\NeuralNetwork_0\dependencies\Eigen\src\Core\CoreEvaluators.h

; 899  :     : m_data(const_cast<PointerType>(map.data())),

  00000	4c 8b 4a 10	 mov	 r9, QWORD PTR [rdx+16]
  00004	4c 8d 41 10	 lea	 r8, QWORD PTR [rcx+16]
; File C:\Users\marij\OneDrive\Desktop\Code_Stuff\Projects\AI\NeuralNetwork_0\dependencies\Eigen\src\Core\functors\NullaryFunctors.h

; 19   :   EIGEN_DEVICE_FUNC EIGEN_STRONG_INLINE scalar_constant_op(const scalar_constant_op& other) : m_other(other.m_other) { }

  00008	c5 fb 10 52 38	 vmovsd	 xmm2, QWORD PTR [rdx+56]
; File C:\Users\marij\OneDrive\Desktop\Code_Stuff\Projects\AI\NeuralNetwork_0\dependencies\Eigen\src\Core\PlainObjectBase.h

; 779  :       internal::call_assignment(this->derived(), other.derived());

  0000d	33 d2		 xor	 edx, edx
  0000f	90		 npad	 1
$LL58@set:
; File C:\Users\marij\OneDrive\Desktop\Code_Stuff\Projects\AI\NeuralNetwork_0\dependencies\Eigen\src\Core\functors\BinaryFunctors.h

; 388  :   EIGEN_DEVICE_FUNC EIGEN_STRONG_INLINE const result_type operator() (const LhsScalar& a, const RhsScalar& b) const { return a / b; }

  00010	41 0f b6 04 11	 movzx	 eax, BYTE PTR [r9+rdx]
; File C:\Users\marij\OneDrive\Desktop\Code_Stuff\Projects\AI\NeuralNetwork_0\dependencies\Eigen\src\Core\functors\AssignmentFunctors.h

; 24   :   EIGEN_DEVICE_FUNC EIGEN_STRONG_INLINE void assignCoeff(DstScalar& a, const SrcScalar& b) const { a = b; }

  00015	4d 8d 40 40	 lea	 r8, QWORD PTR [r8+64]
  00019	c5 f8 57 c0	 vxorps	 xmm0, xmm0, xmm0
; File C:\Users\marij\OneDrive\Desktop\Code_Stuff\Projects\AI\NeuralNetwork_0\dependencies\Eigen\src\Core\MathFunctions.h

; 436  :     return static_cast<NewType>(x);

  0001d	c5 fb 2a c0	 vcvtsi2sd xmm0, xmm0, eax
; File C:\Users\marij\OneDrive\Desktop\Code_Stuff\Projects\AI\NeuralNetwork_0\dependencies\Eigen\src\Core\functors\BinaryFunctors.h

; 388  :   EIGEN_DEVICE_FUNC EIGEN_STRONG_INLINE const result_type operator() (const LhsScalar& a, const RhsScalar& b) const { return a / b; }

  00021	c5 fb 5e ca	 vdivsd	 xmm1, xmm0, xmm2
; File C:\Users\marij\OneDrive\Desktop\Code_Stuff\Projects\AI\NeuralNetwork_0\dependencies\Eigen\src\Core\functors\AssignmentFunctors.h

; 24   :   EIGEN_DEVICE_FUNC EIGEN_STRONG_INLINE void assignCoeff(DstScalar& a, const SrcScalar& b) const { a = b; }

  00025	c4 c1 7b 11 48
	b0		 vmovsd	 QWORD PTR [r8-80], xmm1
; File C:\Users\marij\OneDrive\Desktop\Code_Stuff\Projects\AI\NeuralNetwork_0\dependencies\Eigen\src\Core\functors\BinaryFunctors.h

; 388  :   EIGEN_DEVICE_FUNC EIGEN_STRONG_INLINE const result_type operator() (const LhsScalar& a, const RhsScalar& b) const { return a / b; }

  0002b	41 0f b6 44 11
	01		 movzx	 eax, BYTE PTR [r9+rdx+1]
  00031	c5 f8 57 c0	 vxorps	 xmm0, xmm0, xmm0
; File C:\Users\marij\OneDrive\Desktop\Code_Stuff\Projects\AI\NeuralNetwork_0\dependencies\Eigen\src\Core\MathFunctions.h

; 436  :     return static_cast<NewType>(x);

  00035	c5 fb 2a c0	 vcvtsi2sd xmm0, xmm0, eax
; File C:\Users\marij\OneDrive\Desktop\Code_Stuff\Projects\AI\NeuralNetwork_0\dependencies\Eigen\src\Core\functors\BinaryFunctors.h

; 388  :   EIGEN_DEVICE_FUNC EIGEN_STRONG_INLINE const result_type operator() (const LhsScalar& a, const RhsScalar& b) const { return a / b; }

  00039	c5 fb 5e ca	 vdivsd	 xmm1, xmm0, xmm2
; File C:\Users\marij\OneDrive\Desktop\Code_Stuff\Projects\AI\NeuralNetwork_0\dependencies\Eigen\src\Core\functors\AssignmentFunctors.h

; 24   :   EIGEN_DEVICE_FUNC EIGEN_STRONG_INLINE void assignCoeff(DstScalar& a, const SrcScalar& b) const { a = b; }

  0003d	c4 c1 7b 11 48
	b8		 vmovsd	 QWORD PTR [r8-72], xmm1
; File C:\Users\marij\OneDrive\Desktop\Code_Stuff\Projects\AI\NeuralNetwork_0\dependencies\Eigen\src\Core\functors\BinaryFunctors.h

; 388  :   EIGEN_DEVICE_FUNC EIGEN_STRONG_INLINE const result_type operator() (const LhsScalar& a, const RhsScalar& b) const { return a / b; }

  00043	41 0f b6 44 11
	02		 movzx	 eax, BYTE PTR [r9+rdx+2]
  00049	c5 f8 57 c0	 vxorps	 xmm0, xmm0, xmm0
; File C:\Users\marij\OneDrive\Desktop\Code_Stuff\Projects\AI\NeuralNetwork_0\dependencies\Eigen\src\Core\MathFunctions.h

; 436  :     return static_cast<NewType>(x);

  0004d	c5 fb 2a c0	 vcvtsi2sd xmm0, xmm0, eax
; File C:\Users\marij\OneDrive\Desktop\Code_Stuff\Projects\AI\NeuralNetwork_0\dependencies\Eigen\src\Core\functors\BinaryFunctors.h

; 388  :   EIGEN_DEVICE_FUNC EIGEN_STRONG_INLINE const result_type operator() (const LhsScalar& a, const RhsScalar& b) const { return a / b; }

  00051	c5 fb 5e ca	 vdivsd	 xmm1, xmm0, xmm2
; File C:\Users\marij\OneDrive\Desktop\Code_Stuff\Projects\AI\NeuralNetwork_0\dependencies\Eigen\src\Core\functors\AssignmentFunctors.h

; 24   :   EIGEN_DEVICE_FUNC EIGEN_STRONG_INLINE void assignCoeff(DstScalar& a, const SrcScalar& b) const { a = b; }

  00055	c4 c1 7b 11 48
	c0		 vmovsd	 QWORD PTR [r8-64], xmm1
; File C:\Users\marij\OneDrive\Desktop\Code_Stuff\Projects\AI\NeuralNetwork_0\dependencies\Eigen\src\Core\functors\BinaryFunctors.h

; 388  :   EIGEN_DEVICE_FUNC EIGEN_STRONG_INLINE const result_type operator() (const LhsScalar& a, const RhsScalar& b) const { return a / b; }

  0005b	41 0f b6 44 11
	03		 movzx	 eax, BYTE PTR [r9+rdx+3]
  00061	c5 f8 57 c0	 vxorps	 xmm0, xmm0, xmm0
; File C:\Users\marij\OneDrive\Desktop\Code_Stuff\Projects\AI\NeuralNetwork_0\dependencies\Eigen\src\Core\MathFunctions.h

; 436  :     return static_cast<NewType>(x);

  00065	c5 fb 2a c0	 vcvtsi2sd xmm0, xmm0, eax
; File C:\Users\marij\OneDrive\Desktop\Code_Stuff\Projects\AI\NeuralNetwork_0\dependencies\Eigen\src\Core\functors\BinaryFunctors.h

; 388  :   EIGEN_DEVICE_FUNC EIGEN_STRONG_INLINE const result_type operator() (const LhsScalar& a, const RhsScalar& b) const { return a / b; }

  00069	c5 fb 5e ca	 vdivsd	 xmm1, xmm0, xmm2
; File C:\Users\marij\OneDrive\Desktop\Code_Stuff\Projects\AI\NeuralNetwork_0\dependencies\Eigen\src\Core\functors\AssignmentFunctors.h

; 24   :   EIGEN_DEVICE_FUNC EIGEN_STRONG_INLINE void assignCoeff(DstScalar& a, const SrcScalar& b) const { a = b; }

  0006d	c4 c1 7b 11 48
	c8		 vmovsd	 QWORD PTR [r8-56], xmm1
; File C:\Users\marij\OneDrive\Desktop\Code_Stuff\Projects\AI\NeuralNetwork_0\dependencies\Eigen\src\Core\functors\BinaryFunctors.h

; 388  :   EIGEN_DEVICE_FUNC EIGEN_STRONG_INLINE const result_type operator() (const LhsScalar& a, const RhsScalar& b) const { return a / b; }

  00073	41 0f b6 44 11
	04		 movzx	 eax, BYTE PTR [r9+rdx+4]
  00079	c5 f8 57 c0	 vxorps	 xmm0, xmm0, xmm0
; File C:\Users\marij\OneDrive\Desktop\Code_Stuff\Projects\AI\NeuralNetwork_0\dependencies\Eigen\src\Core\MathFunctions.h

; 436  :     return static_cast<NewType>(x);

  0007d	c5 fb 2a c0	 vcvtsi2sd xmm0, xmm0, eax
; File C:\Users\marij\OneDrive\Desktop\Code_Stuff\Projects\AI\NeuralNetwork_0\dependencies\Eigen\src\Core\functors\BinaryFunctors.h

; 388  :   EIGEN_DEVICE_FUNC EIGEN_STRONG_INLINE const result_type operator() (const LhsScalar& a, const RhsScalar& b) const { return a / b; }

  00081	c5 fb 5e ca	 vdivsd	 xmm1, xmm0, xmm2
; File C:\Users\marij\OneDrive\Desktop\Code_Stuff\Projects\AI\NeuralNetwork_0\dependencies\Eigen\src\Core\functors\AssignmentFunctors.h

; 24   :   EIGEN_DEVICE_FUNC EIGEN_STRONG_INLINE void assignCoeff(DstScalar& a, const SrcScalar& b) const { a = b; }

  00085	c4 c1 7b 11 48
	d0		 vmovsd	 QWORD PTR [r8-48], xmm1
; File C:\Users\marij\OneDrive\Desktop\Code_Stuff\Projects\AI\NeuralNetwork_0\dependencies\Eigen\src\Core\functors\BinaryFunctors.h

; 388  :   EIGEN_DEVICE_FUNC EIGEN_STRONG_INLINE const result_type operator() (const LhsScalar& a, const RhsScalar& b) const { return a / b; }

  0008b	41 0f b6 44 11
	05		 movzx	 eax, BYTE PTR [r9+rdx+5]
  00091	c5 f8 57 c0	 vxorps	 xmm0, xmm0, xmm0
; File C:\Users\marij\OneDrive\Desktop\Code_Stuff\Projects\AI\NeuralNetwork_0\dependencies\Eigen\src\Core\MathFunctions.h

; 436  :     return static_cast<NewType>(x);

  00095	c5 fb 2a c0	 vcvtsi2sd xmm0, xmm0, eax
; File C:\Users\marij\OneDrive\Desktop\Code_Stuff\Projects\AI\NeuralNetwork_0\dependencies\Eigen\src\Core\functors\BinaryFunctors.h

; 388  :   EIGEN_DEVICE_FUNC EIGEN_STRONG_INLINE const result_type operator() (const LhsScalar& a, const RhsScalar& b) const { return a / b; }

  00099	c5 fb 5e ca	 vdivsd	 xmm1, xmm0, xmm2
; File C:\Users\marij\OneDrive\Desktop\Code_Stuff\Projects\AI\NeuralNetwork_0\dependencies\Eigen\src\Core\functors\AssignmentFunctors.h

; 24   :   EIGEN_DEVICE_FUNC EIGEN_STRONG_INLINE void assignCoeff(DstScalar& a, const SrcScalar& b) const { a = b; }

  0009d	c4 c1 7b 11 48
	d8		 vmovsd	 QWORD PTR [r8-40], xmm1
; File C:\Users\marij\OneDrive\Desktop\Code_Stuff\Projects\AI\NeuralNetwork_0\dependencies\Eigen\src\Core\functors\BinaryFunctors.h

; 388  :   EIGEN_DEVICE_FUNC EIGEN_STRONG_INLINE const result_type operator() (const LhsScalar& a, const RhsScalar& b) const { return a / b; }

  000a3	41 0f b6 44 11
	06		 movzx	 eax, BYTE PTR [r9+rdx+6]
  000a9	c5 f8 57 c0	 vxorps	 xmm0, xmm0, xmm0
; File C:\Users\marij\OneDrive\Desktop\Code_Stuff\Projects\AI\NeuralNetwork_0\dependencies\Eigen\src\Core\MathFunctions.h

; 436  :     return static_cast<NewType>(x);

  000ad	c5 fb 2a c0	 vcvtsi2sd xmm0, xmm0, eax
; File C:\Users\marij\OneDrive\Desktop\Code_Stuff\Projects\AI\NeuralNetwork_0\dependencies\Eigen\src\Core\functors\BinaryFunctors.h

; 388  :   EIGEN_DEVICE_FUNC EIGEN_STRONG_INLINE const result_type operator() (const LhsScalar& a, const RhsScalar& b) const { return a / b; }

  000b1	c5 fb 5e ca	 vdivsd	 xmm1, xmm0, xmm2
