; Listing generated by Microsoft (R) Optimizing Compiler Version 19.33.31630.0 

include listing.inc

INCLUDELIB OLDNAMES

PUBLIC	??_C@_1BBE@FLFGDPIJ@?$AA?$CI?$AA?$CI?$AAS?$AAi?$AAz?$AAe?$AAA?$AAt?$AAC?$AAo?$AAm?$AAp?$AAi?$AAl?$AAe@ ; `string'
PUBLIC	??_C@_0BH@MBKJFFGJ@invalid?5matrix?5product@	; `string'
PUBLIC	??_C@_0FC@LDDJKCDG@if?5you?5wanted?5a?5coeff?9wise?5or?5a@ ; `string'
PUBLIC	??_C@_1LO@KHJPEOHM@?$AAC?$AA?3?$AA?2?$AAU?$AAs?$AAe?$AAr?$AAs?$AA?2?$AAm?$AAa?$AAr?$AAi?$AAj?$AA?2@ ; `string'
PUBLIC	??_C@_1BBI@CNLEDIFK@?$AAl?$AAh?$AAs?$AA?4?$AAc?$AAo?$AAl?$AAs?$AA?$CI?$AA?$CJ?$AA?5?$AA?$DN?$AA?$DN?$AA?5?$AAr@ ; `string'
PUBLIC	??_C@_1MA@PLHOEBAL@?$AAC?$AA?3?$AA?2?$AAU?$AAs?$AAe?$AAr?$AAs?$AA?2?$AAm?$AAa?$AAr?$AAi?$AAj?$AA?2@ ; `string'
PUBLIC	??_C@_1GK@LKBOOPMH@?$AAr?$AAe?$AAs?$AAh?$AAa?$AAp?$AAe?$AAR?$AAo?$AAw?$AAs?$AA?5?$AA?$CK?$AA?5?$AAr@ ; `string'
PUBLIC	??_C@_1LO@PAOHGOJK@?$AAC?$AA?3?$AA?2?$AAU?$AAs?$AAe?$AAr?$AAs?$AA?2?$AAm?$AAa?$AAr?$AAi?$AAj?$AA?2@ ; `string'
PUBLIC	??_C@_1BFE@KJEIGNKH@?$AA?$CI?$AAd?$AAa?$AAt?$AAa?$AAP?$AAt?$AAr?$AA?5?$AA?$DN?$AA?$DN?$AA?5?$AA0?$AA?$CJ?$AA?5@ ; `string'
PUBLIC	??_C@_0BE@KCPLGAEB@data?5is?5not?5aligned@	; `string'
PUBLIC	??_C@_1BIK@PCKBIHMA@?$AA?$CI?$AA?5?$AA?$CI?$AA?$CI?$AAi?$AAn?$AAt?$AAe?$AAr?$AAn?$AAa?$AAl?$AA?3?$AA?3?$AAU@ ; `string'
PUBLIC	??_C@_0HC@FBBJGPCH@aliasing?5detected?5during?5transp@ ; `string'
PUBLIC	??_C@_1MC@KHOOJFOF@?$AAC?$AA?3?$AA?2?$AAU?$AAs?$AAe?$AAr?$AAs?$AA?2?$AAm?$AAa?$AAr?$AAi?$AAj?$AA?2@ ; `string'
PUBLIC	??_C@_1CCG@OOFKGNBC@?$AA?$CI?$AA?$CB?$AAc?$AAh?$AAe?$AAc?$AAk?$AA_?$AAt?$AAr?$AAa?$AAn?$AAs?$AAp?$AAo@ ; `string'
PUBLIC	??_C@_1OI@KGKONHLF@?$AAC?$AA?3?$AA?2?$AAU?$AAs?$AAe?$AAr?$AAs?$AA?2?$AAm?$AAa?$AAr?$AAi?$AAj?$AA?2@ ; `string'
PUBLIC	??_C@_1GK@FBDACIID@?$AAd?$AAs?$AAt?$AA?4?$AAr?$AAo?$AAw?$AAs?$AA?$CI?$AA?$CJ?$AA?$DN?$AA?$DN?$AAa?$AA_?$AAl@ ; `string'
PUBLIC	??_C@_1LK@KAMNBCFI@?$AAC?$AA?3?$AA?2?$AAU?$AAs?$AAe?$AAr?$AAs?$AA?2?$AAm?$AAa?$AAr?$AAi?$AAj?$AA?2@ ; `string'
PUBLIC	??_C@_1BEO@BFPLGJIO@?$AA?$CI?$AAi?$AA?$DO?$AA?$DN?$AA0?$AA?$CJ?$AA?5?$AA?$CG?$AA?$CG?$AA?5?$AA?$CI?$AA?5?$AA?$CI?$AA?$CI?$AAB@ ; `string'
PUBLIC	??_C@_1MK@CEBCLKIO@?$AAC?$AA?3?$AA?2?$AAU?$AAs?$AAe?$AAr?$AAs?$AA?2?$AAm?$AAa?$AAr?$AAi?$AAj?$AA?2@ ; `string'
PUBLIC	??_C@_1BA@PDPDMLBM@?$AAi?$AAn?$AAc?$AAr?$AA?$DN?$AA?$DN?$AA1@ ; `string'
PUBLIC	??_C@_1BK@EKAFPBI@?$AAv?$AAe?$AAc?$AAS?$AAi?$AAz?$AAe?$AA?5?$AA?$DO?$AA?$DN?$AA?5?$AA0@ ; `string'
PUBLIC	??_C@_1JK@OJFHOODE@?$AAd?$AAa?$AAt?$AAa?$AAP?$AAt?$AAr?$AA?5?$AA?$DN?$AA?$DN?$AA?5?$AA0?$AA?5?$AA?$HM?$AA?$HM@ ; `string'
PUBLIC	??_C@_1BEC@CPKBGFIN@?$AA?$CI?$AA?$CI?$AAi?$AAn?$AAt?$AAe?$AAr?$AAn?$AAa?$AAl?$AA?3?$AA?3?$AAU?$AAI?$AAn@ ; `string'
PUBLIC	??_C@_1MM@KMOJCOAO@?$AAC?$AA?3?$AA?2?$AAU?$AAs?$AAe?$AAr?$AAs?$AA?2?$AAm?$AAa?$AAr?$AAi?$AAj?$AA?2@ ; `string'
PUBLIC	??_C@_1BEG@CCAEMDPE@?$AA?$CI?$AA?$CI?$AAi?$AAn?$AAt?$AAe?$AAr?$AAn?$AAa?$AAl?$AA?3?$AA?3?$AAU?$AAI?$AAn@ ; `string'
PUBLIC	??_C@_0BO@GLKCEIMH@you?5are?5using?5an?5empty?5matrix@ ; `string'
PUBLIC	??_C@_1LK@EBKKLAOP@?$AAC?$AA?3?$AA?2?$AAU?$AAs?$AAe?$AAr?$AAs?$AA?2?$AAm?$AAa?$AAr?$AAi?$AAj?$AA?2@ ; `string'
PUBLIC	??_C@_1IA@EEMANNOG@?$AAx?$AAp?$AAr?$AA?4?$AAr?$AAo?$AAw?$AAs?$AA?$CI?$AA?$CJ?$AA?$DO?$AA0?$AA?5?$AA?$CG?$AA?$CG@ ; `string'
PUBLIC	??_C@_1GK@DKFJDDPJ@?$AAd?$AAs?$AAt?$AA?4?$AAr?$AAo?$AAw?$AAs?$AA?$CI?$AA?$CJ?$AA?5?$AA?$DN?$AA?$DN?$AA?5?$AAs@ ; `string'
PUBLIC	??_C@_0DH@KAGLIBAG@DenseBase?3?3resize?$CI?$CJ?5does?5not?5ac@ ; `string'
PUBLIC	??_C@_1MC@KDADHJHG@?$AAC?$AA?3?$AA?2?$AAU?$AAs?$AAe?$AAr?$AAs?$AA?2?$AAm?$AAa?$AAr?$AAi?$AAj?$AA?2@ ; `string'
PUBLIC	??_C@_1NC@MFJLDIOP@?$AAr?$AAo?$AAw?$AAs?$AA?5?$AA?$DN?$AA?$DN?$AA?5?$AAt?$AAh?$AAi?$AAs?$AA?9?$AA?$DO?$AAr@ ; `string'
EXTRN	??_L@YAXPEAX_K1P6AX0@Z2@Z:PROC			; `eh vector constructor iterator'
EXTRN	_Init_thread_abort:PROC
EXTRN	_Init_thread_header:PROC
EXTRN	__imp_rand:PROC
EXTRN	_Init_thread_footer:PROC
EXTRN	??_M@YAXPEAX_K1P6AX0@Z@Z:PROC			; `eh vector destructor iterator'
EXTRN	_Init_thread_epoch:DWORD
EXTRN	??_V@YAXPEAX_K@Z:PROC				; operator delete[]
;	COMDAT ??_C@_1NC@MFJLDIOP@?$AAr?$AAo?$AAw?$AAs?$AA?5?$AA?$DN?$AA?$DN?$AA?5?$AAt?$AAh?$AAi?$AAs?$AA?9?$AA?$DO?$AAr@
CONST	SEGMENT
??_C@_1NC@MFJLDIOP@?$AAr?$AAo?$AAw?$AAs?$AA?5?$AA?$DN?$AA?$DN?$AA?5?$AAt?$AAh?$AAi?$AAs?$AA?9?$AA?$DO?$AAr@ DB 'r'
	DB	00H, 'o', 00H, 'w', 00H, 's', 00H, ' ', 00H, '=', 00H, '=', 00H
	DB	' ', 00H, 't', 00H, 'h', 00H, 'i', 00H, 's', 00H, '-', 00H, '>'
	DB	00H, 'r', 00H, 'o', 00H, 'w', 00H, 's', 00H, '(', 00H, ')', 00H
	DB	' ', 00H, '&', 00H, '&', 00H, ' ', 00H, 'c', 00H, 'o', 00H, 'l'
	DB	00H, 's', 00H, ' ', 00H, '=', 00H, '=', 00H, ' ', 00H, 't', 00H
	DB	'h', 00H, 'i', 00H, 's', 00H, '-', 00H, '>', 00H, 'c', 00H, 'o'
	DB	00H, 'l', 00H, 's', 00H, '(', 00H, ')', 00H, ' ', 00H, '&', 00H
	DB	'&', 00H, ' ', 00H, '"', 00H, 'D', 00H, 'e', 00H, 'n', 00H, 's'
	DB	00H, 'e', 00H, 'B', 00H, 'a', 00H, 's', 00H, 'e', 00H, ':', 00H
	DB	':', 00H, 'r', 00H, 'e', 00H, 's', 00H, 'i', 00H, 'z', 00H, 'e'
	DB	00H, '(', 00H, ')', 00H, ' ', 00H, 'd', 00H, 'o', 00H, 'e', 00H
	DB	's', 00H, ' ', 00H, 'n', 00H, 'o', 00H, 't', 00H, ' ', 00H, 'a'
	DB	00H, 'c', 00H, 't', 00H, 'u', 00H, 'a', 00H, 'l', 00H, 'l', 00H
	DB	'y', 00H, ' ', 00H, 'a', 00H, 'l', 00H, 'l', 00H, 'o', 00H, 'w'
	DB	00H, ' ', 00H, 't', 00H, 'o', 00H, ' ', 00H, 'r', 00H, 'e', 00H
	DB	's', 00H, 'i', 00H, 'z', 00H, 'e', 00H, '.', 00H, '"', 00H, 00H
	DB	00H						; `string'
CONST	ENDS
;	COMDAT ??_C@_1MC@KDADHJHG@?$AAC?$AA?3?$AA?2?$AAU?$AAs?$AAe?$AAr?$AAs?$AA?2?$AAm?$AAa?$AAr?$AAi?$AAj?$AA?2@
CONST	SEGMENT
??_C@_1MC@KDADHJHG@?$AAC?$AA?3?$AA?2?$AAU?$AAs?$AAe?$AAr?$AAs?$AA?2?$AAm?$AAa?$AAr?$AAi?$AAj?$AA?2@ DB 'C'
	DB	00H, ':', 00H, '\', 00H, 'U', 00H, 's', 00H, 'e', 00H, 'r', 00H
	DB	's', 00H, '\', 00H, 'm', 00H, 'a', 00H, 'r', 00H, 'i', 00H, 'j'
	DB	00H, '\', 00H, 'O', 00H, 'n', 00H, 'e', 00H, 'D', 00H, 'r', 00H
	DB	'i', 00H, 'v', 00H, 'e', 00H, '\', 00H, 'D', 00H, 'o', 00H, 'c'
	DB	00H, 'u', 00H, 'm', 00H, 'e', 00H, 'n', 00H, 't', 00H, 'e', 00H
	DB	'n', 00H, '\', 00H, 'G', 00H, 'i', 00H, 't', 00H, 'H', 00H, 'u'
	DB	00H, 'b', 00H, '\', 00H, 'N', 00H, 'e', 00H, 'u', 00H, 'r', 00H
	DB	'a', 00H, 'l', 00H, '_', 00H, 'N', 00H, 'e', 00H, 't', 00H, 'w'
	DB	00H, 'o', 00H, 'r', 00H, 'k', 00H, '\', 00H, 'd', 00H, 'e', 00H
	DB	'p', 00H, 'e', 00H, 'n', 00H, 'd', 00H, 'e', 00H, 'n', 00H, 'c'
	DB	00H, 'i', 00H, 'e', 00H, 's', 00H, '\', 00H, 'E', 00H, 'i', 00H
	DB	'g', 00H, 'e', 00H, 'n', 00H, '\', 00H, 's', 00H, 'r', 00H, 'c'
	DB	00H, '\', 00H, 'C', 00H, 'o', 00H, 'r', 00H, 'e', 00H, '\', 00H
	DB	'D', 00H, 'e', 00H, 'n', 00H, 's', 00H, 'e', 00H, 'B', 00H, 'a'
	DB	00H, 's', 00H, 'e', 00H, '.', 00H, 'h', 00H, 00H, 00H ; `string'
CONST	ENDS
;	COMDAT ??_C@_0DH@KAGLIBAG@DenseBase?3?3resize?$CI?$CJ?5does?5not?5ac@
CONST	SEGMENT
??_C@_0DH@KAGLIBAG@DenseBase?3?3resize?$CI?$CJ?5does?5not?5ac@ DB 'DenseB'
	DB	'ase::resize() does not actually allow to resize.', 00H ; `string'
CONST	ENDS
;	COMDAT ??_C@_1GK@DKFJDDPJ@?$AAd?$AAs?$AAt?$AA?4?$AAr?$AAo?$AAw?$AAs?$AA?$CI?$AA?$CJ?$AA?5?$AA?$DN?$AA?$DN?$AA?5?$AAs@
CONST	SEGMENT
??_C@_1GK@DKFJDDPJ@?$AAd?$AAs?$AAt?$AA?4?$AAr?$AAo?$AAw?$AAs?$AA?$CI?$AA?$CJ?$AA?5?$AA?$DN?$AA?$DN?$AA?5?$AAs@ DB 'd'
	DB	00H, 's', 00H, 't', 00H, '.', 00H, 'r', 00H, 'o', 00H, 'w', 00H
	DB	's', 00H, '(', 00H, ')', 00H, ' ', 00H, '=', 00H, '=', 00H, ' '
	DB	00H, 's', 00H, 'r', 00H, 'c', 00H, '.', 00H, 'r', 00H, 'o', 00H
	DB	'w', 00H, 's', 00H, '(', 00H, ')', 00H, ' ', 00H, '&', 00H, '&'
	DB	00H, ' ', 00H, 'd', 00H, 's', 00H, 't', 00H, '.', 00H, 'c', 00H
	DB	'o', 00H, 'l', 00H, 's', 00H, '(', 00H, ')', 00H, ' ', 00H, '='
	DB	00H, '=', 00H, ' ', 00H, 's', 00H, 'r', 00H, 'c', 00H, '.', 00H
	DB	'c', 00H, 'o', 00H, 'l', 00H, 's', 00H, '(', 00H, ')', 00H, 00H
	DB	00H						; `string'
CONST	ENDS
;	COMDAT ??_C@_1IA@EEMANNOG@?$AAx?$AAp?$AAr?$AA?4?$AAr?$AAo?$AAw?$AAs?$AA?$CI?$AA?$CJ?$AA?$DO?$AA0?$AA?5?$AA?$CG?$AA?$CG@
CONST	SEGMENT
??_C@_1IA@EEMANNOG@?$AAx?$AAp?$AAr?$AA?4?$AAr?$AAo?$AAw?$AAs?$AA?$CI?$AA?$CJ?$AA?$DO?$AA0?$AA?5?$AA?$CG?$AA?$CG@ DB 'x'
	DB	00H, 'p', 00H, 'r', 00H, '.', 00H, 'r', 00H, 'o', 00H, 'w', 00H
	DB	's', 00H, '(', 00H, ')', 00H, '>', 00H, '0', 00H, ' ', 00H, '&'
	DB	00H, '&', 00H, ' ', 00H, 'x', 00H, 'p', 00H, 'r', 00H, '.', 00H
	DB	'c', 00H, 'o', 00H, 'l', 00H, 's', 00H, '(', 00H, ')', 00H, '>'
	DB	00H, '0', 00H, ' ', 00H, '&', 00H, '&', 00H, ' ', 00H, '"', 00H
	DB	'y', 00H, 'o', 00H, 'u', 00H, ' ', 00H, 'a', 00H, 'r', 00H, 'e'
	DB	00H, ' ', 00H, 'u', 00H, 's', 00H, 'i', 00H, 'n', 00H, 'g', 00H
	DB	' ', 00H, 'a', 00H, 'n', 00H, ' ', 00H, 'e', 00H, 'm', 00H, 'p'
	DB	00H, 't', 00H, 'y', 00H, ' ', 00H, 'm', 00H, 'a', 00H, 't', 00H
	DB	'r', 00H, 'i', 00H, 'x', 00H, '"', 00H, 00H, 00H ; `string'
CONST	ENDS
;	COMDAT ??_C@_1LK@EBKKLAOP@?$AAC?$AA?3?$AA?2?$AAU?$AAs?$AAe?$AAr?$AAs?$AA?2?$AAm?$AAa?$AAr?$AAi?$AAj?$AA?2@
CONST	SEGMENT
??_C@_1LK@EBKKLAOP@?$AAC?$AA?3?$AA?2?$AAU?$AAs?$AAe?$AAr?$AAs?$AA?2?$AAm?$AAa?$AAr?$AAi?$AAj?$AA?2@ DB 'C'
	DB	00H, ':', 00H, '\', 00H, 'U', 00H, 's', 00H, 'e', 00H, 'r', 00H
	DB	's', 00H, '\', 00H, 'm', 00H, 'a', 00H, 'r', 00H, 'i', 00H, 'j'
	DB	00H, '\', 00H, 'O', 00H, 'n', 00H, 'e', 00H, 'D', 00H, 'r', 00H
	DB	'i', 00H, 'v', 00H, 'e', 00H, '\', 00H, 'D', 00H, 'o', 00H, 'c'
	DB	00H, 'u', 00H, 'm', 00H, 'e', 00H, 'n', 00H, 't', 00H, 'e', 00H
	DB	'n', 00H, '\', 00H, 'G', 00H, 'i', 00H, 't', 00H, 'H', 00H, 'u'
	DB	00H, 'b', 00H, '\', 00H, 'N', 00H, 'e', 00H, 'u', 00H, 'r', 00H
	DB	'a', 00H, 'l', 00H, '_', 00H, 'N', 00H, 'e', 00H, 't', 00H, 'w'
	DB	00H, 'o', 00H, 'r', 00H, 'k', 00H, '\', 00H, 'd', 00H, 'e', 00H
	DB	'p', 00H, 'e', 00H, 'n', 00H, 'd', 00H, 'e', 00H, 'n', 00H, 'c'
	DB	00H, 'i', 00H, 'e', 00H, 's', 00H, '\', 00H, 'E', 00H, 'i', 00H
	DB	'g', 00H, 'e', 00H, 'n', 00H, '\', 00H, 's', 00H, 'r', 00H, 'c'
	DB	00H, '\', 00H, 'C', 00H, 'o', 00H, 'r', 00H, 'e', 00H, '\', 00H
	DB	'R', 00H, 'e', 00H, 'd', 00H, 'u', 00H, 'x', 00H, '.', 00H, 'h'
	DB	00H, 00H, 00H				; `string'
CONST	ENDS
;	COMDAT ??_C@_0BO@GLKCEIMH@you?5are?5using?5an?5empty?5matrix@
CONST	SEGMENT
??_C@_0BO@GLKCEIMH@you?5are?5using?5an?5empty?5matrix@ DB 'you are using '
	DB	'an empty matrix', 00H			; `string'
CONST	ENDS
;	COMDAT ??_C@_1BEG@CCAEMDPE@?$AA?$CI?$AA?$CI?$AAi?$AAn?$AAt?$AAe?$AAr?$AAn?$AAa?$AAl?$AA?3?$AA?3?$AAU?$AAI?$AAn@
CONST	SEGMENT
??_C@_1BEG@CCAEMDPE@?$AA?$CI?$AA?$CI?$AAi?$AAn?$AAt?$AAe?$AAr?$AAn?$AAa?$AAl?$AA?3?$AA?3?$AAU?$AAI?$AAn@ DB '('
	DB	00H, '(', 00H, 'i', 00H, 'n', 00H, 't', 00H, 'e', 00H, 'r', 00H
	DB	'n', 00H, 'a', 00H, 'l', 00H, ':', 00H, ':', 00H, 'U', 00H, 'I'
	DB	00H, 'n', 00H, 't', 00H, 'P', 00H, 't', 00H, 'r', 00H, '(', 00H
	DB	'b', 00H, 'l', 00H, 'o', 00H, 'c', 00H, 'k', 00H, '.', 00H, 'd'
	DB	00H, 'a', 00H, 't', 00H, 'a', 00H, '(', 00H, ')', 00H, ')', 00H
	DB	' ', 00H, '%', 00H, ' ', 00H, '(', 00H, '(', 00H, '(', 00H, 'i'
	DB	00H, 'n', 00H, 't', 00H, ')', 00H, '1', 00H, ' ', 00H, '>', 00H
	DB	'=', 00H, ' ', 00H, '(', 00H, 'i', 00H, 'n', 00H, 't', 00H, ')'
	DB	00H, 'e', 00H, 'v', 00H, 'a', 00H, 'l', 00H, 'u', 00H, 'a', 00H
	DB	't', 00H, 'o', 00H, 'r', 00H, '<', 00H, 'X', 00H, 'p', 00H, 'r'
	DB	00H, 'T', 00H, 'y', 00H, 'p', 00H, 'e', 00H, '>', 00H, ':', 00H
	DB	':', 00H, 'A', 00H, 'l', 00H, 'i', 00H, 'g', 00H, 'n', 00H, 'm'
	DB	00H, 'e', 00H, 'n', 00H, 't', 00H, ')', 00H, ' ', 00H, '?', 00H
	DB	' ', 00H, '(', 00H, 'i', 00H, 'n', 00H, 't', 00H, ')', 00H, '1'
	DB	00H, ' ', 00H, ':', 00H, ' ', 00H, '(', 00H, 'i', 00H, 'n', 00H
	DB	't', 00H, ')', 00H, 'e', 00H, 'v', 00H, 'a', 00H, 'l', 00H, 'u'
	DB	00H, 'a', 00H, 't', 00H, 'o', 00H, 'r', 00H, '<', 00H, 'X', 00H
	DB	'p', 00H, 'r', 00H, 'T', 00H, 'y', 00H, 'p', 00H, 'e', 00H, '>'
	DB	00H, ':', 00H, ':', 00H, 'A', 00H, 'l', 00H, 'i', 00H, 'g', 00H
	DB	'n', 00H, 'm', 00H, 'e', 00H, 'n', 00H, 't', 00H, ')', 00H, ')'
	DB	00H, ' ', 00H, '=', 00H, '=', 00H, ' ', 00H, '0', 00H, ')', 00H
	DB	' ', 00H, '&', 00H, '&', 00H, ' ', 00H, '"', 00H, 'd', 00H, 'a'
	DB	00H, 't', 00H, 'a', 00H, ' ', 00H, 'i', 00H, 's', 00H, ' ', 00H
	DB	'n', 00H, 'o', 00H, 't', 00H, ' ', 00H, 'a', 00H, 'l', 00H, 'i'
	DB	00H, 'g', 00H, 'n', 00H, 'e', 00H, 'd', 00H, '"', 00H, 00H, 00H ; `string'
CONST	ENDS
;	COMDAT ??_C@_1MM@KMOJCOAO@?$AAC?$AA?3?$AA?2?$AAU?$AAs?$AAe?$AAr?$AAs?$AA?2?$AAm?$AAa?$AAr?$AAi?$AAj?$AA?2@
CONST	SEGMENT
??_C@_1MM@KMOJCOAO@?$AAC?$AA?3?$AA?2?$AAU?$AAs?$AAe?$AAr?$AAs?$AA?2?$AAm?$AAa?$AAr?$AAi?$AAj?$AA?2@ DB 'C'
	DB	00H, ':', 00H, '\', 00H, 'U', 00H, 's', 00H, 'e', 00H, 'r', 00H
	DB	's', 00H, '\', 00H, 'm', 00H, 'a', 00H, 'r', 00H, 'i', 00H, 'j'
	DB	00H, '\', 00H, 'O', 00H, 'n', 00H, 'e', 00H, 'D', 00H, 'r', 00H
	DB	'i', 00H, 'v', 00H, 'e', 00H, '\', 00H, 'D', 00H, 'o', 00H, 'c'
	DB	00H, 'u', 00H, 'm', 00H, 'e', 00H, 'n', 00H, 't', 00H, 'e', 00H
	DB	'n', 00H, '\', 00H, 'G', 00H, 'i', 00H, 't', 00H, 'H', 00H, 'u'
	DB	00H, 'b', 00H, '\', 00H, 'N', 00H, 'e', 00H, 'u', 00H, 'r', 00H
	DB	'a', 00H, 'l', 00H, '_', 00H, 'N', 00H, 'e', 00H, 't', 00H, 'w'
	DB	00H, 'o', 00H, 'r', 00H, 'k', 00H, '\', 00H, 'd', 00H, 'e', 00H
	DB	'p', 00H, 'e', 00H, 'n', 00H, 'd', 00H, 'e', 00H, 'n', 00H, 'c'
	DB	00H, 'i', 00H, 'e', 00H, 's', 00H, '\', 00H, 'E', 00H, 'i', 00H
	DB	'g', 00H, 'e', 00H, 'n', 00H, '\', 00H, 's', 00H, 'r', 00H, 'c'
	DB	00H, '\', 00H, 'C', 00H, 'o', 00H, 'r', 00H, 'e', 00H, '\', 00H
	DB	'C', 00H, 'o', 00H, 'r', 00H, 'e', 00H, 'E', 00H, 'v', 00H, 'a'
	DB	00H, 'l', 00H, 'u', 00H, 'a', 00H, 't', 00H, 'o', 00H, 'r', 00H
	DB	's', 00H, '.', 00H, 'h', 00H, 00H, 00H	; `string'
CONST	ENDS
;	COMDAT ??_C@_1BEC@CPKBGFIN@?$AA?$CI?$AA?$CI?$AAi?$AAn?$AAt?$AAe?$AAr?$AAn?$AAa?$AAl?$AA?3?$AA?3?$AAU?$AAI?$AAn@
CONST	SEGMENT
??_C@_1BEC@CPKBGFIN@?$AA?$CI?$AA?$CI?$AAi?$AAn?$AAt?$AAe?$AAr?$AAn?$AAa?$AAl?$AA?3?$AA?3?$AAU?$AAI?$AAn@ DB '('
	DB	00H, '(', 00H, 'i', 00H, 'n', 00H, 't', 00H, 'e', 00H, 'r', 00H
	DB	'n', 00H, 'a', 00H, 'l', 00H, ':', 00H, ':', 00H, 'U', 00H, 'I'
	DB	00H, 'n', 00H, 't', 00H, 'P', 00H, 't', 00H, 'r', 00H, '(', 00H
	DB	'x', 00H, 'p', 00H, 'r', 00H, '.', 00H, 'd', 00H, 'a', 00H, 't'
	DB	00H, 'a', 00H, '(', 00H, ')', 00H, ')', 00H, ' ', 00H, '%', 00H
	DB	' ', 00H, '(', 00H, '(', 00H, '(', 00H, 'i', 00H, 'n', 00H, 't'
	DB	00H, ')', 00H, '1', 00H, ' ', 00H, '>', 00H, '=', 00H, ' ', 00H
	DB	'(', 00H, 'i', 00H, 'n', 00H, 't', 00H, ')', 00H, 'e', 00H, 'v'
	DB	00H, 'a', 00H, 'l', 00H, 'u', 00H, 'a', 00H, 't', 00H, 'o', 00H
	DB	'r', 00H, '<', 00H, 'X', 00H, 'p', 00H, 'r', 00H, 'T', 00H, 'y'
	DB	00H, 'p', 00H, 'e', 00H, '>', 00H, ':', 00H, ':', 00H, 'A', 00H
	DB	'l', 00H, 'i', 00H, 'g', 00H, 'n', 00H, 'm', 00H, 'e', 00H, 'n'
	DB	00H, 't', 00H, ')', 00H, ' ', 00H, '?', 00H, ' ', 00H, '(', 00H
	DB	'i', 00H, 'n', 00H, 't', 00H, ')', 00H, '1', 00H, ' ', 00H, ':'
	DB	00H, ' ', 00H, '(', 00H, 'i', 00H, 'n', 00H, 't', 00H, ')', 00H
	DB	'e', 00H, 'v', 00H, 'a', 00H, 'l', 00H, 'u', 00H, 'a', 00H, 't'
	DB	00H, 'o', 00H, 'r', 00H, '<', 00H, 'X', 00H, 'p', 00H, 'r', 00H
	DB	'T', 00H, 'y', 00H, 'p', 00H, 'e', 00H, '>', 00H, ':', 00H, ':'
	DB	00H, 'A', 00H, 'l', 00H, 'i', 00H, 'g', 00H, 'n', 00H, 'm', 00H
	DB	'e', 00H, 'n', 00H, 't', 00H, ')', 00H, ')', 00H, ' ', 00H, '='
	DB	00H, '=', 00H, ' ', 00H, '0', 00H, ')', 00H, ' ', 00H, '&', 00H
	DB	'&', 00H, ' ', 00H, '"', 00H, 'd', 00H, 'a', 00H, 't', 00H, 'a'
	DB	00H, ' ', 00H, 'i', 00H, 's', 00H, ' ', 00H, 'n', 00H, 'o', 00H
	DB	't', 00H, ' ', 00H, 'a', 00H, 'l', 00H, 'i', 00H, 'g', 00H, 'n'
	DB	00H, 'e', 00H, 'd', 00H, '"', 00H, 00H, 00H	; `string'
CONST	ENDS
;	COMDAT ??_C@_1JK@OJFHOODE@?$AAd?$AAa?$AAt?$AAa?$AAP?$AAt?$AAr?$AA?5?$AA?$DN?$AA?$DN?$AA?5?$AA0?$AA?5?$AA?$HM?$AA?$HM@
CONST	SEGMENT
??_C@_1JK@OJFHOODE@?$AAd?$AAa?$AAt?$AAa?$AAP?$AAt?$AAr?$AA?5?$AA?$DN?$AA?$DN?$AA?5?$AA0?$AA?5?$AA?$HM?$AA?$HM@ DB 'd'
	DB	00H, 'a', 00H, 't', 00H, 'a', 00H, 'P', 00H, 't', 00H, 'r', 00H
	DB	' ', 00H, '=', 00H, '=', 00H, ' ', 00H, '0', 00H, ' ', 00H, '|'
	DB	00H, '|', 00H, ' ', 00H, 'S', 00H, 'i', 00H, 'z', 00H, 'e', 00H
	DB	'A', 00H, 't', 00H, 'C', 00H, 'o', 00H, 'm', 00H, 'p', 00H, 'i'
	DB	00H, 'l', 00H, 'e', 00H, 'T', 00H, 'i', 00H, 'm', 00H, 'e', 00H
	DB	' ', 00H, '=', 00H, '=', 00H, ' ', 00H, 'D', 00H, 'y', 00H, 'n'
	DB	00H, 'a', 00H, 'm', 00H, 'i', 00H, 'c', 00H, ' ', 00H, '|', 00H
	DB	'|', 00H, ' ', 00H, 'S', 00H, 'i', 00H, 'z', 00H, 'e', 00H, 'A'
	DB	00H, 't', 00H, 'C', 00H, 'o', 00H, 'm', 00H, 'p', 00H, 'i', 00H
	DB	'l', 00H, 'e', 00H, 'T', 00H, 'i', 00H, 'm', 00H, 'e', 00H, ' '
	DB	00H, '=', 00H, '=', 00H, ' ', 00H, 'v', 00H, 'e', 00H, 'c', 00H
	DB	'S', 00H, 'i', 00H, 'z', 00H, 'e', 00H, 00H, 00H ; `string'
CONST	ENDS
;	COMDAT ??_C@_1BK@EKAFPBI@?$AAv?$AAe?$AAc?$AAS?$AAi?$AAz?$AAe?$AA?5?$AA?$DO?$AA?$DN?$AA?5?$AA0@
CONST	SEGMENT
??_C@_1BK@EKAFPBI@?$AAv?$AAe?$AAc?$AAS?$AAi?$AAz?$AAe?$AA?5?$AA?$DO?$AA?$DN?$AA?5?$AA0@ DB 'v'
	DB	00H, 'e', 00H, 'c', 00H, 'S', 00H, 'i', 00H, 'z', 00H, 'e', 00H
	DB	' ', 00H, '>', 00H, '=', 00H, ' ', 00H, '0', 00H, 00H, 00H ; `string'
CONST	ENDS
;	COMDAT ??_C@_1BA@PDPDMLBM@?$AAi?$AAn?$AAc?$AAr?$AA?$DN?$AA?$DN?$AA1@
CONST	SEGMENT
??_C@_1BA@PDPDMLBM@?$AAi?$AAn?$AAc?$AAr?$AA?$DN?$AA?$DN?$AA1@ DB 'i', 00H
	DB	'n', 00H, 'c', 00H, 'r', 00H, '=', 00H, '=', 00H, '1', 00H, 00H
	DB	00H						; `string'
CONST	ENDS
;	COMDAT ??_C@_1MK@CEBCLKIO@?$AAC?$AA?3?$AA?2?$AAU?$AAs?$AAe?$AAr?$AAs?$AA?2?$AAm?$AAa?$AAr?$AAi?$AAj?$AA?2@
CONST	SEGMENT
??_C@_1MK@CEBCLKIO@?$AAC?$AA?3?$AA?2?$AAU?$AAs?$AAe?$AAr?$AAs?$AA?2?$AAm?$AAa?$AAr?$AAi?$AAj?$AA?2@ DB 'C'
	DB	00H, ':', 00H, '\', 00H, 'U', 00H, 's', 00H, 'e', 00H, 'r', 00H
	DB	's', 00H, '\', 00H, 'm', 00H, 'a', 00H, 'r', 00H, 'i', 00H, 'j'
	DB	00H, '\', 00H, 'O', 00H, 'n', 00H, 'e', 00H, 'D', 00H, 'r', 00H
	DB	'i', 00H, 'v', 00H, 'e', 00H, '\', 00H, 'D', 00H, 'o', 00H, 'c'
	DB	00H, 'u', 00H, 'm', 00H, 'e', 00H, 'n', 00H, 't', 00H, 'e', 00H
	DB	'n', 00H, '\', 00H, 'G', 00H, 'i', 00H, 't', 00H, 'H', 00H, 'u'
	DB	00H, 'b', 00H, '\', 00H, 'N', 00H, 'e', 00H, 'u', 00H, 'r', 00H
	DB	'a', 00H, 'l', 00H, '_', 00H, 'N', 00H, 'e', 00H, 't', 00H, 'w'
	DB	00H, 'o', 00H, 'r', 00H, 'k', 00H, '\', 00H, 'd', 00H, 'e', 00H
	DB	'p', 00H, 'e', 00H, 'n', 00H, 'd', 00H, 'e', 00H, 'n', 00H, 'c'
	DB	00H, 'i', 00H, 'e', 00H, 's', 00H, '\', 00H, 'E', 00H, 'i', 00H
	DB	'g', 00H, 'e', 00H, 'n', 00H, '\', 00H, 's', 00H, 'r', 00H, 'c'
	DB	00H, '\', 00H, 'C', 00H, 'o', 00H, 'r', 00H, 'e', 00H, '\', 00H
	DB	'u', 00H, 't', 00H, 'i', 00H, 'l', 00H, '\', 00H, 'B', 00H, 'l'
	DB	00H, 'a', 00H, 's', 00H, 'U', 00H, 't', 00H, 'i', 00H, 'l', 00H
	DB	'.', 00H, 'h', 00H, 00H, 00H			; `string'
CONST	ENDS
;	COMDAT ??_C@_1BEO@BFPLGJIO@?$AA?$CI?$AAi?$AA?$DO?$AA?$DN?$AA0?$AA?$CJ?$AA?5?$AA?$CG?$AA?$CG?$AA?5?$AA?$CI?$AA?5?$AA?$CI?$AA?$CI?$AAB@
CONST	SEGMENT
??_C@_1BEO@BFPLGJIO@?$AA?$CI?$AAi?$AA?$DO?$AA?$DN?$AA0?$AA?$CJ?$AA?5?$AA?$CG?$AA?$CG?$AA?5?$AA?$CI?$AA?5?$AA?$CI?$AA?$CI?$AAB@ DB '('
	DB	00H, 'i', 00H, '>', 00H, '=', 00H, '0', 00H, ')', 00H, ' ', 00H
	DB	'&', 00H, '&', 00H, ' ', 00H, '(', 00H, ' ', 00H, '(', 00H, '('
	DB	00H, 'B', 00H, 'l', 00H, 'o', 00H, 'c', 00H, 'k', 00H, 'R', 00H
	DB	'o', 00H, 'w', 00H, 's', 00H, '=', 00H, '=', 00H, '1', 00H, ')'
	DB	00H, ' ', 00H, '&', 00H, '&', 00H, ' ', 00H, '(', 00H, 'B', 00H
	DB	'l', 00H, 'o', 00H, 'c', 00H, 'k', 00H, 'C', 00H, 'o', 00H, 'l'
	DB	00H, 's', 00H, '=', 00H, '=', 00H, 'X', 00H, 'p', 00H, 'r', 00H
	DB	'T', 00H, 'y', 00H, 'p', 00H, 'e', 00H, ':', 00H, ':', 00H, 'C'
	DB	00H, 'o', 00H, 'l', 00H, 's', 00H, 'A', 00H, 't', 00H, 'C', 00H
	DB	'o', 00H, 'm', 00H, 'p', 00H, 'i', 00H, 'l', 00H, 'e', 00H, 'T'
	DB	00H, 'i', 00H, 'm', 00H, 'e', 00H, ')', 00H, ' ', 00H, '&', 00H
	DB	'&', 00H, ' ', 00H, 'i', 00H, '<', 00H, 'x', 00H, 'p', 00H, 'r'
	DB	00H, '.', 00H, 'r', 00H, 'o', 00H, 'w', 00H, 's', 00H, '(', 00H
	DB	')', 00H, ')', 00H, ' ', 00H, '|', 00H, '|', 00H, '(', 00H, '('
	DB	00H, 'B', 00H, 'l', 00H, 'o', 00H, 'c', 00H, 'k', 00H, 'R', 00H
	DB	'o', 00H, 'w', 00H, 's', 00H, '=', 00H, '=', 00H, 'X', 00H, 'p'
	DB	00H, 'r', 00H, 'T', 00H, 'y', 00H, 'p', 00H, 'e', 00H, ':', 00H
	DB	':', 00H, 'R', 00H, 'o', 00H, 'w', 00H, 's', 00H, 'A', 00H, 't'
	DB	00H, 'C', 00H, 'o', 00H, 'm', 00H, 'p', 00H, 'i', 00H, 'l', 00H
	DB	'e', 00H, 'T', 00H, 'i', 00H, 'm', 00H, 'e', 00H, ')', 00H, ' '
	DB	00H, '&', 00H, '&', 00H, ' ', 00H, '(', 00H, 'B', 00H, 'l', 00H
	DB	'o', 00H, 'c', 00H, 'k', 00H, 'C', 00H, 'o', 00H, 'l', 00H, 's'
	DB	00H, '=', 00H, '=', 00H, '1', 00H, ')', 00H, ' ', 00H, '&', 00H
	DB	'&', 00H, ' ', 00H, 'i', 00H, '<', 00H, 'x', 00H, 'p', 00H, 'r'
	DB	00H, '.', 00H, 'c', 00H, 'o', 00H, 'l', 00H, 's', 00H, '(', 00H
	DB	')', 00H, ')', 00H, ')', 00H, 00H, 00H	; `string'
CONST	ENDS
;	COMDAT ??_C@_1LK@KAMNBCFI@?$AAC?$AA?3?$AA?2?$AAU?$AAs?$AAe?$AAr?$AAs?$AA?2?$AAm?$AAa?$AAr?$AAi?$AAj?$AA?2@
CONST	SEGMENT
??_C@_1LK@KAMNBCFI@?$AAC?$AA?3?$AA?2?$AAU?$AAs?$AAe?$AAr?$AAs?$AA?2?$AAm?$AAa?$AAr?$AAi?$AAj?$AA?2@ DB 'C'
	DB	00H, ':', 00H, '\', 00H, 'U', 00H, 's', 00H, 'e', 00H, 'r', 00H
	DB	's', 00H, '\', 00H, 'm', 00H, 'a', 00H, 'r', 00H, 'i', 00H, 'j'
	DB	00H, '\', 00H, 'O', 00H, 'n', 00H, 'e', 00H, 'D', 00H, 'r', 00H
	DB	'i', 00H, 'v', 00H, 'e', 00H, '\', 00H, 'D', 00H, 'o', 00H, 'c'
	DB	00H, 'u', 00H, 'm', 00H, 'e', 00H, 'n', 00H, 't', 00H, 'e', 00H
	DB	'n', 00H, '\', 00H, 'G', 00H, 'i', 00H, 't', 00H, 'H', 00H, 'u'
	DB	00H, 'b', 00H, '\', 00H, 'N', 00H, 'e', 00H, 'u', 00H, 'r', 00H
	DB	'a', 00H, 'l', 00H, '_', 00H, 'N', 00H, 'e', 00H, 't', 00H, 'w'
	DB	00H, 'o', 00H, 'r', 00H, 'k', 00H, '\', 00H, 'd', 00H, 'e', 00H
	DB	'p', 00H, 'e', 00H, 'n', 00H, 'd', 00H, 'e', 00H, 'n', 00H, 'c'
	DB	00H, 'i', 00H, 'e', 00H, 's', 00H, '\', 00H, 'E', 00H, 'i', 00H
	DB	'g', 00H, 'e', 00H, 'n', 00H, '\', 00H, 's', 00H, 'r', 00H, 'c'
	DB	00H, '\', 00H, 'C', 00H, 'o', 00H, 'r', 00H, 'e', 00H, '\', 00H
	DB	'B', 00H, 'l', 00H, 'o', 00H, 'c', 00H, 'k', 00H, '.', 00H, 'h'
	DB	00H, 00H, 00H				; `string'
CONST	ENDS
;	COMDAT ??_C@_1GK@FBDACIID@?$AAd?$AAs?$AAt?$AA?4?$AAr?$AAo?$AAw?$AAs?$AA?$CI?$AA?$CJ?$AA?$DN?$AA?$DN?$AAa?$AA_?$AAl@
CONST	SEGMENT
??_C@_1GK@FBDACIID@?$AAd?$AAs?$AAt?$AA?4?$AAr?$AAo?$AAw?$AAs?$AA?$CI?$AA?$CJ?$AA?$DN?$AA?$DN?$AAa?$AA_?$AAl@ DB 'd'
	DB	00H, 's', 00H, 't', 00H, '.', 00H, 'r', 00H, 'o', 00H, 'w', 00H
	DB	's', 00H, '(', 00H, ')', 00H, '=', 00H, '=', 00H, 'a', 00H, '_'
	DB	00H, 'l', 00H, 'h', 00H, 's', 00H, '.', 00H, 'r', 00H, 'o', 00H
	DB	'w', 00H, 's', 00H, '(', 00H, ')', 00H, ' ', 00H, '&', 00H, '&'
	DB	00H, ' ', 00H, 'd', 00H, 's', 00H, 't', 00H, '.', 00H, 'c', 00H
	DB	'o', 00H, 'l', 00H, 's', 00H, '(', 00H, ')', 00H, '=', 00H, '='
	DB	00H, 'a', 00H, '_', 00H, 'r', 00H, 'h', 00H, 's', 00H, '.', 00H
	DB	'c', 00H, 'o', 00H, 'l', 00H, 's', 00H, '(', 00H, ')', 00H, 00H
	DB	00H						; `string'
CONST	ENDS
;	COMDAT ??_C@_1OI@KGKONHLF@?$AAC?$AA?3?$AA?2?$AAU?$AAs?$AAe?$AAr?$AAs?$AA?2?$AAm?$AAa?$AAr?$AAi?$AAj?$AA?2@
CONST	SEGMENT
??_C@_1OI@KGKONHLF@?$AAC?$AA?3?$AA?2?$AAU?$AAs?$AAe?$AAr?$AAs?$AA?2?$AAm?$AAa?$AAr?$AAi?$AAj?$AA?2@ DB 'C'
	DB	00H, ':', 00H, '\', 00H, 'U', 00H, 's', 00H, 'e', 00H, 'r', 00H
	DB	's', 00H, '\', 00H, 'm', 00H, 'a', 00H, 'r', 00H, 'i', 00H, 'j'
	DB	00H, '\', 00H, 'O', 00H, 'n', 00H, 'e', 00H, 'D', 00H, 'r', 00H
	DB	'i', 00H, 'v', 00H, 'e', 00H, '\', 00H, 'D', 00H, 'o', 00H, 'c'
	DB	00H, 'u', 00H, 'm', 00H, 'e', 00H, 'n', 00H, 't', 00H, 'e', 00H
	DB	'n', 00H, '\', 00H, 'G', 00H, 'i', 00H, 't', 00H, 'H', 00H, 'u'
	DB	00H, 'b', 00H, '\', 00H, 'N', 00H, 'e', 00H, 'u', 00H, 'r', 00H
	DB	'a', 00H, 'l', 00H, '_', 00H, 'N', 00H, 'e', 00H, 't', 00H, 'w'
	DB	00H, 'o', 00H, 'r', 00H, 'k', 00H, '\', 00H, 'd', 00H, 'e', 00H
	DB	'p', 00H, 'e', 00H, 'n', 00H, 'd', 00H, 'e', 00H, 'n', 00H, 'c'
	DB	00H, 'i', 00H, 'e', 00H, 's', 00H, '\', 00H, 'E', 00H, 'i', 00H
	DB	'g', 00H, 'e', 00H, 'n', 00H, '\', 00H, 's', 00H, 'r', 00H, 'c'
	DB	00H, '\', 00H, 'C', 00H, 'o', 00H, 'r', 00H, 'e', 00H, '\', 00H
	DB	'p', 00H, 'r', 00H, 'o', 00H, 'd', 00H, 'u', 00H, 'c', 00H, 't'
	DB	00H, 's', 00H, '\', 00H, 'G', 00H, 'e', 00H, 'n', 00H, 'e', 00H
	DB	'r', 00H, 'a', 00H, 'l', 00H, 'M', 00H, 'a', 00H, 't', 00H, 'r'
	DB	00H, 'i', 00H, 'x', 00H, 'M', 00H, 'a', 00H, 't', 00H, 'r', 00H
	DB	'i', 00H, 'x', 00H, '.', 00H, 'h', 00H, 00H, 00H ; `string'
CONST	ENDS
;	COMDAT ??_C@_1CCG@OOFKGNBC@?$AA?$CI?$AA?$CB?$AAc?$AAh?$AAe?$AAc?$AAk?$AA_?$AAt?$AAr?$AAa?$AAn?$AAs?$AAp?$AAo@
CONST	SEGMENT
??_C@_1CCG@OOFKGNBC@?$AA?$CI?$AA?$CB?$AAc?$AAh?$AAe?$AAc?$AAk?$AA_?$AAt?$AAr?$AAa?$AAn?$AAs?$AAp?$AAo@ DB '('
	DB	00H, '!', 00H, 'c', 00H, 'h', 00H, 'e', 00H, 'c', 00H, 'k', 00H
	DB	'_', 00H, 't', 00H, 'r', 00H, 'a', 00H, 'n', 00H, 's', 00H, 'p'
	DB	00H, 'o', 00H, 's', 00H, 'e', 00H, '_', 00H, 'a', 00H, 'l', 00H
	DB	'i', 00H, 'a', 00H, 's', 00H, 'i', 00H, 'n', 00H, 'g', 00H, '_'
	DB	00H, 'r', 00H, 'u', 00H, 'n', 00H, '_', 00H, 't', 00H, 'i', 00H
	DB	'm', 00H, 'e', 00H, '_', 00H, 's', 00H, 'e', 00H, 'l', 00H, 'e'
	DB	00H, 'c', 00H, 't', 00H, 'o', 00H, 'r', 00H, ' ', 00H, '<', 00H
	DB	't', 00H, 'y', 00H, 'p', 00H, 'e', 00H, 'n', 00H, 'a', 00H, 'm'
	DB	00H, 'e', 00H, ' ', 00H, 'D', 00H, 'e', 00H, 'r', 00H, 'i', 00H
	DB	'v', 00H, 'e', 00H, 'd', 00H, ':', 00H, ':', 00H, 'S', 00H, 'c'
	DB	00H, 'a', 00H, 'l', 00H, 'a', 00H, 'r', 00H, ',', 00H, 'b', 00H
	DB	'l', 00H, 'a', 00H, 's', 00H, '_', 00H, 't', 00H, 'r', 00H, 'a'
	DB	00H, 'i', 00H, 't', 00H, 's', 00H, '<', 00H, 'D', 00H, 'e', 00H
	DB	'r', 00H, 'i', 00H, 'v', 00H, 'e', 00H, 'd', 00H, '>', 00H, ':'
	DB	00H, ':', 00H, 'I', 00H, 's', 00H, 'T', 00H, 'r', 00H, 'a', 00H
	DB	'n', 00H, 's', 00H, 'p', 00H, 'o', 00H, 's', 00H, 'e', 00H, 'd'
	DB	00H, ',', 00H, 'O', 00H, 't', 00H, 'h', 00H, 'e', 00H, 'r', 00H
	DB	'D', 00H, 'e', 00H, 'r', 00H, 'i', 00H, 'v', 00H, 'e', 00H, 'd'
	DB	00H, '>', 00H, ' ', 00H, ':', 00H, ':', 00H, 'r', 00H, 'u', 00H
	DB	'n', 00H, '(', 00H, 'e', 00H, 'x', 00H, 't', 00H, 'r', 00H, 'a'
	DB	00H, 'c', 00H, 't', 00H, '_', 00H, 'd', 00H, 'a', 00H, 't', 00H
	DB	'a', 00H, '(', 00H, 'd', 00H, 's', 00H, 't', 00H, ')', 00H, ','
	DB	00H, ' ', 00H, 'o', 00H, 't', 00H, 'h', 00H, 'e', 00H, 'r', 00H
	DB	')', 00H, ')', 00H, ' ', 00H, '&', 00H, '&', 00H, ' ', 00H, '"'
	DB	00H, 'a', 00H, 'l', 00H, 'i', 00H, 'a', 00H, 's', 00H, 'i', 00H
	DB	'n', 00H, 'g', 00H, ' ', 00H, 'd', 00H, 'e', 00H, 't', 00H, 'e'
	DB	00H, 'c', 00H, 't', 00H, 'e', 00H, 'd', 00H, ' ', 00H, 'd', 00H
	DB	'u', 00H, 'r', 00H, 'i', 00H, 'n', 00H, 'g', 00H, ' ', 00H, 't'
	DB	00H, 'r', 00H, 'a', 00H, 'n', 00H, 's', 00H, 'p', 00H, 'o', 00H
	DB	's', 00H, 'i', 00H, 't', 00H, 'i', 00H, 'o', 00H, 'n', 00H, ','
	DB	00H, ' ', 00H, 'u', 00H, 's', 00H, 'e', 00H, ' ', 00H, 't', 00H
	DB	'r', 00H, 'a', 00H, 'n', 00H, 's', 00H, 'p', 00H, 'o', 00H, 's'
	DB	00H, 'e', 00H, 'I', 00H, 'n', 00H, 'P', 00H, 'l', 00H, 'a', 00H
	DB	'c', 00H, 'e', 00H, '(', 00H, ')', 00H, ' ', 00H, '"', 00H, ' '
	DB	00H, '"', 00H, 'o', 00H, 'r', 00H, ' ', 00H, 'e', 00H, 'v', 00H
	DB	'a', 00H, 'l', 00H, 'u', 00H, 'a', 00H, 't', 00H, 'e', 00H, ' '
	DB	00H, 't', 00H, 'h', 00H, 'e', 00H, ' ', 00H, 'r', 00H, 'h', 00H
	DB	's', 00H, ' ', 00H, 'i', 00H, 'n', 00H, 't', 00H, 'o', 00H, ' '
	DB	00H, 'a', 00H, ' ', 00H, 't', 00H, 'e', 00H, 'm', 00H, 'p', 00H
	DB	'o', 00H, 'r', 00H, 'a', 00H, 'r', 00H, 'y', 00H, ' ', 00H, 'u'
	DB	00H, 's', 00H, 'i', 00H, 'n', 00H, 'g', 00H, ' ', 00H, '.', 00H
	DB	'e', 00H, 'v', 00H, 'a', 00H, 'l', 00H, '(', 00H, ')', 00H, '"'
	DB	00H, 00H, 00H				; `string'
CONST	ENDS
;	COMDAT ??_C@_1MC@KHOOJFOF@?$AAC?$AA?3?$AA?2?$AAU?$AAs?$AAe?$AAr?$AAs?$AA?2?$AAm?$AAa?$AAr?$AAi?$AAj?$AA?2@
CONST	SEGMENT
??_C@_1MC@KHOOJFOF@?$AAC?$AA?3?$AA?2?$AAU?$AAs?$AAe?$AAr?$AAs?$AA?2?$AAm?$AAa?$AAr?$AAi?$AAj?$AA?2@ DB 'C'
	DB	00H, ':', 00H, '\', 00H, 'U', 00H, 's', 00H, 'e', 00H, 'r', 00H
	DB	's', 00H, '\', 00H, 'm', 00H, 'a', 00H, 'r', 00H, 'i', 00H, 'j'
	DB	00H, '\', 00H, 'O', 00H, 'n', 00H, 'e', 00H, 'D', 00H, 'r', 00H
	DB	'i', 00H, 'v', 00H, 'e', 00H, '\', 00H, 'D', 00H, 'o', 00H, 'c'
	DB	00H, 'u', 00H, 'm', 00H, 'e', 00H, 'n', 00H, 't', 00H, 'e', 00H
	DB	'n', 00H, '\', 00H, 'G', 00H, 'i', 00H, 't', 00H, 'H', 00H, 'u'
	DB	00H, 'b', 00H, '\', 00H, 'N', 00H, 'e', 00H, 'u', 00H, 'r', 00H
	DB	'a', 00H, 'l', 00H, '_', 00H, 'N', 00H, 'e', 00H, 't', 00H, 'w'
	DB	00H, 'o', 00H, 'r', 00H, 'k', 00H, '\', 00H, 'd', 00H, 'e', 00H
	DB	'p', 00H, 'e', 00H, 'n', 00H, 'd', 00H, 'e', 00H, 'n', 00H, 'c'
	DB	00H, 'i', 00H, 'e', 00H, 's', 00H, '\', 00H, 'E', 00H, 'i', 00H
	DB	'g', 00H, 'e', 00H, 'n', 00H, '\', 00H, 's', 00H, 'r', 00H, 'c'
	DB	00H, '\', 00H, 'C', 00H, 'o', 00H, 'r', 00H, 'e', 00H, '\', 00H
	DB	'T', 00H, 'r', 00H, 'a', 00H, 'n', 00H, 's', 00H, 'p', 00H, 'o'
	DB	00H, 's', 00H, 'e', 00H, '.', 00H, 'h', 00H, 00H, 00H ; `string'
CONST	ENDS
;	COMDAT ??_C@_0HC@FBBJGPCH@aliasing?5detected?5during?5transp@
CONST	SEGMENT
??_C@_0HC@FBBJGPCH@aliasing?5detected?5during?5transp@ DB 'aliasing detec'
	DB	'ted during transposition, use transposeInPlace() or evaluate '
	DB	'the rhs into a temporary using .eval()', 00H ; `string'
CONST	ENDS
;	COMDAT ??_C@_1BIK@PCKBIHMA@?$AA?$CI?$AA?5?$AA?$CI?$AA?$CI?$AAi?$AAn?$AAt?$AAe?$AAr?$AAn?$AAa?$AAl?$AA?3?$AA?3?$AAU@
CONST	SEGMENT
??_C@_1BIK@PCKBIHMA@?$AA?$CI?$AA?5?$AA?$CI?$AA?$CI?$AAi?$AAn?$AAt?$AAe?$AAr?$AAn?$AAa?$AAl?$AA?3?$AA?3?$AAU@ DB '('
	DB	00H, ' ', 00H, '(', 00H, '(', 00H, 'i', 00H, 'n', 00H, 't', 00H
	DB	'e', 00H, 'r', 00H, 'n', 00H, 'a', 00H, 'l', 00H, ':', 00H, ':'
	DB	00H, 'U', 00H, 'I', 00H, 'n', 00H, 't', 00H, 'P', 00H, 't', 00H
	DB	'r', 00H, '(', 00H, 'm', 00H, '_', 00H, 'd', 00H, 'a', 00H, 't'
	DB	00H, 'a', 00H, ')', 00H, ' ', 00H, '%', 00H, ' ', 00H, 'i', 00H
	DB	'n', 00H, 't', 00H, 'e', 00H, 'r', 00H, 'n', 00H, 'a', 00H, 'l'
	DB	00H, ':', 00H, ':', 00H, 't', 00H, 'r', 00H, 'a', 00H, 'i', 00H
	DB	't', 00H, 's', 00H, '<', 00H, 'D', 00H, 'e', 00H, 'r', 00H, 'i'
	DB	00H, 'v', 00H, 'e', 00H, 'd', 00H, '>', 00H, ':', 00H, ':', 00H
	DB	'A', 00H, 'l', 00H, 'i', 00H, 'g', 00H, 'n', 00H, 'm', 00H, 'e'
	DB	00H, 'n', 00H, 't', 00H, ')', 00H, ' ', 00H, '=', 00H, '=', 00H
	DB	' ', 00H, '0', 00H, ')', 00H, ' ', 00H, '|', 00H, '|', 00H, ' '
	DB	00H, '(', 00H, 'c', 00H, 'o', 00H, 'l', 00H, 's', 00H, '(', 00H
	DB	')', 00H, ' ', 00H, '*', 00H, ' ', 00H, 'r', 00H, 'o', 00H, 'w'
	DB	00H, 's', 00H, '(', 00H, ')', 00H, ' ', 00H, '*', 00H, ' ', 00H
	DB	'm', 00H, 'i', 00H, 'n', 00H, 'I', 00H, 'n', 00H, 'n', 00H, 'e'
	DB	00H, 'r', 00H, 'S', 00H, 't', 00H, 'r', 00H, 'i', 00H, 'd', 00H
	DB	'e', 00H, ' ', 00H, '*', 00H, ' ', 00H, 's', 00H, 'i', 00H, 'z'
	DB	00H, 'e', 00H, 'o', 00H, 'f', 00H, '(', 00H, 'S', 00H, 'c', 00H
	DB	'a', 00H, 'l', 00H, 'a', 00H, 'r', 00H, ')', 00H, ')', 00H, ' '
	DB	00H, '<', 00H, ' ', 00H, 'i', 00H, 'n', 00H, 't', 00H, 'e', 00H
	DB	'r', 00H, 'n', 00H, 'a', 00H, 'l', 00H, ':', 00H, ':', 00H, 't'
	DB	00H, 'r', 00H, 'a', 00H, 'i', 00H, 't', 00H, 's', 00H, '<', 00H
	DB	'D', 00H, 'e', 00H, 'r', 00H, 'i', 00H, 'v', 00H, 'e', 00H, 'd'
	DB	00H, '>', 00H, ':', 00H, ':', 00H, 'A', 00H, 'l', 00H, 'i', 00H
	DB	'g', 00H, 'n', 00H, 'm', 00H, 'e', 00H, 'n', 00H, 't', 00H, ' '
	DB	00H, ')', 00H, ' ', 00H, '&', 00H, '&', 00H, ' ', 00H, '"', 00H
	DB	'd', 00H, 'a', 00H, 't', 00H, 'a', 00H, ' ', 00H, 'i', 00H, 's'
	DB	00H, ' ', 00H, 'n', 00H, 'o', 00H, 't', 00H, ' ', 00H, 'a', 00H
	DB	'l', 00H, 'i', 00H, 'g', 00H, 'n', 00H, 'e', 00H, 'd', 00H, '"'
	DB	00H, 00H, 00H				; `string'
CONST	ENDS
;	COMDAT ??_C@_0BE@KCPLGAEB@data?5is?5not?5aligned@
CONST	SEGMENT
??_C@_0BE@KCPLGAEB@data?5is?5not?5aligned@ DB 'data is not aligned', 00H ; `string'
CONST	ENDS
;	COMDAT ??_C@_1BFE@KJEIGNKH@?$AA?$CI?$AAd?$AAa?$AAt?$AAa?$AAP?$AAt?$AAr?$AA?5?$AA?$DN?$AA?$DN?$AA?5?$AA0?$AA?$CJ?$AA?5@
CONST	SEGMENT
??_C@_1BFE@KJEIGNKH@?$AA?$CI?$AAd?$AAa?$AAt?$AAa?$AAP?$AAt?$AAr?$AA?5?$AA?$DN?$AA?$DN?$AA?5?$AA0?$AA?$CJ?$AA?5@ DB '('
	DB	00H, 'd', 00H, 'a', 00H, 't', 00H, 'a', 00H, 'P', 00H, 't', 00H
	DB	'r', 00H, ' ', 00H, '=', 00H, '=', 00H, ' ', 00H, '0', 00H, ')'
	DB	00H, ' ', 00H, '|', 00H, '|', 00H, ' ', 00H, '(', 00H, ' ', 00H
	DB	'r', 00H, 'o', 00H, 'w', 00H, 's', 00H, ' ', 00H, '>', 00H, '='
	DB	00H, ' ', 00H, '0', 00H, ' ', 00H, '&', 00H, '&', 00H, ' ', 00H
	DB	'(', 00H, 'R', 00H, 'o', 00H, 'w', 00H, 's', 00H, 'A', 00H, 't'
	DB	00H, 'C', 00H, 'o', 00H, 'm', 00H, 'p', 00H, 'i', 00H, 'l', 00H
	DB	'e', 00H, 'T', 00H, 'i', 00H, 'm', 00H, 'e', 00H, ' ', 00H, '='
	DB	00H, '=', 00H, ' ', 00H, 'D', 00H, 'y', 00H, 'n', 00H, 'a', 00H
	DB	'm', 00H, 'i', 00H, 'c', 00H, ' ', 00H, '|', 00H, '|', 00H, ' '
	DB	00H, 'R', 00H, 'o', 00H, 'w', 00H, 's', 00H, 'A', 00H, 't', 00H
	DB	'C', 00H, 'o', 00H, 'm', 00H, 'p', 00H, 'i', 00H, 'l', 00H, 'e'
	DB	00H, 'T', 00H, 'i', 00H, 'm', 00H, 'e', 00H, ' ', 00H, '=', 00H
	DB	'=', 00H, ' ', 00H, 'r', 00H, 'o', 00H, 'w', 00H, 's', 00H, ')'
	DB	00H, ' ', 00H, '&', 00H, '&', 00H, ' ', 00H, 'c', 00H, 'o', 00H
	DB	'l', 00H, 's', 00H, ' ', 00H, '>', 00H, '=', 00H, ' ', 00H, '0'
	DB	00H, ' ', 00H, '&', 00H, '&', 00H, ' ', 00H, '(', 00H, 'C', 00H
	DB	'o', 00H, 'l', 00H, 's', 00H, 'A', 00H, 't', 00H, 'C', 00H, 'o'
	DB	00H, 'm', 00H, 'p', 00H, 'i', 00H, 'l', 00H, 'e', 00H, 'T', 00H
	DB	'i', 00H, 'm', 00H, 'e', 00H, ' ', 00H, '=', 00H, '=', 00H, ' '
	DB	00H, 'D', 00H, 'y', 00H, 'n', 00H, 'a', 00H, 'm', 00H, 'i', 00H
	DB	'c', 00H, ' ', 00H, '|', 00H, '|', 00H, ' ', 00H, 'C', 00H, 'o'
	DB	00H, 'l', 00H, 's', 00H, 'A', 00H, 't', 00H, 'C', 00H, 'o', 00H
	DB	'm', 00H, 'p', 00H, 'i', 00H, 'l', 00H, 'e', 00H, 'T', 00H, 'i'
	DB	00H, 'm', 00H, 'e', 00H, ' ', 00H, '=', 00H, '=', 00H, ' ', 00H
	DB	'c', 00H, 'o', 00H, 'l', 00H, 's', 00H, ')', 00H, ')', 00H, 00H
	DB	00H						; `string'
CONST	ENDS
;	COMDAT ??_C@_1LO@PAOHGOJK@?$AAC?$AA?3?$AA?2?$AAU?$AAs?$AAe?$AAr?$AAs?$AA?2?$AAm?$AAa?$AAr?$AAi?$AAj?$AA?2@
CONST	SEGMENT
??_C@_1LO@PAOHGOJK@?$AAC?$AA?3?$AA?2?$AAU?$AAs?$AAe?$AAr?$AAs?$AA?2?$AAm?$AAa?$AAr?$AAi?$AAj?$AA?2@ DB 'C'
	DB	00H, ':', 00H, '\', 00H, 'U', 00H, 's', 00H, 'e', 00H, 'r', 00H
	DB	's', 00H, '\', 00H, 'm', 00H, 'a', 00H, 'r', 00H, 'i', 00H, 'j'
	DB	00H, '\', 00H, 'O', 00H, 'n', 00H, 'e', 00H, 'D', 00H, 'r', 00H
	DB	'i', 00H, 'v', 00H, 'e', 00H, '\', 00H, 'D', 00H, 'o', 00H, 'c'
	DB	00H, 'u', 00H, 'm', 00H, 'e', 00H, 'n', 00H, 't', 00H, 'e', 00H
	DB	'n', 00H, '\', 00H, 'G', 00H, 'i', 00H, 't', 00H, 'H', 00H, 'u'
	DB	00H, 'b', 00H, '\', 00H, 'N', 00H, 'e', 00H, 'u', 00H, 'r', 00H
	DB	'a', 00H, 'l', 00H, '_', 00H, 'N', 00H, 'e', 00H, 't', 00H, 'w'
	DB	00H, 'o', 00H, 'r', 00H, 'k', 00H, '\', 00H, 'd', 00H, 'e', 00H
	DB	'p', 00H, 'e', 00H, 'n', 00H, 'd', 00H, 'e', 00H, 'n', 00H, 'c'
	DB	00H, 'i', 00H, 'e', 00H, 's', 00H, '\', 00H, 'E', 00H, 'i', 00H
	DB	'g', 00H, 'e', 00H, 'n', 00H, '\', 00H, 's', 00H, 'r', 00H, 'c'
	DB	00H, '\', 00H, 'C', 00H, 'o', 00H, 'r', 00H, 'e', 00H, '\', 00H
	DB	'M', 00H, 'a', 00H, 'p', 00H, 'B', 00H, 'a', 00H, 's', 00H, 'e'
	DB	00H, '.', 00H, 'h', 00H, 00H, 00H		; `string'
CONST	ENDS
;	COMDAT ??_C@_1GK@LKBOOPMH@?$AAr?$AAe?$AAs?$AAh?$AAa?$AAp?$AAe?$AAR?$AAo?$AAw?$AAs?$AA?5?$AA?$CK?$AA?5?$AAr@
CONST	SEGMENT
??_C@_1GK@LKBOOPMH@?$AAr?$AAe?$AAs?$AAh?$AAa?$AAp?$AAe?$AAR?$AAo?$AAw?$AAs?$AA?5?$AA?$CK?$AA?5?$AAr@ DB 'r'
	DB	00H, 'e', 00H, 's', 00H, 'h', 00H, 'a', 00H, 'p', 00H, 'e', 00H
	DB	'R', 00H, 'o', 00H, 'w', 00H, 's', 00H, ' ', 00H, '*', 00H, ' '
	DB	00H, 'r', 00H, 'e', 00H, 's', 00H, 'h', 00H, 'a', 00H, 'p', 00H
	DB	'e', 00H, 'C', 00H, 'o', 00H, 'l', 00H, 's', 00H, ' ', 00H, '='
	DB	00H, '=', 00H, ' ', 00H, 'x', 00H, 'p', 00H, 'r', 00H, '.', 00H
	DB	'r', 00H, 'o', 00H, 'w', 00H, 's', 00H, '(', 00H, ')', 00H, ' '
	DB	00H, '*', 00H, ' ', 00H, 'x', 00H, 'p', 00H, 'r', 00H, '.', 00H
	DB	'c', 00H, 'o', 00H, 'l', 00H, 's', 00H, '(', 00H, ')', 00H, 00H
	DB	00H						; `string'
CONST	ENDS
;	COMDAT ??_C@_1MA@PLHOEBAL@?$AAC?$AA?3?$AA?2?$AAU?$AAs?$AAe?$AAr?$AAs?$AA?2?$AAm?$AAa?$AAr?$AAi?$AAj?$AA?2@
CONST	SEGMENT
??_C@_1MA@PLHOEBAL@?$AAC?$AA?3?$AA?2?$AAU?$AAs?$AAe?$AAr?$AAs?$AA?2?$AAm?$AAa?$AAr?$AAi?$AAj?$AA?2@ DB 'C'
	DB	00H, ':', 00H, '\', 00H, 'U', 00H, 's', 00H, 'e', 00H, 'r', 00H
	DB	's', 00H, '\', 00H, 'm', 00H, 'a', 00H, 'r', 00H, 'i', 00H, 'j'
	DB	00H, '\', 00H, 'O', 00H, 'n', 00H, 'e', 00H, 'D', 00H, 'r', 00H
	DB	'i', 00H, 'v', 00H, 'e', 00H, '\', 00H, 'D', 00H, 'o', 00H, 'c'
	DB	00H, 'u', 00H, 'm', 00H, 'e', 00H, 'n', 00H, 't', 00H, 'e', 00H
	DB	'n', 00H, '\', 00H, 'G', 00H, 'i', 00H, 't', 00H, 'H', 00H, 'u'
	DB	00H, 'b', 00H, '\', 00H, 'N', 00H, 'e', 00H, 'u', 00H, 'r', 00H
	DB	'a', 00H, 'l', 00H, '_', 00H, 'N', 00H, 'e', 00H, 't', 00H, 'w'
	DB	00H, 'o', 00H, 'r', 00H, 'k', 00H, '\', 00H, 'd', 00H, 'e', 00H
	DB	'p', 00H, 'e', 00H, 'n', 00H, 'd', 00H, 'e', 00H, 'n', 00H, 'c'
	DB	00H, 'i', 00H, 'e', 00H, 's', 00H, '\', 00H, 'E', 00H, 'i', 00H
	DB	'g', 00H, 'e', 00H, 'n', 00H, '\', 00H, 's', 00H, 'r', 00H, 'c'
	DB	00H, '\', 00H, 'C', 00H, 'o', 00H, 'r', 00H, 'e', 00H, '\', 00H
	DB	'R', 00H, 'e', 00H, 's', 00H, 'h', 00H, 'a', 00H, 'p', 00H, 'e'
	DB	00H, 'd', 00H, '.', 00H, 'h', 00H, 00H, 00H	; `string'
CONST	ENDS
;	COMDAT ??_C@_1BBI@CNLEDIFK@?$AAl?$AAh?$AAs?$AA?4?$AAc?$AAo?$AAl?$AAs?$AA?$CI?$AA?$CJ?$AA?5?$AA?$DN?$AA?$DN?$AA?5?$AAr@
CONST	SEGMENT
??_C@_1BBI@CNLEDIFK@?$AAl?$AAh?$AAs?$AA?4?$AAc?$AAo?$AAl?$AAs?$AA?$CI?$AA?$CJ?$AA?5?$AA?$DN?$AA?$DN?$AA?5?$AAr@ DB 'l'
	DB	00H, 'h', 00H, 's', 00H, '.', 00H, 'c', 00H, 'o', 00H, 'l', 00H
	DB	's', 00H, '(', 00H, ')', 00H, ' ', 00H, '=', 00H, '=', 00H, ' '
	DB	00H, 'r', 00H, 'h', 00H, 's', 00H, '.', 00H, 'r', 00H, 'o', 00H
	DB	'w', 00H, 's', 00H, '(', 00H, ')', 00H, ' ', 00H, '&', 00H, '&'
	DB	00H, ' ', 00H, '"', 00H, 'i', 00H, 'n', 00H, 'v', 00H, 'a', 00H
	DB	'l', 00H, 'i', 00H, 'd', 00H, ' ', 00H, 'm', 00H, 'a', 00H, 't'
	DB	00H, 'r', 00H, 'i', 00H, 'x', 00H, ' ', 00H, 'p', 00H, 'r', 00H
	DB	'o', 00H, 'd', 00H, 'u', 00H, 'c', 00H, 't', 00H, '"', 00H, ' '
	DB	00H, '&', 00H, '&', 00H, ' ', 00H, '"', 00H, 'i', 00H, 'f', 00H
	DB	' ', 00H, 'y', 00H, 'o', 00H, 'u', 00H, ' ', 00H, 'w', 00H, 'a'
	DB	00H, 'n', 00H, 't', 00H, 'e', 00H, 'd', 00H, ' ', 00H, 'a', 00H
	DB	' ', 00H, 'c', 00H, 'o', 00H, 'e', 00H, 'f', 00H, 'f', 00H, '-'
	DB	00H, 'w', 00H, 'i', 00H, 's', 00H, 'e', 00H, ' ', 00H, 'o', 00H
	DB	'r', 00H, ' ', 00H, 'a', 00H, ' ', 00H, 'd', 00H, 'o', 00H, 't'
	DB	00H, ' ', 00H, 'p', 00H, 'r', 00H, 'o', 00H, 'd', 00H, 'u', 00H
	DB	'c', 00H, 't', 00H, ' ', 00H, 'u', 00H, 's', 00H, 'e', 00H, ' '
	DB	00H, 't', 00H, 'h', 00H, 'e', 00H, ' ', 00H, 'r', 00H, 'e', 00H
	DB	's', 00H, 'p', 00H, 'e', 00H, 'c', 00H, 't', 00H, 'i', 00H, 'v'
	DB	00H, 'e', 00H, ' ', 00H, 'e', 00H, 'x', 00H, 'p', 00H, 'l', 00H
	DB	'i', 00H, 'c', 00H, 'i', 00H, 't', 00H, ' ', 00H, 'f', 00H, 'u'
	DB	00H, 'n', 00H, 'c', 00H, 't', 00H, 'i', 00H, 'o', 00H, 'n', 00H
	DB	's', 00H, '"', 00H, 00H, 00H			; `string'
CONST	ENDS
;	COMDAT ??_C@_1LO@KHJPEOHM@?$AAC?$AA?3?$AA?2?$AAU?$AAs?$AAe?$AAr?$AAs?$AA?2?$AAm?$AAa?$AAr?$AAi?$AAj?$AA?2@
CONST	SEGMENT
??_C@_1LO@KHJPEOHM@?$AAC?$AA?3?$AA?2?$AAU?$AAs?$AAe?$AAr?$AAs?$AA?2?$AAm?$AAa?$AAr?$AAi?$AAj?$AA?2@ DB 'C'
	DB	00H, ':', 00H, '\', 00H, 'U', 00H, 's', 00H, 'e', 00H, 'r', 00H
	DB	's', 00H, '\', 00H, 'm', 00H, 'a', 00H, 'r', 00H, 'i', 00H, 'j'
	DB	00H, '\', 00H, 'O', 00H, 'n', 00H, 'e', 00H, 'D', 00H, 'r', 00H
	DB	'i', 00H, 'v', 00H, 'e', 00H, '\', 00H, 'D', 00H, 'o', 00H, 'c'
	DB	00H, 'u', 00H, 'm', 00H, 'e', 00H, 'n', 00H, 't', 00H, 'e', 00H
	DB	'n', 00H, '\', 00H, 'G', 00H, 'i', 00H, 't', 00H, 'H', 00H, 'u'
	DB	00H, 'b', 00H, '\', 00H, 'N', 00H, 'e', 00H, 'u', 00H, 'r', 00H
	DB	'a', 00H, 'l', 00H, '_', 00H, 'N', 00H, 'e', 00H, 't', 00H, 'w'
	DB	00H, 'o', 00H, 'r', 00H, 'k', 00H, '\', 00H, 'd', 00H, 'e', 00H
	DB	'p', 00H, 'e', 00H, 'n', 00H, 'd', 00H, 'e', 00H, 'n', 00H, 'c'
	DB	00H, 'i', 00H, 'e', 00H, 's', 00H, '\', 00H, 'E', 00H, 'i', 00H
	DB	'g', 00H, 'e', 00H, 'n', 00H, '\', 00H, 's', 00H, 'r', 00H, 'c'
	DB	00H, '\', 00H, 'C', 00H, 'o', 00H, 'r', 00H, 'e', 00H, '\', 00H
	DB	'P', 00H, 'r', 00H, 'o', 00H, 'd', 00H, 'u', 00H, 'c', 00H, 't'
	DB	00H, '.', 00H, 'h', 00H, 00H, 00H		; `string'
CONST	ENDS
;	COMDAT ??_C@_0FC@LDDJKCDG@if?5you?5wanted?5a?5coeff?9wise?5or?5a@
CONST	SEGMENT
??_C@_0FC@LDDJKCDG@if?5you?5wanted?5a?5coeff?9wise?5or?5a@ DB 'if you wan'
	DB	'ted a coeff-wise or a dot product use the respective explicit'
	DB	' functions', 00H				; `string'
CONST	ENDS
;	COMDAT ??_C@_0BH@MBKJFFGJ@invalid?5matrix?5product@
CONST	SEGMENT
??_C@_0BH@MBKJFFGJ@invalid?5matrix?5product@ DB 'invalid matrix product', 00H ; `string'
CONST	ENDS
;	COMDAT ??_C@_1BBE@FLFGDPIJ@?$AA?$CI?$AA?$CI?$AAS?$AAi?$AAz?$AAe?$AAA?$AAt?$AAC?$AAo?$AAm?$AAp?$AAi?$AAl?$AAe@
CONST	SEGMENT
??_C@_1BBE@FLFGDPIJ@?$AA?$CI?$AA?$CI?$AAS?$AAi?$AAz?$AAe?$AAA?$AAt?$AAC?$AAo?$AAm?$AAp?$AAi?$AAl?$AAe@ DB '('
	DB	00H, '(', 00H, 'S', 00H, 'i', 00H, 'z', 00H, 'e', 00H, 'A', 00H
	DB	't', 00H, 'C', 00H, 'o', 00H, 'm', 00H, 'p', 00H, 'i', 00H, 'l'
	DB	00H, 'e', 00H, 'T', 00H, 'i', 00H, 'm', 00H, 'e', 00H, ' ', 00H
	DB	'=', 00H, '=', 00H, ' ', 00H, 'D', 00H, 'y', 00H, 'n', 00H, 'a'
	DB	00H, 'm', 00H, 'i', 00H, 'c', 00H, ' ', 00H, '&', 00H, '&', 00H
	DB	' ', 00H, '(', 00H, 'M', 00H, 'a', 00H, 'x', 00H, 'S', 00H, 'i'
	DB	00H, 'z', 00H, 'e', 00H, 'A', 00H, 't', 00H, 'C', 00H, 'o', 00H
	DB	'm', 00H, 'p', 00H, 'i', 00H, 'l', 00H, 'e', 00H, 'T', 00H, 'i'
	DB	00H, 'm', 00H, 'e', 00H, '=', 00H, '=', 00H, 'D', 00H, 'y', 00H
	DB	'n', 00H, 'a', 00H, 'm', 00H, 'i', 00H, 'c', 00H, ' ', 00H, '|'
	DB	00H, '|', 00H, ' ', 00H, 's', 00H, 'i', 00H, 'z', 00H, 'e', 00H
	DB	'<', 00H, '=', 00H, 'M', 00H, 'a', 00H, 'x', 00H, 'S', 00H, 'i'
	DB	00H, 'z', 00H, 'e', 00H, 'A', 00H, 't', 00H, 'C', 00H, 'o', 00H
	DB	'm', 00H, 'p', 00H, 'i', 00H, 'l', 00H, 'e', 00H, 'T', 00H, 'i'
	DB	00H, 'm', 00H, 'e', 00H, ')', 00H, ')', 00H, ' ', 00H, '|', 00H
	DB	'|', 00H, ' ', 00H, 'S', 00H, 'i', 00H, 'z', 00H, 'e', 00H, 'A'
	DB	00H, 't', 00H, 'C', 00H, 'o', 00H, 'm', 00H, 'p', 00H, 'i', 00H
	DB	'l', 00H, 'e', 00H, 'T', 00H, 'i', 00H, 'm', 00H, 'e', 00H, ' '
	DB	00H, '=', 00H, '=', 00H, ' ', 00H, 's', 00H, 'i', 00H, 'z', 00H
	DB	'e', 00H, ')', 00H, ' ', 00H, '&', 00H, '&', 00H, ' ', 00H, 's'
	DB	00H, 'i', 00H, 'z', 00H, 'e', 00H, '>', 00H, '=', 00H, '0', 00H
	DB	00H, 00H					; `string'
	ORG $+6
$SG4294938853 DB 'AVX SSE, SSE2, SSE3, SSSE3, SSE4.1, SSE4.2', 00H
	ORG $+13
$SG4294938659 DB 'C', 00H, ':', 00H, '\', 00H, 'U', 00H, 's', 00H, 'e', 00H
	DB	'r', 00H, 's', 00H, '\', 00H, 'm', 00H, 'a', 00H, 'r', 00H, 'i'
	DB	00H, 'j', 00H, '\', 00H, 'O', 00H, 'n', 00H, 'e', 00H, 'D', 00H
	DB	'r', 00H, 'i', 00H, 'v', 00H, 'e', 00H, '\', 00H, 'D', 00H, 'o'
	DB	00H, 'c', 00H, 'u', 00H, 'm', 00H, 'e', 00H, 'n', 00H, 't', 00H
	DB	'e', 00H, 'n', 00H, '\', 00H, 'G', 00H, 'i', 00H, 't', 00H, 'H'
	DB	00H, 'u', 00H, 'b', 00H, '\', 00H, 'N', 00H, 'e', 00H, 'u', 00H
	DB	'r', 00H, 'a', 00H, 'l', 00H, '_', 00H, 'N', 00H, 'e', 00H, 't'
	DB	00H, 'w', 00H, 'o', 00H, 'r', 00H, 'k', 00H, '\', 00H, 'd', 00H
	DB	'e', 00H, 'p', 00H, 'e', 00H, 'n', 00H, 'd', 00H, 'e', 00H, 'n'
	DB	00H, 'c', 00H, 'i', 00H, 'e', 00H, 's', 00H, '\', 00H, 'E', 00H
	DB	'i', 00H, 'g', 00H, 'e', 00H, 'n', 00H, '\', 00H, 's', 00H, 'r'
	DB	00H, 'c', 00H, '\', 00H, 'C', 00H, 'o', 00H, 'r', 00H, 'e', 00H
	DB	'\', 00H, 'D', 00H, 'o', 00H, 't', 00H, '.', 00H, 'h', 00H, 00H
	DB	00H
	ORG $+2
$SG4294938658 DB 's', 00H, 'i', 00H, 'z', 00H, 'e', 00H, '(', 00H, ')', 00H
	DB	' ', 00H, '=', 00H, '=', 00H, ' ', 00H, 'o', 00H, 't', 00H, 'h'
	DB	00H, 'e', 00H, 'r', 00H, '.', 00H, 's', 00H, 'i', 00H, 'z', 00H
	DB	'e', 00H, '(', 00H, ')', 00H, 00H, 00H
	ORG $+10
$SG4294938657 DB 'C', 00H, ':', 00H, '\', 00H, 'U', 00H, 's', 00H, 'e', 00H
	DB	'r', 00H, 's', 00H, '\', 00H, 'm', 00H, 'a', 00H, 'r', 00H, 'i'
	DB	00H, 'j', 00H, '\', 00H, 'O', 00H, 'n', 00H, 'e', 00H, 'D', 00H
	DB	'r', 00H, 'i', 00H, 'v', 00H, 'e', 00H, '\', 00H, 'D', 00H, 'o'
	DB	00H, 'c', 00H, 'u', 00H, 'm', 00H, 'e', 00H, 'n', 00H, 't', 00H
	DB	'e', 00H, 'n', 00H, '\', 00H, 'G', 00H, 'i', 00H, 't', 00H, 'H'
	DB	00H, 'u', 00H, 'b', 00H, '\', 00H, 'N', 00H, 'e', 00H, 'u', 00H
	DB	'r', 00H, 'a', 00H, 'l', 00H, '_', 00H, 'N', 00H, 'e', 00H, 't'
	DB	00H, 'w', 00H, 'o', 00H, 'r', 00H, 'k', 00H, '\', 00H, 'd', 00H
	DB	'e', 00H, 'p', 00H, 'e', 00H, 'n', 00H, 'd', 00H, 'e', 00H, 'n'
	DB	00H, 'c', 00H, 'i', 00H, 'e', 00H, 's', 00H, '\', 00H, 'E', 00H
	DB	'i', 00H, 'g', 00H, 'e', 00H, 'n', 00H, '\', 00H, 's', 00H, 'r'
	DB	00H, 'c', 00H, '\', 00H, 'C', 00H, 'o', 00H, 'r', 00H, 'e', 00H
	DB	'\', 00H, 'D', 00H, 'o', 00H, 't', 00H, '.', 00H, 'h', 00H, 00H
	DB	00H
	ORG $+2
$SG4294938656 DB 's', 00H, 'i', 00H, 'z', 00H, 'e', 00H, '(', 00H, ')', 00H
	DB	' ', 00H, '=', 00H, '=', 00H, ' ', 00H, 'o', 00H, 't', 00H, 'h'
	DB	00H, 'e', 00H, 'r', 00H, '.', 00H, 's', 00H, 'i', 00H, 'z', 00H
	DB	'e', 00H, '(', 00H, ')', 00H, 00H, 00H
	ORG $+10
$SG4294938655 DB 'C', 00H, ':', 00H, '\', 00H, 'U', 00H, 's', 00H, 'e', 00H
	DB	'r', 00H, 's', 00H, '\', 00H, 'm', 00H, 'a', 00H, 'r', 00H, 'i'
	DB	00H, 'j', 00H, '\', 00H, 'O', 00H, 'n', 00H, 'e', 00H, 'D', 00H
	DB	'r', 00H, 'i', 00H, 'v', 00H, 'e', 00H, '\', 00H, 'D', 00H, 'o'
	DB	00H, 'c', 00H, 'u', 00H, 'm', 00H, 'e', 00H, 'n', 00H, 't', 00H
	DB	'e', 00H, 'n', 00H, '\', 00H, 'G', 00H, 'i', 00H, 't', 00H, 'H'
	DB	00H, 'u', 00H, 'b', 00H, '\', 00H, 'N', 00H, 'e', 00H, 'u', 00H
	DB	'r', 00H, 'a', 00H, 'l', 00H, '_', 00H, 'N', 00H, 'e', 00H, 't'
	DB	00H, 'w', 00H, 'o', 00H, 'r', 00H, 'k', 00H, '\', 00H, 'd', 00H
	DB	'e', 00H, 'p', 00H, 'e', 00H, 'n', 00H, 'd', 00H, 'e', 00H, 'n'
	DB	00H, 'c', 00H, 'i', 00H, 'e', 00H, 's', 00H, '\', 00H, 'E', 00H
	DB	'i', 00H, 'g', 00H, 'e', 00H, 'n', 00H, '\', 00H, 's', 00H, 'r'
	DB	00H, 'c', 00H, '\', 00H, 'C', 00H, 'o', 00H, 'r', 00H, 'e', 00H
	DB	'\', 00H, 'p', 00H, 'r', 00H, 'o', 00H, 'd', 00H, 'u', 00H, 'c'
	DB	00H, 't', 00H, 's', 00H, '\', 00H, 'G', 00H, 'e', 00H, 'n', 00H
	DB	'e', 00H, 'r', 00H, 'a', 00H, 'l', 00H, 'B', 00H, 'l', 00H, 'o'
	DB	00H, 'c', 00H, 'k', 00H, 'P', 00H, 'a', 00H, 'n', 00H, 'e', 00H
	DB	'l', 00H, 'K', 00H, 'e', 00H, 'r', 00H, 'n', 00H, 'e', 00H, 'l'
	DB	00H, '.', 00H, 'h', 00H, 00H, 00H
$SG4294938654 DB '(', 00H, '(', 00H, '!', 00H, 'P', 00H, 'a', 00H, 'n', 00H
	DB	'e', 00H, 'l', 00H, 'M', 00H, 'o', 00H, 'd', 00H, 'e', 00H, ')'
	DB	00H, ' ', 00H, '&', 00H, '&', 00H, ' ', 00H, 's', 00H, 't', 00H
	DB	'r', 00H, 'i', 00H, 'd', 00H, 'e', 00H, '=', 00H, '=', 00H, '0'
	DB	00H, ' ', 00H, '&', 00H, '&', 00H, ' ', 00H, 'o', 00H, 'f', 00H
	DB	'f', 00H, 's', 00H, 'e', 00H, 't', 00H, '=', 00H, '=', 00H, '0'
	DB	00H, ')', 00H, ' ', 00H, '|', 00H, '|', 00H, ' ', 00H, '(', 00H
	DB	'P', 00H, 'a', 00H, 'n', 00H, 'e', 00H, 'l', 00H, 'M', 00H, 'o'
	DB	00H, 'd', 00H, 'e', 00H, ' ', 00H, '&', 00H, '&', 00H, ' ', 00H
	DB	's', 00H, 't', 00H, 'r', 00H, 'i', 00H, 'd', 00H, 'e', 00H, '>'
	DB	00H, '=', 00H, 'd', 00H, 'e', 00H, 'p', 00H, 't', 00H, 'h', 00H
	DB	' ', 00H, '&', 00H, '&', 00H, ' ', 00H, 'o', 00H, 'f', 00H, 'f'
	DB	00H, 's', 00H, 'e', 00H, 't', 00H, '<', 00H, '=', 00H, 's', 00H
	DB	't', 00H, 'r', 00H, 'i', 00H, 'd', 00H, 'e', 00H, ')', 00H, 00H
	DB	00H
	ORG $+10
$SG4294938653 DB 'C', 00H, ':', 00H, '\', 00H, 'U', 00H, 's', 00H, 'e', 00H
	DB	'r', 00H, 's', 00H, '\', 00H, 'm', 00H, 'a', 00H, 'r', 00H, 'i'
	DB	00H, 'j', 00H, '\', 00H, 'O', 00H, 'n', 00H, 'e', 00H, 'D', 00H
	DB	'r', 00H, 'i', 00H, 'v', 00H, 'e', 00H, '\', 00H, 'D', 00H, 'o'
	DB	00H, 'c', 00H, 'u', 00H, 'm', 00H, 'e', 00H, 'n', 00H, 't', 00H
	DB	'e', 00H, 'n', 00H, '\', 00H, 'G', 00H, 'i', 00H, 't', 00H, 'H'
	DB	00H, 'u', 00H, 'b', 00H, '\', 00H, 'N', 00H, 'e', 00H, 'u', 00H
	DB	'r', 00H, 'a', 00H, 'l', 00H, '_', 00H, 'N', 00H, 'e', 00H, 't'
	DB	00H, 'w', 00H, 'o', 00H, 'r', 00H, 'k', 00H, '\', 00H, 'd', 00H
	DB	'e', 00H, 'p', 00H, 'e', 00H, 'n', 00H, 'd', 00H, 'e', 00H, 'n'
	DB	00H, 'c', 00H, 'i', 00H, 'e', 00H, 's', 00H, '\', 00H, 'E', 00H
	DB	'i', 00H, 'g', 00H, 'e', 00H, 'n', 00H, '\', 00H, 's', 00H, 'r'
	DB	00H, 'c', 00H, '\', 00H, 'C', 00H, 'o', 00H, 'r', 00H, 'e', 00H
	DB	'\', 00H, 'p', 00H, 'r', 00H, 'o', 00H, 'd', 00H, 'u', 00H, 'c'
	DB	00H, 't', 00H, 's', 00H, '\', 00H, 'G', 00H, 'e', 00H, 'n', 00H
	DB	'e', 00H, 'r', 00H, 'a', 00H, 'l', 00H, 'B', 00H, 'l', 00H, 'o'
	DB	00H, 'c', 00H, 'k', 00H, 'P', 00H, 'a', 00H, 'n', 00H, 'e', 00H
	DB	'l', 00H, 'K', 00H, 'e', 00H, 'r', 00H, 'n', 00H, 'e', 00H, 'l'
	DB	00H, '.', 00H, 'h', 00H, 00H, 00H
$SG4294938652 DB '(', 00H, '(', 00H, '!', 00H, 'P', 00H, 'a', 00H, 'n', 00H
	DB	'e', 00H, 'l', 00H, 'M', 00H, 'o', 00H, 'd', 00H, 'e', 00H, ')'
	DB	00H, ' ', 00H, '&', 00H, '&', 00H, ' ', 00H, 's', 00H, 't', 00H
	DB	'r', 00H, 'i', 00H, 'd', 00H, 'e', 00H, '=', 00H, '=', 00H, '0'
	DB	00H, ' ', 00H, '&', 00H, '&', 00H, ' ', 00H, 'o', 00H, 'f', 00H
	DB	'f', 00H, 's', 00H, 'e', 00H, 't', 00H, '=', 00H, '=', 00H, '0'
	DB	00H, ')', 00H, ' ', 00H, '|', 00H, '|', 00H, ' ', 00H, '(', 00H
	DB	'P', 00H, 'a', 00H, 'n', 00H, 'e', 00H, 'l', 00H, 'M', 00H, 'o'
	DB	00H, 'd', 00H, 'e', 00H, ' ', 00H, '&', 00H, '&', 00H, ' ', 00H
	DB	's', 00H, 't', 00H, 'r', 00H, 'i', 00H, 'd', 00H, 'e', 00H, '>'
	DB	00H, '=', 00H, 'd', 00H, 'e', 00H, 'p', 00H, 't', 00H, 'h', 00H
	DB	' ', 00H, '&', 00H, '&', 00H, ' ', 00H, 'o', 00H, 'f', 00H, 'f'
	DB	00H, 's', 00H, 'e', 00H, 't', 00H, '<', 00H, '=', 00H, 's', 00H
	DB	't', 00H, 'r', 00H, 'i', 00H, 'd', 00H, 'e', 00H, ')', 00H, 00H
	DB	00H
	ORG $+10
$SG4294938645 DB 'C', 00H, ':', 00H, '\', 00H, 'U', 00H, 's', 00H, 'e', 00H
	DB	'r', 00H, 's', 00H, '\', 00H, 'm', 00H, 'a', 00H, 'r', 00H, 'i'
	DB	00H, 'j', 00H, '\', 00H, 'O', 00H, 'n', 00H, 'e', 00H, 'D', 00H
	DB	'r', 00H, 'i', 00H, 'v', 00H, 'e', 00H, '\', 00H, 'D', 00H, 'o'
	DB	00H, 'c', 00H, 'u', 00H, 'm', 00H, 'e', 00H, 'n', 00H, 't', 00H
	DB	'e', 00H, 'n', 00H, '\', 00H, 'G', 00H, 'i', 00H, 't', 00H, 'H'
	DB	00H, 'u', 00H, 'b', 00H, '\', 00H, 'N', 00H, 'e', 00H, 'u', 00H
	DB	'r', 00H, 'a', 00H, 'l', 00H, '_', 00H, 'N', 00H, 'e', 00H, 't'
	DB	00H, 'w', 00H, 'o', 00H, 'r', 00H, 'k', 00H, '\', 00H, 'd', 00H
	DB	'e', 00H, 'p', 00H, 'e', 00H, 'n', 00H, 'd', 00H, 'e', 00H, 'n'
	DB	00H, 'c', 00H, 'i', 00H, 'e', 00H, 's', 00H, '\', 00H, 'E', 00H
	DB	'i', 00H, 'g', 00H, 'e', 00H, 'n', 00H, '\', 00H, 's', 00H, 'r'
	DB	00H, 'c', 00H, '\', 00H, 'C', 00H, 'o', 00H, 'r', 00H, 'e', 00H
	DB	'\', 00H, 'D', 00H, 'o', 00H, 't', 00H, '.', 00H, 'h', 00H, 00H
	DB	00H
	ORG $+2
$SG4294938644 DB 's', 00H, 'i', 00H, 'z', 00H, 'e', 00H, '(', 00H, ')', 00H
	DB	' ', 00H, '=', 00H, '=', 00H, ' ', 00H, 'o', 00H, 't', 00H, 'h'
	DB	00H, 'e', 00H, 'r', 00H, '.', 00H, 's', 00H, 'i', 00H, 'z', 00H
	DB	'e', 00H, '(', 00H, ')', 00H, 00H, 00H
	ORG $+2
$SG4294938643 DB 'you are using an empty matrix', 00H
	ORG $+10
$SG4294938642 DB 'C', 00H, ':', 00H, '\', 00H, 'U', 00H, 's', 00H, 'e', 00H
	DB	'r', 00H, 's', 00H, '\', 00H, 'm', 00H, 'a', 00H, 'r', 00H, 'i'
	DB	00H, 'j', 00H, '\', 00H, 'O', 00H, 'n', 00H, 'e', 00H, 'D', 00H
	DB	'r', 00H, 'i', 00H, 'v', 00H, 'e', 00H, '\', 00H, 'D', 00H, 'o'
	DB	00H, 'c', 00H, 'u', 00H, 'm', 00H, 'e', 00H, 'n', 00H, 't', 00H
	DB	'e', 00H, 'n', 00H, '\', 00H, 'G', 00H, 'i', 00H, 't', 00H, 'H'
	DB	00H, 'u', 00H, 'b', 00H, '\', 00H, 'N', 00H, 'e', 00H, 'u', 00H
	DB	'r', 00H, 'a', 00H, 'l', 00H, '_', 00H, 'N', 00H, 'e', 00H, 't'
	DB	00H, 'w', 00H, 'o', 00H, 'r', 00H, 'k', 00H, '\', 00H, 'd', 00H
	DB	'e', 00H, 'p', 00H, 'e', 00H, 'n', 00H, 'd', 00H, 'e', 00H, 'n'
	DB	00H, 'c', 00H, 'i', 00H, 'e', 00H, 's', 00H, '\', 00H, 'E', 00H
	DB	'i', 00H, 'g', 00H, 'e', 00H, 'n', 00H, '\', 00H, 's', 00H, 'r'
	DB	00H, 'c', 00H, '\', 00H, 'C', 00H, 'o', 00H, 'r', 00H, 'e', 00H
	DB	'\', 00H, 'R', 00H, 'e', 00H, 'd', 00H, 'u', 00H, 'x', 00H, '.'
	DB	00H, 'h', 00H, 00H, 00H
	ORG $+6
$SG4294938641 DB 't', 00H, 'h', 00H, 'i', 00H, 's', 00H, '-', 00H, '>', 00H
	DB	'r', 00H, 'o', 00H, 'w', 00H, 's', 00H, '(', 00H, ')', 00H, '>'
	DB	00H, '0', 00H, ' ', 00H, '&', 00H, '&', 00H, ' ', 00H, 't', 00H
	DB	'h', 00H, 'i', 00H, 's', 00H, '-', 00H, '>', 00H, 'c', 00H, 'o'
	DB	00H, 'l', 00H, 's', 00H, '(', 00H, ')', 00H, '>', 00H, '0', 00H
	DB	' ', 00H, '&', 00H, '&', 00H, ' ', 00H, '"', 00H, 'y', 00H, 'o'
	DB	00H, 'u', 00H, ' ', 00H, 'a', 00H, 'r', 00H, 'e', 00H, ' ', 00H
	DB	'u', 00H, 's', 00H, 'i', 00H, 'n', 00H, 'g', 00H, ' ', 00H, 'a'
	DB	00H, 'n', 00H, ' ', 00H, 'e', 00H, 'm', 00H, 'p', 00H, 't', 00H
	DB	'y', 00H, ' ', 00H, 'm', 00H, 'a', 00H, 't', 00H, 'r', 00H, 'i'
	DB	00H, 'x', 00H, '"', 00H, 00H, 00H
$SG4294938640 DB 'you are using an empty matrix', 00H
	ORG $+10
$SG4294938639 DB 'C', 00H, ':', 00H, '\', 00H, 'U', 00H, 's', 00H, 'e', 00H
	DB	'r', 00H, 's', 00H, '\', 00H, 'm', 00H, 'a', 00H, 'r', 00H, 'i'
	DB	00H, 'j', 00H, '\', 00H, 'O', 00H, 'n', 00H, 'e', 00H, 'D', 00H
	DB	'r', 00H, 'i', 00H, 'v', 00H, 'e', 00H, '\', 00H, 'D', 00H, 'o'
	DB	00H, 'c', 00H, 'u', 00H, 'm', 00H, 'e', 00H, 'n', 00H, 't', 00H
	DB	'e', 00H, 'n', 00H, '\', 00H, 'G', 00H, 'i', 00H, 't', 00H, 'H'
	DB	00H, 'u', 00H, 'b', 00H, '\', 00H, 'N', 00H, 'e', 00H, 'u', 00H
	DB	'r', 00H, 'a', 00H, 'l', 00H, '_', 00H, 'N', 00H, 'e', 00H, 't'
	DB	00H, 'w', 00H, 'o', 00H, 'r', 00H, 'k', 00H, '\', 00H, 'd', 00H
	DB	'e', 00H, 'p', 00H, 'e', 00H, 'n', 00H, 'd', 00H, 'e', 00H, 'n'
	DB	00H, 'c', 00H, 'i', 00H, 'e', 00H, 's', 00H, '\', 00H, 'E', 00H
	DB	'i', 00H, 'g', 00H, 'e', 00H, 'n', 00H, '\', 00H, 's', 00H, 'r'
	DB	00H, 'c', 00H, '\', 00H, 'C', 00H, 'o', 00H, 'r', 00H, 'e', 00H
	DB	'\', 00H, 'R', 00H, 'e', 00H, 'd', 00H, 'u', 00H, 'x', 00H, '.'
	DB	00H, 'h', 00H, 00H, 00H
	ORG $+6
$SG4294938638 DB 't', 00H, 'h', 00H, 'i', 00H, 's', 00H, '-', 00H, '>', 00H
	DB	'r', 00H, 'o', 00H, 'w', 00H, 's', 00H, '(', 00H, ')', 00H, '>'
	DB	00H, '0', 00H, ' ', 00H, '&', 00H, '&', 00H, ' ', 00H, 't', 00H
	DB	'h', 00H, 'i', 00H, 's', 00H, '-', 00H, '>', 00H, 'c', 00H, 'o'
	DB	00H, 'l', 00H, 's', 00H, '(', 00H, ')', 00H, '>', 00H, '0', 00H
	DB	' ', 00H, '&', 00H, '&', 00H, ' ', 00H, '"', 00H, 'y', 00H, 'o'
	DB	00H, 'u', 00H, ' ', 00H, 'a', 00H, 'r', 00H, 'e', 00H, ' ', 00H
	DB	'u', 00H, 's', 00H, 'i', 00H, 'n', 00H, 'g', 00H, ' ', 00H, 'a'
	DB	00H, 'n', 00H, ' ', 00H, 'e', 00H, 'm', 00H, 'p', 00H, 't', 00H
	DB	'y', 00H, ' ', 00H, 'm', 00H, 'a', 00H, 't', 00H, 'r', 00H, 'i'
	DB	00H, 'x', 00H, '"', 00H, 00H, 00H
$SG4294938637 DB 'you are using an empty matrix', 00H
	ORG $+10
$SG4294938636 DB 'C', 00H, ':', 00H, '\', 00H, 'U', 00H, 's', 00H, 'e', 00H
	DB	'r', 00H, 's', 00H, '\', 00H, 'm', 00H, 'a', 00H, 'r', 00H, 'i'
	DB	00H, 'j', 00H, '\', 00H, 'O', 00H, 'n', 00H, 'e', 00H, 'D', 00H
	DB	'r', 00H, 'i', 00H, 'v', 00H, 'e', 00H, '\', 00H, 'D', 00H, 'o'
	DB	00H, 'c', 00H, 'u', 00H, 'm', 00H, 'e', 00H, 'n', 00H, 't', 00H
	DB	'e', 00H, 'n', 00H, '\', 00H, 'G', 00H, 'i', 00H, 't', 00H, 'H'
	DB	00H, 'u', 00H, 'b', 00H, '\', 00H, 'N', 00H, 'e', 00H, 'u', 00H
	DB	'r', 00H, 'a', 00H, 'l', 00H, '_', 00H, 'N', 00H, 'e', 00H, 't'
	DB	00H, 'w', 00H, 'o', 00H, 'r', 00H, 'k', 00H, '\', 00H, 'd', 00H
	DB	'e', 00H, 'p', 00H, 'e', 00H, 'n', 00H, 'd', 00H, 'e', 00H, 'n'
	DB	00H, 'c', 00H, 'i', 00H, 'e', 00H, 's', 00H, '\', 00H, 'E', 00H
	DB	'i', 00H, 'g', 00H, 'e', 00H, 'n', 00H, '\', 00H, 's', 00H, 'r'
	DB	00H, 'c', 00H, '\', 00H, 'C', 00H, 'o', 00H, 'r', 00H, 'e', 00H
	DB	'\', 00H, 'R', 00H, 'e', 00H, 'd', 00H, 'u', 00H, 'x', 00H, '.'
	DB	00H, 'h', 00H, 00H, 00H
	ORG $+6
$SG4294938635 DB 't', 00H, 'h', 00H, 'i', 00H, 's', 00H, '-', 00H, '>', 00H
	DB	'r', 00H, 'o', 00H, 'w', 00H, 's', 00H, '(', 00H, ')', 00H, '>'
	DB	00H, '0', 00H, ' ', 00H, '&', 00H, '&', 00H, ' ', 00H, 't', 00H
	DB	'h', 00H, 'i', 00H, 's', 00H, '-', 00H, '>', 00H, 'c', 00H, 'o'
	DB	00H, 'l', 00H, 's', 00H, '(', 00H, ')', 00H, '>', 00H, '0', 00H
	DB	' ', 00H, '&', 00H, '&', 00H, ' ', 00H, '"', 00H, 'y', 00H, 'o'
	DB	00H, 'u', 00H, ' ', 00H, 'a', 00H, 'r', 00H, 'e', 00H, ' ', 00H
	DB	'u', 00H, 's', 00H, 'i', 00H, 'n', 00H, 'g', 00H, ' ', 00H, 'a'
	DB	00H, 'n', 00H, ' ', 00H, 'e', 00H, 'm', 00H, 'p', 00H, 't', 00H
	DB	'y', 00H, ' ', 00H, 'm', 00H, 'a', 00H, 't', 00H, 'r', 00H, 'i'
	DB	00H, 'x', 00H, '"', 00H, 00H, 00H
$SG4294938624 DB 'you are using an empty matrix', 00H
	ORG $+10
$SG4294938623 DB 'C', 00H, ':', 00H, '\', 00H, 'U', 00H, 's', 00H, 'e', 00H
	DB	'r', 00H, 's', 00H, '\', 00H, 'm', 00H, 'a', 00H, 'r', 00H, 'i'
	DB	00H, 'j', 00H, '\', 00H, 'O', 00H, 'n', 00H, 'e', 00H, 'D', 00H
	DB	'r', 00H, 'i', 00H, 'v', 00H, 'e', 00H, '\', 00H, 'D', 00H, 'o'
	DB	00H, 'c', 00H, 'u', 00H, 'm', 00H, 'e', 00H, 'n', 00H, 't', 00H
	DB	'e', 00H, 'n', 00H, '\', 00H, 'G', 00H, 'i', 00H, 't', 00H, 'H'
	DB	00H, 'u', 00H, 'b', 00H, '\', 00H, 'N', 00H, 'e', 00H, 'u', 00H
	DB	'r', 00H, 'a', 00H, 'l', 00H, '_', 00H, 'N', 00H, 'e', 00H, 't'
	DB	00H, 'w', 00H, 'o', 00H, 'r', 00H, 'k', 00H, '\', 00H, 'd', 00H
	DB	'e', 00H, 'p', 00H, 'e', 00H, 'n', 00H, 'd', 00H, 'e', 00H, 'n'
	DB	00H, 'c', 00H, 'i', 00H, 'e', 00H, 's', 00H, '\', 00H, 'E', 00H
	DB	'i', 00H, 'g', 00H, 'e', 00H, 'n', 00H, '\', 00H, 's', 00H, 'r'
	DB	00H, 'c', 00H, '\', 00H, 'C', 00H, 'o', 00H, 'r', 00H, 'e', 00H
	DB	'\', 00H, 'R', 00H, 'e', 00H, 'd', 00H, 'u', 00H, 'x', 00H, '.'
	DB	00H, 'h', 00H, 00H, 00H
	ORG $+6
$SG4294938622 DB 't', 00H, 'h', 00H, 'i', 00H, 's', 00H, '-', 00H, '>', 00H
	DB	'r', 00H, 'o', 00H, 'w', 00H, 's', 00H, '(', 00H, ')', 00H, '>'
	DB	00H, '0', 00H, ' ', 00H, '&', 00H, '&', 00H, ' ', 00H, 't', 00H
	DB	'h', 00H, 'i', 00H, 's', 00H, '-', 00H, '>', 00H, 'c', 00H, 'o'
	DB	00H, 'l', 00H, 's', 00H, '(', 00H, ')', 00H, '>', 00H, '0', 00H
	DB	' ', 00H, '&', 00H, '&', 00H, ' ', 00H, '"', 00H, 'y', 00H, 'o'
	DB	00H, 'u', 00H, ' ', 00H, 'a', 00H, 'r', 00H, 'e', 00H, ' ', 00H
	DB	'u', 00H, 's', 00H, 'i', 00H, 'n', 00H, 'g', 00H, ' ', 00H, 'a'
	DB	00H, 'n', 00H, ' ', 00H, 'e', 00H, 'm', 00H, 'p', 00H, 't', 00H
	DB	'y', 00H, ' ', 00H, 'm', 00H, 'a', 00H, 't', 00H, 'r', 00H, 'i'
	DB	00H, 'x', 00H, '"', 00H, 00H, 00H
CONST	ENDS
PUBLIC	??$coeff@_J@?$evaluator@V?$CwiseNullaryOp@U?$scalar_constant_op@N@internal@Eigen@@V?$Matrix@N$0?0$00$0A@$0?0$00@3@@Eigen@@@internal@Eigen@@QEBAN_J@Z ; Eigen::internal::evaluator<Eigen::CwiseNullaryOp<Eigen::internal::scalar_constant_op<double>,Eigen::Matrix<double,-1,1,0,-1,1> > >::coeff<__int64>
PUBLIC	??$packet@$03U__m256d@@_J@?$evaluator@V?$CwiseNullaryOp@U?$scalar_constant_op@N@internal@Eigen@@V?$Matrix@N$0?0$00$0A@$0?0$00@3@@Eigen@@@internal@Eigen@@QEBA?AU__m256d@@_J@Z ; Eigen::internal::evaluator<Eigen::CwiseNullaryOp<Eigen::internal::scalar_constant_op<double>,Eigen::Matrix<double,-1,1,0,-1,1> > >::packet<4,__m256d,__int64>
PUBLIC	??$ploadt@U__m256d@@$03@internal@Eigen@@YA?AU__m256d@@PEBN@Z ; Eigen::internal::ploadt<__m256d,4>
PUBLIC	??$packetOp@U__m256d@@@?$scalar_constant_op@N@internal@Eigen@@QEBA?BU__m256d@@XZ ; Eigen::internal::scalar_constant_op<double>::packetOp<__m256d>
PUBLIC	?assignCoeff@?$generic_dense_assignment_kernel@U?$evaluator@V?$Matrix@N$0?0$00$0A@$0?0$00@Eigen@@@internal@Eigen@@U?$evaluator@V?$Map@V?$Matrix@N$0?0$00$0A@$0?0$00@Eigen@@$03V?$Stride@$0A@$0A@@2@@Eigen@@@23@U?$assign_op@NN@23@$0A@@internal@Eigen@@QEAAX_J@Z ; Eigen::internal::generic_dense_assignment_kernel<Eigen::internal::evaluator<Eigen::Matrix<double,-1,1,0,-1,1> >,Eigen::internal::evaluator<Eigen::Map<Eigen::Matrix<double,-1,1,0,-1,1>,4,Eigen::Stride<0,0> > >,Eigen::internal::assign_op<double,double>,0>::assignCoeff
PUBLIC	?assignCoeff@?$generic_dense_assignment_kernel@U?$evaluator@V?$Map@V?$Matrix@N$0?0$00$0A@$0?0$00@Eigen@@$03V?$Stride@$0A@$0A@@2@@Eigen@@@internal@Eigen@@U?$evaluator@V?$CwiseNullaryOp@U?$scalar_constant_op@N@internal@Eigen@@V?$Matrix@N$0?0$00$0A@$0?0$00@3@@Eigen@@@23@U?$assign_op@NN@23@$0A@@internal@Eigen@@QEAAX_J@Z ; Eigen::internal::generic_dense_assignment_kernel<Eigen::internal::evaluator<Eigen::Map<Eigen::Matrix<double,-1,1,0,-1,1>,4,Eigen::Stride<0,0> > >,Eigen::internal::evaluator<Eigen::CwiseNullaryOp<Eigen::internal::scalar_constant_op<double>,Eigen::Matrix<double,-1,1,0,-1,1> > >,Eigen::internal::assign_op<double,double>,0>::assignCoeff
PUBLIC	??$run@V?$generic_dense_assignment_kernel@U?$evaluator@V?$Matrix@N$0?0$00$0A@$0?0$00@Eigen@@@internal@Eigen@@U?$evaluator@V?$Map@V?$Matrix@N$0?0$00$0A@$0?0$00@Eigen@@$03V?$Stride@$0A@$0A@@2@@Eigen@@@23@U?$assign_op@NN@23@$0A@@internal@Eigen@@@?$unaligned_dense_assignment_loop@$0A@@internal@Eigen@@SAXAEAV?$generic_dense_assignment_kernel@U?$evaluator@V?$Matrix@N$0?0$00$0A@$0?0$00@Eigen@@@internal@Eigen@@U?$evaluator@V?$Map@V?$Matrix@N$0?0$00$0A@$0?0$00@Eigen@@$03V?$Stride@$0A@$0A@@2@@Eigen@@@23@U?$assign_op@NN@23@$0A@@12@_J1@Z ; Eigen::internal::unaligned_dense_assignment_loop<0>::run<Eigen::internal::generic_dense_assignment_kernel<Eigen::internal::evaluator<Eigen::Matrix<double,-1,1,0,-1,1> >,Eigen::internal::evaluator<Eigen::Map<Eigen::Matrix<double,-1,1,0,-1,1>,4,Eigen::Stride<0,0> > >,Eigen::internal::assign_op<double,double>,0> >
PUBLIC	??$assignPacket@$0CA@$03U__m256d@@@?$generic_dense_assignment_kernel@U?$evaluator@V?$Matrix@N$0?0$00$0A@$0?0$00@Eigen@@@internal@Eigen@@U?$evaluator@V?$Map@V?$Matrix@N$0?0$00$0A@$0?0$00@Eigen@@$03V?$Stride@$0A@$0A@@2@@Eigen@@@23@U?$assign_op@NN@23@$0A@@internal@Eigen@@QEAAX_J@Z ; Eigen::internal::generic_dense_assignment_kernel<Eigen::internal::evaluator<Eigen::Matrix<double,-1,1,0,-1,1> >,Eigen::internal::evaluator<Eigen::Map<Eigen::Matrix<double,-1,1,0,-1,1>,4,Eigen::Stride<0,0> > >,Eigen::internal::assign_op<double,double>,0>::assignPacket<32,4,__m256d>
PUBLIC	??$run@V?$generic_dense_assignment_kernel@U?$evaluator@V?$Matrix@N$0?0$00$0A@$0?0$00@Eigen@@@internal@Eigen@@U?$evaluator@V?$Map@V?$Matrix@N$0?0$00$0A@$0?0$00@Eigen@@$03V?$Stride@$0A@$0A@@2@@Eigen@@@23@U?$assign_op@NN@23@$0A@@internal@Eigen@@@?$unaligned_dense_assignment_loop@$00@internal@Eigen@@SAXAEAV?$generic_dense_assignment_kernel@U?$evaluator@V?$Matrix@N$0?0$00$0A@$0?0$00@Eigen@@@internal@Eigen@@U?$evaluator@V?$Map@V?$Matrix@N$0?0$00$0A@$0?0$00@Eigen@@$03V?$Stride@$0A@$0A@@2@@Eigen@@@23@U?$assign_op@NN@23@$0A@@12@_J1@Z ; Eigen::internal::unaligned_dense_assignment_loop<1>::run<Eigen::internal::generic_dense_assignment_kernel<Eigen::internal::evaluator<Eigen::Matrix<double,-1,1,0,-1,1> >,Eigen::internal::evaluator<Eigen::Map<Eigen::Matrix<double,-1,1,0,-1,1>,4,Eigen::Stride<0,0> > >,Eigen::internal::assign_op<double,double>,0> >
PUBLIC	??$assignPacket@$0CA@$03U__m256d@@@?$generic_dense_assignment_kernel@U?$evaluator@V?$Map@V?$Matrix@N$0?0$00$0A@$0?0$00@Eigen@@$03V?$Stride@$0A@$0A@@2@@Eigen@@@internal@Eigen@@U?$evaluator@V?$CwiseNullaryOp@U?$scalar_constant_op@N@internal@Eigen@@V?$Matrix@N$0?0$00$0A@$0?0$00@3@@Eigen@@@23@U?$assign_op@NN@23@$0A@@internal@Eigen@@QEAAX_J@Z ; Eigen::internal::generic_dense_assignment_kernel<Eigen::internal::evaluator<Eigen::Map<Eigen::Matrix<double,-1,1,0,-1,1>,4,Eigen::Stride<0,0> > >,Eigen::internal::evaluator<Eigen::CwiseNullaryOp<Eigen::internal::scalar_constant_op<double>,Eigen::Matrix<double,-1,1,0,-1,1> > >,Eigen::internal::assign_op<double,double>,0>::assignPacket<32,4,__m256d>
PUBLIC	??$run@V?$generic_dense_assignment_kernel@U?$evaluator@V?$Map@V?$Matrix@N$0?0$00$0A@$0?0$00@Eigen@@$03V?$Stride@$0A@$0A@@2@@Eigen@@@internal@Eigen@@U?$evaluator@V?$CwiseNullaryOp@U?$scalar_constant_op@N@internal@Eigen@@V?$Matrix@N$0?0$00$0A@$0?0$00@3@@Eigen@@@23@U?$assign_op@NN@23@$0A@@internal@Eigen@@@?$unaligned_dense_assignment_loop@$0A@@internal@Eigen@@SAXAEAV?$generic_dense_assignment_kernel@U?$evaluator@V?$Map@V?$Matrix@N$0?0$00$0A@$0?0$00@Eigen@@$03V?$Stride@$0A@$0A@@2@@Eigen@@@internal@Eigen@@U?$evaluator@V?$CwiseNullaryOp@U?$scalar_constant_op@N@internal@Eigen@@V?$Matrix@N$0?0$00$0A@$0?0$00@3@@Eigen@@@23@U?$assign_op@NN@23@$0A@@12@_J1@Z ; Eigen::internal::unaligned_dense_assignment_loop<0>::run<Eigen::internal::generic_dense_assignment_kernel<Eigen::internal::evaluator<Eigen::Map<Eigen::Matrix<double,-1,1,0,-1,1>,4,Eigen::Stride<0,0> > >,Eigen::internal::evaluator<Eigen::CwiseNullaryOp<Eigen::internal::scalar_constant_op<double>,Eigen::Matrix<double,-1,1,0,-1,1> > >,Eigen::internal::assign_op<double,double>,0> >
PUBLIC	??$resize_if_allowed@V?$Map@V?$Matrix@N$0?0$00$0A@$0?0$00@Eigen@@$03V?$Stride@$0A@$0A@@2@@Eigen@@V?$CwiseNullaryOp@U?$scalar_constant_op@N@internal@Eigen@@V?$Matrix@N$0?0$00$0A@$0?0$00@3@@2@NN@internal@Eigen@@YAXAEAV?$Map@V?$Matrix@N$0?0$00$0A@$0?0$00@Eigen@@$03V?$Stride@$0A@$0A@@2@@1@AEBV?$CwiseNullaryOp@U?$scalar_constant_op@N@internal@Eigen@@V?$Matrix@N$0?0$00$0A@$0?0$00@3@@1@AEBU?$assign_op@NN@01@@Z ; Eigen::internal::resize_if_allowed<Eigen::Map<Eigen::Matrix<double,-1,1,0,-1,1>,4,Eigen::Stride<0,0> >,Eigen::CwiseNullaryOp<Eigen::internal::scalar_constant_op<double>,Eigen::Matrix<double,-1,1,0,-1,1> >,double,double>
PUBLIC	??$resize_if_allowed@V?$Matrix@N$0?0$00$0A@$0?0$00@Eigen@@V?$Map@V?$Matrix@N$0?0$00$0A@$0?0$00@Eigen@@$03V?$Stride@$0A@$0A@@2@@2@NN@internal@Eigen@@YAXAEAV?$Matrix@N$0?0$00$0A@$0?0$00@1@AEBV?$Map@V?$Matrix@N$0?0$00$0A@$0?0$00@Eigen@@$03V?$Stride@$0A@$0A@@2@@1@AEBU?$assign_op@NN@01@@Z ; Eigen::internal::resize_if_allowed<Eigen::Matrix<double,-1,1,0,-1,1>,Eigen::Map<Eigen::Matrix<double,-1,1,0,-1,1>,4,Eigen::Stride<0,0> >,double,double>
PUBLIC	??$packet@$03U__m256d@@@?$evaluator@V?$PlainObjectBase@V?$Matrix@N$0?0$00$0A@$0?0$00@Eigen@@@Eigen@@@internal@Eigen@@QEBA?AU__m256d@@_J@Z ; Eigen::internal::evaluator<Eigen::PlainObjectBase<Eigen::Matrix<double,-1,1,0,-1,1> > >::packet<4,__m256d>
PUBLIC	??$packet@$03U__m256d@@@?$mapbase_evaluator@V?$Map@V?$Matrix@N$0?0$00$0A@$0?0$00@Eigen@@$03V?$Stride@$0A@$0A@@2@@Eigen@@V?$Matrix@N$0?0$00$0A@$0?0$00@2@@internal@Eigen@@QEBA?AU__m256d@@_J@Z ; Eigen::internal::mapbase_evaluator<Eigen::Map<Eigen::Matrix<double,-1,1,0,-1,1>,4,Eigen::Stride<0,0> >,Eigen::Matrix<double,-1,1,0,-1,1> >::packet<4,__m256d>
PUBLIC	??$packet@$03U__m256d@@_J@?$evaluator@V?$CwiseNullaryOp@U?$scalar_constant_op@N@internal@Eigen@@$$CBV?$Matrix@N$0?0$00$0A@$0?0$00@3@@Eigen@@@internal@Eigen@@QEBA?AU__m256d@@_J@Z ; Eigen::internal::evaluator<Eigen::CwiseNullaryOp<Eigen::internal::scalar_constant_op<double>,Eigen::Matrix<double,-1,1,0,-1,1> const > >::packet<4,__m256d,__int64>
PUBLIC	??$forward@AEAPEAN@std@@YAAEAPEANAEAPEAN@Z	; std::forward<double * &>
PUBLIC	??$forward@PEAN@std@@YA$$QEAPEANAEAPEAN@Z	; std::forward<double *>
PUBLIC	??$to_address@N@std@@YAPEANQEAN@Z		; std::to_address<double>
PUBLIC	??$packetOp@U__m256d@@_J@?$nullary_wrapper@NU?$scalar_constant_op@N@internal@Eigen@@$00$0A@$0A@@internal@Eigen@@QEBA?AU__m256d@@AEBU?$scalar_constant_op@N@12@_J1@Z ; Eigen::internal::nullary_wrapper<double,Eigen::internal::scalar_constant_op<double>,1,0,0>::packetOp<__m256d,__int64>
PUBLIC	?derived@?$EigenBase@V?$Transpose@$$CBV?$Block@$$CBV?$Matrix@N$0?0$0?0$0A@$0?0$0?0@Eigen@@$00$0?0$0A@@Eigen@@@Eigen@@@Eigen@@QEAAAEAV?$Transpose@$$CBV?$Block@$$CBV?$Matrix@N$0?0$0?0$0A@$0?0$0?0@Eigen@@$00$0?0$0A@@Eigen@@@2@XZ ; Eigen::EigenBase<Eigen::Transpose<Eigen::Block<Eigen::Matrix<double,-1,-1,0,-1,-1> const ,1,-1,0> const > >::derived
PUBLIC	?nestedExpression@?$Transpose@$$CBV?$Block@$$CBV?$Matrix@N$0?0$0?0$0A@$0?0$0?0@Eigen@@$00$0?0$0A@@Eigen@@@Eigen@@QEAAAEBV?$Block@$$CBV?$Matrix@N$0?0$0?0$0A@$0?0$0?0@Eigen@@$00$0?0$0A@@2@XZ ; Eigen::Transpose<Eigen::Block<Eigen::Matrix<double,-1,-1,0,-1,-1> const ,1,-1,0> const >::nestedExpression
PUBLIC	?data@?$TransposeImpl@$$CBV?$Block@$$CBV?$Matrix@N$0?0$0?0$0A@$0?0$0?0@Eigen@@$00$0?0$0A@@Eigen@@UDense@2@@Eigen@@QEAAPEBNXZ ; Eigen::TransposeImpl<Eigen::Block<Eigen::Matrix<double,-1,-1,0,-1,-1> const ,1,-1,0> const ,Eigen::Dense>::data
PUBLIC	?extract@?$blas_traits@V?$Map@V?$Matrix@N$0?0$00$0A@$0?0$00@Eigen@@$0A@V?$Stride@$0A@$0A@@2@@Eigen@@@internal@Eigen@@SAAEBV?$Map@V?$Matrix@N$0?0$00$0A@$0?0$00@Eigen@@$0A@V?$Stride@$0A@$0A@@2@@3@AEBV43@@Z ; Eigen::internal::blas_traits<Eigen::Map<Eigen::Matrix<double,-1,1,0,-1,1>,0,Eigen::Stride<0,0> > >::extract
PUBLIC	?size@?$generic_dense_assignment_kernel@U?$evaluator@V?$Matrix@N$0?0$00$0A@$0?0$00@Eigen@@@internal@Eigen@@U?$evaluator@V?$Map@V?$Matrix@N$0?0$00$0A@$0?0$00@Eigen@@$03V?$Stride@$0A@$0A@@2@@Eigen@@@23@U?$assign_op@NN@23@$0A@@internal@Eigen@@QEBA_JXZ ; Eigen::internal::generic_dense_assignment_kernel<Eigen::internal::evaluator<Eigen::Matrix<double,-1,1,0,-1,1> >,Eigen::internal::evaluator<Eigen::Map<Eigen::Matrix<double,-1,1,0,-1,1>,4,Eigen::Stride<0,0> > >,Eigen::internal::assign_op<double,double>,0>::size
PUBLIC	?dstDataPtr@?$generic_dense_assignment_kernel@U?$evaluator@V?$Matrix@N$0?0$00$0A@$0?0$00@Eigen@@@internal@Eigen@@U?$evaluator@V?$Map@V?$Matrix@N$0?0$00$0A@$0?0$00@Eigen@@$03V?$Stride@$0A@$0A@@2@@Eigen@@@23@U?$assign_op@NN@23@$0A@@internal@Eigen@@QEBAPEBNXZ ; Eigen::internal::generic_dense_assignment_kernel<Eigen::internal::evaluator<Eigen::Matrix<double,-1,1,0,-1,1> >,Eigen::internal::evaluator<Eigen::Map<Eigen::Matrix<double,-1,1,0,-1,1>,4,Eigen::Stride<0,0> > >,Eigen::internal::assign_op<double,double>,0>::dstDataPtr
PUBLIC	??0?$evaluator_base@V?$CwiseNullaryOp@U?$scalar_constant_op@N@internal@Eigen@@V?$Matrix@N$0?0$00$0A@$0?0$00@3@@Eigen@@@internal@Eigen@@QEAA@XZ ; Eigen::internal::evaluator_base<Eigen::CwiseNullaryOp<Eigen::internal::scalar_constant_op<double>,Eigen::Matrix<double,-1,1,0,-1,1> > >::evaluator_base<Eigen::CwiseNullaryOp<Eigen::internal::scalar_constant_op<double>,Eigen::Matrix<double,-1,1,0,-1,1> > >
PUBLIC	?size@?$generic_dense_assignment_kernel@U?$evaluator@V?$Map@V?$Matrix@N$0?0$00$0A@$0?0$00@Eigen@@$03V?$Stride@$0A@$0A@@2@@Eigen@@@internal@Eigen@@U?$evaluator@V?$CwiseNullaryOp@U?$scalar_constant_op@N@internal@Eigen@@V?$Matrix@N$0?0$00$0A@$0?0$00@3@@Eigen@@@23@U?$assign_op@NN@23@$0A@@internal@Eigen@@QEBA_JXZ ; Eigen::internal::generic_dense_assignment_kernel<Eigen::internal::evaluator<Eigen::Map<Eigen::Matrix<double,-1,1,0,-1,1>,4,Eigen::Stride<0,0> > >,Eigen::internal::evaluator<Eigen::CwiseNullaryOp<Eigen::internal::scalar_constant_op<double>,Eigen::Matrix<double,-1,1,0,-1,1> > >,Eigen::internal::assign_op<double,double>,0>::size
PUBLIC	?dstDataPtr@?$generic_dense_assignment_kernel@U?$evaluator@V?$Map@V?$Matrix@N$0?0$00$0A@$0?0$00@Eigen@@$03V?$Stride@$0A@$0A@@2@@Eigen@@@internal@Eigen@@U?$evaluator@V?$CwiseNullaryOp@U?$scalar_constant_op@N@internal@Eigen@@V?$Matrix@N$0?0$00$0A@$0?0$00@3@@Eigen@@@23@U?$assign_op@NN@23@$0A@@internal@Eigen@@QEBAPEBNXZ ; Eigen::internal::generic_dense_assignment_kernel<Eigen::internal::evaluator<Eigen::Map<Eigen::Matrix<double,-1,1,0,-1,1>,4,Eigen::Stride<0,0> > >,Eigen::internal::evaluator<Eigen::CwiseNullaryOp<Eigen::internal::scalar_constant_op<double>,Eigen::Matrix<double,-1,1,0,-1,1> > >,Eigen::internal::assign_op<double,double>,0>::dstDataPtr
PUBLIC	?rows@?$CwiseNullaryOp@U?$scalar_constant_op@N@internal@Eigen@@V?$Matrix@N$0?0$00$0A@$0?0$00@3@@Eigen@@QEBA_JXZ ; Eigen::CwiseNullaryOp<Eigen::internal::scalar_constant_op<double>,Eigen::Matrix<double,-1,1,0,-1,1> >::rows
PUBLIC	?cols@?$CwiseNullaryOp@U?$scalar_constant_op@N@internal@Eigen@@V?$Matrix@N$0?0$00$0A@$0?0$00@3@@Eigen@@QEBA_JXZ ; Eigen::CwiseNullaryOp<Eigen::internal::scalar_constant_op<double>,Eigen::Matrix<double,-1,1,0,-1,1> >::cols
PUBLIC	?resize@?$DenseBase@V?$Map@V?$Matrix@N$0?0$00$0A@$0?0$00@Eigen@@$0A@V?$Stride@$0A@$0A@@2@@Eigen@@@Eigen@@QEAAX_J0@Z ; Eigen::DenseBase<Eigen::Map<Eigen::Matrix<double,-1,1,0,-1,1>,0,Eigen::Stride<0,0> > >::resize
PUBLIC	?assignCoeff@?$generic_dense_assignment_kernel@U?$evaluator@V?$Map@V?$Matrix@N$0?0$00$0A@$0?0$00@Eigen@@$03V?$Stride@$0A@$0A@@2@@Eigen@@@internal@Eigen@@U?$evaluator@V?$Matrix@N$0?0$00$0A@$0?0$00@Eigen@@@23@U?$assign_op@NN@23@$0A@@internal@Eigen@@QEAAX_J@Z ; Eigen::internal::generic_dense_assignment_kernel<Eigen::internal::evaluator<Eigen::Map<Eigen::Matrix<double,-1,1,0,-1,1>,4,Eigen::Stride<0,0> > >,Eigen::internal::evaluator<Eigen::Matrix<double,-1,1,0,-1,1> >,Eigen::internal::assign_op<double,double>,0>::assignCoeff
PUBLIC	?run@?$extract_data_selector@V?$Map@V?$Matrix@N$0?0$00$0A@$0?0$00@Eigen@@$0A@V?$Stride@$0A@$0A@@2@@Eigen@@$00@internal@Eigen@@SAPEBNAEBV?$Map@V?$Matrix@N$0?0$00$0A@$0?0$00@Eigen@@$0A@V?$Stride@$0A@$0A@@2@@3@@Z ; Eigen::internal::extract_data_selector<Eigen::Map<Eigen::Matrix<double,-1,1,0,-1,1>,0,Eigen::Stride<0,0> >,1>::run
PUBLIC	?run@?$checkTransposeAliasing_impl@V?$Matrix@N$0?0$00$0A@$0?0$00@Eigen@@V?$Map@V?$Matrix@N$0?0$00$0A@$0?0$00@Eigen@@$03V?$Stride@$0A@$0A@@2@@2@$0A@@internal@Eigen@@SAXAEBV?$Matrix@N$0?0$00$0A@$0?0$00@3@AEBV?$Map@V?$Matrix@N$0?0$00$0A@$0?0$00@Eigen@@$03V?$Stride@$0A@$0A@@2@@3@@Z ; Eigen::internal::checkTransposeAliasing_impl<Eigen::Matrix<double,-1,1,0,-1,1>,Eigen::Map<Eigen::Matrix<double,-1,1,0,-1,1>,4,Eigen::Stride<0,0> >,0>::run
PUBLIC	??0?$generic_dense_assignment_kernel@U?$evaluator@V?$Matrix@N$0?0$00$0A@$0?0$00@Eigen@@@internal@Eigen@@U?$evaluator@V?$Map@V?$Matrix@N$0?0$00$0A@$0?0$00@Eigen@@$03V?$Stride@$0A@$0A@@2@@Eigen@@@23@U?$assign_op@NN@23@$0A@@internal@Eigen@@QEAA@AEAU?$evaluator@V?$Matrix@N$0?0$00$0A@$0?0$00@Eigen@@@12@AEBU?$evaluator@V?$Map@V?$Matrix@N$0?0$00$0A@$0?0$00@Eigen@@$03V?$Stride@$0A@$0A@@2@@Eigen@@@12@AEBU?$assign_op@NN@12@AEAV?$Matrix@N$0?0$00$0A@$0?0$00@2@@Z ; Eigen::internal::generic_dense_assignment_kernel<Eigen::internal::evaluator<Eigen::Matrix<double,-1,1,0,-1,1> >,Eigen::internal::evaluator<Eigen::Map<Eigen::Matrix<double,-1,1,0,-1,1>,4,Eigen::Stride<0,0> > >,Eigen::internal::assign_op<double,double>,0>::generic_dense_assignment_kernel<Eigen::internal::evaluator<Eigen::Matrix<double,-1,1,0,-1,1> >,Eigen::internal::evaluator<Eigen::Map<Eigen::Matrix<double,-1,1,0,-1,1>,4,Eigen::Stride<0,0> > >,Eigen::internal::assign_op<double,double>,0>
PUBLIC	?run@?$dense_assignment_loop@V?$generic_dense_assignment_kernel@U?$evaluator@V?$Matrix@N$0?0$00$0A@$0?0$00@Eigen@@@internal@Eigen@@U?$evaluator@V?$Map@V?$Matrix@N$0?0$00$0A@$0?0$00@Eigen@@$03V?$Stride@$0A@$0A@@2@@Eigen@@@23@U?$assign_op@NN@23@$0A@@internal@Eigen@@$02$0A@@internal@Eigen@@SAXAEAV?$generic_dense_assignment_kernel@U?$evaluator@V?$Matrix@N$0?0$00$0A@$0?0$00@Eigen@@@internal@Eigen@@U?$evaluator@V?$Map@V?$Matrix@N$0?0$00$0A@$0?0$00@Eigen@@$03V?$Stride@$0A@$0A@@2@@Eigen@@@23@U?$assign_op@NN@23@$0A@@23@@Z ; Eigen::internal::dense_assignment_loop<Eigen::internal::generic_dense_assignment_kernel<Eigen::internal::evaluator<Eigen::Matrix<double,-1,1,0,-1,1> >,Eigen::internal::evaluator<Eigen::Map<Eigen::Matrix<double,-1,1,0,-1,1>,4,Eigen::Stride<0,0> > >,Eigen::internal::assign_op<double,double>,0>,3,0>::run
PUBLIC	?run@?$checkTransposeAliasing_impl@V?$Map@V?$Matrix@N$0?0$00$0A@$0?0$00@Eigen@@$03V?$Stride@$0A@$0A@@2@@Eigen@@V?$CwiseNullaryOp@U?$scalar_constant_op@N@internal@Eigen@@V?$Matrix@N$0?0$00$0A@$0?0$00@3@@2@$0A@@internal@Eigen@@SAXAEBV?$Map@V?$Matrix@N$0?0$00$0A@$0?0$00@Eigen@@$03V?$Stride@$0A@$0A@@2@@3@AEBV?$CwiseNullaryOp@U?$scalar_constant_op@N@internal@Eigen@@V?$Matrix@N$0?0$00$0A@$0?0$00@3@@3@@Z ; Eigen::internal::checkTransposeAliasing_impl<Eigen::Map<Eigen::Matrix<double,-1,1,0,-1,1>,4,Eigen::Stride<0,0> >,Eigen::CwiseNullaryOp<Eigen::internal::scalar_constant_op<double>,Eigen::Matrix<double,-1,1,0,-1,1> >,0>::run
PUBLIC	??1?$evaluator_base@V?$CwiseNullaryOp@U?$scalar_constant_op@N@internal@Eigen@@V?$Matrix@N$0?0$00$0A@$0?0$00@3@@Eigen@@@internal@Eigen@@QEAA@XZ ; Eigen::internal::evaluator_base<Eigen::CwiseNullaryOp<Eigen::internal::scalar_constant_op<double>,Eigen::Matrix<double,-1,1,0,-1,1> > >::~evaluator_base<Eigen::CwiseNullaryOp<Eigen::internal::scalar_constant_op<double>,Eigen::Matrix<double,-1,1,0,-1,1> > >
PUBLIC	??0?$evaluator@V?$CwiseNullaryOp@U?$scalar_constant_op@N@internal@Eigen@@V?$Matrix@N$0?0$00$0A@$0?0$00@3@@Eigen@@@internal@Eigen@@QEAA@AEBV?$CwiseNullaryOp@U?$scalar_constant_op@N@internal@Eigen@@V?$Matrix@N$0?0$00$0A@$0?0$00@3@@2@@Z ; Eigen::internal::evaluator<Eigen::CwiseNullaryOp<Eigen::internal::scalar_constant_op<double>,Eigen::Matrix<double,-1,1,0,-1,1> > >::evaluator<Eigen::CwiseNullaryOp<Eigen::internal::scalar_constant_op<double>,Eigen::Matrix<double,-1,1,0,-1,1> > >
PUBLIC	??0?$generic_dense_assignment_kernel@U?$evaluator@V?$Map@V?$Matrix@N$0?0$00$0A@$0?0$00@Eigen@@$03V?$Stride@$0A@$0A@@2@@Eigen@@@internal@Eigen@@U?$evaluator@V?$CwiseNullaryOp@U?$scalar_constant_op@N@internal@Eigen@@V?$Matrix@N$0?0$00$0A@$0?0$00@3@@Eigen@@@23@U?$assign_op@NN@23@$0A@@internal@Eigen@@QEAA@AEAU?$evaluator@V?$Map@V?$Matrix@N$0?0$00$0A@$0?0$00@Eigen@@$03V?$Stride@$0A@$0A@@2@@Eigen@@@12@AEBU?$evaluator@V?$CwiseNullaryOp@U?$scalar_constant_op@N@internal@Eigen@@V?$Matrix@N$0?0$00$0A@$0?0$00@3@@Eigen@@@12@AEBU?$assign_op@NN@12@AEAV?$Map@V?$Matrix@N$0?0$00$0A@$0?0$00@Eigen@@$03V?$Stride@$0A@$0A@@2@@2@@Z ; Eigen::internal::generic_dense_assignment_kernel<Eigen::internal::evaluator<Eigen::Map<Eigen::Matrix<double,-1,1,0,-1,1>,4,Eigen::Stride<0,0> > >,Eigen::internal::evaluator<Eigen::CwiseNullaryOp<Eigen::internal::scalar_constant_op<double>,Eigen::Matrix<double,-1,1,0,-1,1> > >,Eigen::internal::assign_op<double,double>,0>::generic_dense_assignment_kernel<Eigen::internal::evaluator<Eigen::Map<Eigen::Matrix<double,-1,1,0,-1,1>,4,Eigen::Stride<0,0> > >,Eigen::internal::evaluator<Eigen::CwiseNullaryOp<Eigen::internal::scalar_constant_op<double>,Eigen::Matrix<double,-1,1,0,-1,1> > >,Eigen::internal::assign_op<double,double>,0>
PUBLIC	?run@?$dense_assignment_loop@V?$generic_dense_assignment_kernel@U?$evaluator@V?$Map@V?$Matrix@N$0?0$00$0A@$0?0$00@Eigen@@$03V?$Stride@$0A@$0A@@2@@Eigen@@@internal@Eigen@@U?$evaluator@V?$CwiseNullaryOp@U?$scalar_constant_op@N@internal@Eigen@@V?$Matrix@N$0?0$00$0A@$0?0$00@3@@Eigen@@@23@U?$assign_op@NN@23@$0A@@internal@Eigen@@$02$0A@@internal@Eigen@@SAXAEAV?$generic_dense_assignment_kernel@U?$evaluator@V?$Map@V?$Matrix@N$0?0$00$0A@$0?0$00@Eigen@@$03V?$Stride@$0A@$0A@@2@@Eigen@@@internal@Eigen@@U?$evaluator@V?$CwiseNullaryOp@U?$scalar_constant_op@N@internal@Eigen@@V?$Matrix@N$0?0$00$0A@$0?0$00@3@@Eigen@@@23@U?$assign_op@NN@23@$0A@@23@@Z ; Eigen::internal::dense_assignment_loop<Eigen::internal::generic_dense_assignment_kernel<Eigen::internal::evaluator<Eigen::Map<Eigen::Matrix<double,-1,1,0,-1,1>,4,Eigen::Stride<0,0> > >,Eigen::internal::evaluator<Eigen::CwiseNullaryOp<Eigen::internal::scalar_constant_op<double>,Eigen::Matrix<double,-1,1,0,-1,1> > >,Eigen::internal::assign_op<double,double>,0>,3,0>::run
PUBLIC	?run@?$extract_data_selector@V?$Transpose@$$CBV?$Block@$$CBV?$Matrix@N$0?0$0?0$0A@$0?0$0?0@Eigen@@$00$0?0$0A@@Eigen@@@Eigen@@$00@internal@Eigen@@SAPEBNAEBV?$Transpose@$$CBV?$Block@$$CBV?$Matrix@N$0?0$0?0$0A@$0?0$0?0@Eigen@@$00$0?0$0A@@Eigen@@@3@@Z ; Eigen::internal::extract_data_selector<Eigen::Transpose<Eigen::Block<Eigen::Matrix<double,-1,-1,0,-1,-1> const ,1,-1,0> const >,1>::run
PUBLIC	??1?$evaluator@V?$CwiseNullaryOp@U?$scalar_constant_op@N@internal@Eigen@@V?$Matrix@N$0?0$00$0A@$0?0$00@3@@Eigen@@@internal@Eigen@@QEAA@XZ ; Eigen::internal::evaluator<Eigen::CwiseNullaryOp<Eigen::internal::scalar_constant_op<double>,Eigen::Matrix<double,-1,1,0,-1,1> > >::~evaluator<Eigen::CwiseNullaryOp<Eigen::internal::scalar_constant_op<double>,Eigen::Matrix<double,-1,1,0,-1,1> > >
PUBLIC	??$extract_data@V?$Transpose@$$CBV?$Block@$$CBV?$Matrix@N$0?0$0?0$0A@$0?0$0?0@Eigen@@$00$0?0$0A@@Eigen@@@Eigen@@@internal@Eigen@@YAPEBNAEBV?$Transpose@$$CBV?$Block@$$CBV?$Matrix@N$0?0$0?0$0A@$0?0$0?0@Eigen@@$00$0?0$0A@@Eigen@@@1@@Z ; Eigen::internal::extract_data<Eigen::Transpose<Eigen::Block<Eigen::Matrix<double,-1,-1,0,-1,-1> const ,1,-1,0> const > >
PUBLIC	??$call_dense_assignment_loop@V?$Map@V?$Matrix@N$0?0$00$0A@$0?0$00@Eigen@@$03V?$Stride@$0A@$0A@@2@@Eigen@@V?$CwiseNullaryOp@U?$scalar_constant_op@N@internal@Eigen@@V?$Matrix@N$0?0$00$0A@$0?0$00@3@@2@U?$assign_op@NN@internal@2@@internal@Eigen@@YAXAEAV?$Map@V?$Matrix@N$0?0$00$0A@$0?0$00@Eigen@@$03V?$Stride@$0A@$0A@@2@@1@AEBV?$CwiseNullaryOp@U?$scalar_constant_op@N@internal@Eigen@@V?$Matrix@N$0?0$00$0A@$0?0$00@3@@1@AEBU?$assign_op@NN@01@@Z ; Eigen::internal::call_dense_assignment_loop<Eigen::Map<Eigen::Matrix<double,-1,1,0,-1,1>,4,Eigen::Stride<0,0> >,Eigen::CwiseNullaryOp<Eigen::internal::scalar_constant_op<double>,Eigen::Matrix<double,-1,1,0,-1,1> >,Eigen::internal::assign_op<double,double> >
PUBLIC	??$check_for_aliasing@V?$Map@V?$Matrix@N$0?0$00$0A@$0?0$00@Eigen@@$03V?$Stride@$0A@$0A@@2@@Eigen@@V?$CwiseNullaryOp@U?$scalar_constant_op@N@internal@Eigen@@V?$Matrix@N$0?0$00$0A@$0?0$00@3@@2@@internal@Eigen@@YAXAEBV?$Map@V?$Matrix@N$0?0$00$0A@$0?0$00@Eigen@@$03V?$Stride@$0A@$0A@@2@@1@AEBV?$CwiseNullaryOp@U?$scalar_constant_op@N@internal@Eigen@@V?$Matrix@N$0?0$00$0A@$0?0$00@3@@1@@Z ; Eigen::internal::check_for_aliasing<Eigen::Map<Eigen::Matrix<double,-1,1,0,-1,1>,4,Eigen::Stride<0,0> >,Eigen::CwiseNullaryOp<Eigen::internal::scalar_constant_op<double>,Eigen::Matrix<double,-1,1,0,-1,1> > >
PUBLIC	??$call_dense_assignment_loop@V?$Matrix@N$0?0$00$0A@$0?0$00@Eigen@@V?$Map@V?$Matrix@N$0?0$00$0A@$0?0$00@Eigen@@$03V?$Stride@$0A@$0A@@2@@2@U?$assign_op@NN@internal@2@@internal@Eigen@@YAXAEAV?$Matrix@N$0?0$00$0A@$0?0$00@1@AEBV?$Map@V?$Matrix@N$0?0$00$0A@$0?0$00@Eigen@@$03V?$Stride@$0A@$0A@@2@@1@AEBU?$assign_op@NN@01@@Z ; Eigen::internal::call_dense_assignment_loop<Eigen::Matrix<double,-1,1,0,-1,1>,Eigen::Map<Eigen::Matrix<double,-1,1,0,-1,1>,4,Eigen::Stride<0,0> >,Eigen::internal::assign_op<double,double> >
PUBLIC	??$check_for_aliasing@V?$Matrix@N$0?0$00$0A@$0?0$00@Eigen@@V?$Map@V?$Matrix@N$0?0$00$0A@$0?0$00@Eigen@@$03V?$Stride@$0A@$0A@@2@@2@@internal@Eigen@@YAXAEBV?$Matrix@N$0?0$00$0A@$0?0$00@1@AEBV?$Map@V?$Matrix@N$0?0$00$0A@$0?0$00@Eigen@@$03V?$Stride@$0A@$0A@@2@@1@@Z ; Eigen::internal::check_for_aliasing<Eigen::Matrix<double,-1,1,0,-1,1>,Eigen::Map<Eigen::Matrix<double,-1,1,0,-1,1>,4,Eigen::Stride<0,0> > >
PUBLIC	??$assignPacket@$0CA@$03U__m256d@@@?$generic_dense_assignment_kernel@U?$evaluator@V?$Map@V?$Matrix@N$0?0$00$0A@$0?0$00@Eigen@@$03V?$Stride@$0A@$0A@@2@@Eigen@@@internal@Eigen@@U?$evaluator@V?$Matrix@N$0?0$00$0A@$0?0$00@Eigen@@@23@U?$assign_op@NN@23@$0A@@internal@Eigen@@QEAAX_J@Z ; Eigen::internal::generic_dense_assignment_kernel<Eigen::internal::evaluator<Eigen::Map<Eigen::Matrix<double,-1,1,0,-1,1>,4,Eigen::Stride<0,0> > >,Eigen::internal::evaluator<Eigen::Matrix<double,-1,1,0,-1,1> >,Eigen::internal::assign_op<double,double>,0>::assignPacket<32,4,__m256d>
PUBLIC	??$run@V?$generic_dense_assignment_kernel@U?$evaluator@V?$Map@V?$Matrix@N$0?0$00$0A@$0?0$00@Eigen@@$03V?$Stride@$0A@$0A@@2@@Eigen@@@internal@Eigen@@U?$evaluator@V?$Matrix@N$0?0$00$0A@$0?0$00@Eigen@@@23@U?$assign_op@NN@23@$0A@@internal@Eigen@@@?$unaligned_dense_assignment_loop@$0A@@internal@Eigen@@SAXAEAV?$generic_dense_assignment_kernel@U?$evaluator@V?$Map@V?$Matrix@N$0?0$00$0A@$0?0$00@Eigen@@$03V?$Stride@$0A@$0A@@2@@Eigen@@@internal@Eigen@@U?$evaluator@V?$Matrix@N$0?0$00$0A@$0?0$00@Eigen@@@23@U?$assign_op@NN@23@$0A@@12@_J1@Z ; Eigen::internal::unaligned_dense_assignment_loop<0>::run<Eigen::internal::generic_dense_assignment_kernel<Eigen::internal::evaluator<Eigen::Map<Eigen::Matrix<double,-1,1,0,-1,1>,4,Eigen::Stride<0,0> > >,Eigen::internal::evaluator<Eigen::Matrix<double,-1,1,0,-1,1> >,Eigen::internal::assign_op<double,double>,0> >
PUBLIC	??$extract_data@V?$Map@V?$Matrix@N$0?0$00$0A@$0?0$00@Eigen@@$0A@V?$Stride@$0A@$0A@@2@@Eigen@@@internal@Eigen@@YAPEBNAEBV?$Map@V?$Matrix@N$0?0$00$0A@$0?0$00@Eigen@@$0A@V?$Stride@$0A@$0A@@2@@1@@Z ; Eigen::internal::extract_data<Eigen::Map<Eigen::Matrix<double,-1,1,0,-1,1>,0,Eigen::Stride<0,0> > >
PUBLIC	??$resize_if_allowed@V?$Matrix@N$0?0$00$0A@$0?0$00@Eigen@@V?$CwiseNullaryOp@U?$scalar_constant_op@N@internal@Eigen@@V?$Matrix@N$0?0$00$0A@$0?0$00@3@@2@NN@internal@Eigen@@YAXAEAV?$Matrix@N$0?0$00$0A@$0?0$00@1@AEBV?$CwiseNullaryOp@U?$scalar_constant_op@N@internal@Eigen@@V?$Matrix@N$0?0$00$0A@$0?0$00@3@@1@AEBU?$assign_op@NN@01@@Z ; Eigen::internal::resize_if_allowed<Eigen::Matrix<double,-1,1,0,-1,1>,Eigen::CwiseNullaryOp<Eigen::internal::scalar_constant_op<double>,Eigen::Matrix<double,-1,1,0,-1,1> >,double,double>
PUBLIC	??$resize_if_allowed@V?$Map@V?$Matrix@N$0?0$00$0A@$0?0$00@Eigen@@$0A@V?$Stride@$0A@$0A@@2@@Eigen@@V?$Transpose@$$CBV?$Block@$$CBV?$Matrix@N$0?0$0?0$0A@$0?0$0?0@Eigen@@$00$0?0$0A@@Eigen@@@2@NN@internal@Eigen@@YAXAEAV?$Map@V?$Matrix@N$0?0$00$0A@$0?0$00@Eigen@@$0A@V?$Stride@$0A@$0A@@2@@1@AEBV?$Transpose@$$CBV?$Block@$$CBV?$Matrix@N$0?0$0?0$0A@$0?0$0?0@Eigen@@$00$0?0$0A@@Eigen@@@1@AEBU?$assign_op@NN@01@@Z ; Eigen::internal::resize_if_allowed<Eigen::Map<Eigen::Matrix<double,-1,1,0,-1,1>,0,Eigen::Stride<0,0> >,Eigen::Transpose<Eigen::Block<Eigen::Matrix<double,-1,-1,0,-1,-1> const ,1,-1,0> const >,double,double>
PUBLIC	??$resize_if_allowed@V?$Map@V?$Matrix@N$0?0$00$0A@$0?0$00@Eigen@@$03V?$Stride@$0A@$0A@@2@@Eigen@@V?$Matrix@N$0?0$00$0A@$0?0$00@2@NN@internal@Eigen@@YAXAEAV?$Map@V?$Matrix@N$0?0$00$0A@$0?0$00@Eigen@@$03V?$Stride@$0A@$0A@@2@@1@AEBV?$Matrix@N$0?0$00$0A@$0?0$00@1@AEBU?$assign_op@NN@01@@Z ; Eigen::internal::resize_if_allowed<Eigen::Map<Eigen::Matrix<double,-1,1,0,-1,1>,4,Eigen::Stride<0,0> >,Eigen::Matrix<double,-1,1,0,-1,1>,double,double>
PUBLIC	??$packet@$03U__m256d@@@?$binary_evaluator@V?$CwiseBinaryOp@U?$scalar_product_op@NN@internal@Eigen@@$$CBV?$CwiseNullaryOp@U?$scalar_constant_op@N@internal@Eigen@@$$CBV?$Matrix@N$0?0$00$0A@$0?0$00@3@@3@$$CBV?$Map@V?$Matrix@N$0?0$00$0A@$0?0$00@Eigen@@$03V?$Stride@$0A@$0A@@2@@3@@Eigen@@UIndexBased@internal@2@U342@NN@internal@Eigen@@QEBA?AU__m256d@@_J@Z ; Eigen::internal::binary_evaluator<Eigen::CwiseBinaryOp<Eigen::internal::scalar_product_op<double,double>,Eigen::CwiseNullaryOp<Eigen::internal::scalar_constant_op<double>,Eigen::Matrix<double,-1,1,0,-1,1> const > const ,Eigen::Map<Eigen::Matrix<double,-1,1,0,-1,1>,4,Eigen::Stride<0,0> > const >,Eigen::internal::IndexBased,Eigen::internal::IndexBased,double,double>::packet<4,__m256d>
PUBLIC	??$packet@$0A@U__m256d@@@?$mapbase_evaluator@V?$Block@V?$Matrix@N$0?0$0?0$0A@$0?0$0?0@Eigen@@$0?0$00$00@Eigen@@V?$Matrix@N$0?0$00$0A@$0?0$00@2@@internal@Eigen@@QEBA?AU__m256d@@_J@Z ; Eigen::internal::mapbase_evaluator<Eigen::Block<Eigen::Matrix<double,-1,-1,0,-1,-1>,-1,1,1>,Eigen::Matrix<double,-1,1,0,-1,1> >::packet<0,__m256d>
PUBLIC	??$_Seek_wrapped@PEANAEAPEAN@std@@YAXAEAPEAN0@Z	; std::_Seek_wrapped<double *,double * &>
PUBLIC	??$_Seek_wrapped@PEANPEAN@std@@YAXAEAPEAN$$QEAPEAN@Z ; std::_Seek_wrapped<double *,double *>
PUBLIC	??$_To_address@PEAN@std@@YA?A_PAEBQEAN@Z	; std::_To_address<double *>
PUBLIC	??$_Fill_zero_memset@PEAN@std@@YAXPEAN_K@Z	; std::_Fill_zero_memset<double *>
PUBLIC	??$_Is_all_bits_zero@N@std@@YA_NAEBN@Z		; std::_Is_all_bits_zero<double>
PUBLIC	??$packetOp@U__m256d@@@?$scalar_product_op@NN@internal@Eigen@@QEBA?AU__m256d@@AEBU3@0@Z ; Eigen::internal::scalar_product_op<double,double>::packetOp<__m256d>
PUBLIC	??$packet@$0A@U__m256d@@@?$mapbase_evaluator@V?$Map@V?$Matrix@N$0?0$00$0A@$0?0$00@Eigen@@$03V?$Stride@$0A@$0A@@2@@Eigen@@V?$Matrix@N$0?0$00$0A@$0?0$00@2@@internal@Eigen@@QEBA?AU__m256d@@_J@Z ; Eigen::internal::mapbase_evaluator<Eigen::Map<Eigen::Matrix<double,-1,1,0,-1,1>,4,Eigen::Stride<0,0> >,Eigen::Matrix<double,-1,1,0,-1,1> >::packet<0,__m256d>
PUBLIC	??$packet@$0A@U__m256d@@_J@?$evaluator@V?$CwiseNullaryOp@U?$scalar_constant_op@N@internal@Eigen@@$$CBV?$Matrix@N$0?0$00$0A@$0?0$00@3@@Eigen@@@internal@Eigen@@QEBA?AU__m256d@@_J@Z ; Eigen::internal::evaluator<Eigen::CwiseNullaryOp<Eigen::internal::scalar_constant_op<double>,Eigen::Matrix<double,-1,1,0,-1,1> const > >::packet<0,__m256d,__int64>
PUBLIC	?derived@?$EigenBase@V?$Map@V?$Matrix@N$0?0$00$0A@$0?0$00@Eigen@@$0A@V?$Stride@$0A@$0A@@2@@Eigen@@@Eigen@@QEBAAEBV?$Map@V?$Matrix@N$0?0$00$0A@$0?0$00@Eigen@@$0A@V?$Stride@$0A@$0A@@2@@2@XZ ; Eigen::EigenBase<Eigen::Map<Eigen::Matrix<double,-1,1,0,-1,1>,0,Eigen::Stride<0,0> > >::derived
PUBLIC	?coeff@?$mapbase_evaluator@V?$Block@$$CBV?$Matrix@N$0?0$0?0$0A@$0?0$0?0@Eigen@@$00$0?0$0A@@Eigen@@V?$Matrix@N$00$0?0$00$00$0?0@2@@internal@Eigen@@QEBAN_J@Z ; Eigen::internal::mapbase_evaluator<Eigen::Block<Eigen::Matrix<double,-1,-1,0,-1,-1> const ,1,-1,0>,Eigen::Matrix<double,1,-1,1,1,-1> >::coeff
PUBLIC	?rows@?$EigenBase@V?$Map@V?$Matrix@N$0?0$00$0A@$0?0$00@Eigen@@$0A@V?$Stride@$0A@$0A@@2@@Eigen@@@Eigen@@QEBA_JXZ ; Eigen::EigenBase<Eigen::Map<Eigen::Matrix<double,-1,1,0,-1,1>,0,Eigen::Stride<0,0> > >::rows
PUBLIC	?cols@?$EigenBase@V?$Map@V?$Matrix@N$0?0$00$0A@$0?0$00@Eigen@@$0A@V?$Stride@$0A@$0A@@2@@Eigen@@@Eigen@@QEBA_JXZ ; Eigen::EigenBase<Eigen::Map<Eigen::Matrix<double,-1,1,0,-1,1>,0,Eigen::Stride<0,0> > >::cols
PUBLIC	?size@?$EigenBase@V?$Map@V?$Matrix@N$0?0$00$0A@$0?0$00@Eigen@@$0A@V?$Stride@$0A@$0A@@2@@Eigen@@@Eigen@@QEBA_JXZ ; Eigen::EigenBase<Eigen::Map<Eigen::Matrix<double,-1,1,0,-1,1>,0,Eigen::Stride<0,0> > >::size
PUBLIC	?data@?$MapBase@V?$Map@V?$Matrix@N$0?0$00$0A@$0?0$00@Eigen@@$0A@V?$Stride@$0A@$0A@@2@@Eigen@@$00@Eigen@@QEBAPEBNXZ ; Eigen::MapBase<Eigen::Map<Eigen::Matrix<double,-1,1,0,-1,1>,0,Eigen::Stride<0,0> >,1>::data
PUBLIC	?innerStride@?$Map@V?$Matrix@N$0?0$00$0A@$0?0$00@Eigen@@$0A@V?$Stride@$0A@$0A@@2@@Eigen@@QEBA_JXZ ; Eigen::Map<Eigen::Matrix<double,-1,1,0,-1,1>,0,Eigen::Stride<0,0> >::innerStride
PUBLIC	?outerStride@?$Map@V?$Matrix@N$0?0$00$0A@$0?0$00@Eigen@@$0A@V?$Stride@$0A@$0A@@2@@Eigen@@QEBA_JXZ ; Eigen::Map<Eigen::Matrix<double,-1,1,0,-1,1>,0,Eigen::Stride<0,0> >::outerStride
PUBLIC	?coeff@?$unary_evaluator@V?$Transpose@$$CBV?$Block@$$CBV?$Matrix@N$0?0$0?0$0A@$0?0$0?0@Eigen@@$00$0?0$0A@@Eigen@@@Eigen@@UIndexBased@internal@2@N@internal@Eigen@@QEBAN_J@Z ; Eigen::internal::unary_evaluator<Eigen::Transpose<Eigen::Block<Eigen::Matrix<double,-1,-1,0,-1,-1> const ,1,-1,0> const >,Eigen::internal::IndexBased,double>::coeff
PUBLIC	??0?$evaluator_base@V?$Map@V?$Matrix@N$0?0$00$0A@$0?0$00@Eigen@@$0A@V?$Stride@$0A@$0A@@2@@Eigen@@@internal@Eigen@@QEAA@XZ ; Eigen::internal::evaluator_base<Eigen::Map<Eigen::Matrix<double,-1,1,0,-1,1>,0,Eigen::Stride<0,0> > >::evaluator_base<Eigen::Map<Eigen::Matrix<double,-1,1,0,-1,1>,0,Eigen::Stride<0,0> > >
PUBLIC	?coeffRef@?$mapbase_evaluator@V?$Map@V?$Matrix@N$0?0$00$0A@$0?0$00@Eigen@@$0A@V?$Stride@$0A@$0A@@2@@Eigen@@V?$Matrix@N$0?0$00$0A@$0?0$00@2@@internal@Eigen@@QEAAAEAN_J@Z ; Eigen::internal::mapbase_evaluator<Eigen::Map<Eigen::Matrix<double,-1,1,0,-1,1>,0,Eigen::Stride<0,0> >,Eigen::Matrix<double,-1,1,0,-1,1> >::coeffRef
PUBLIC	?coeff@?$mapbase_evaluator@V?$Block@V?$Matrix@N$0?0$0?0$0A@$0?0$0?0@Eigen@@$0?0$00$00@Eigen@@V?$Matrix@N$0?0$00$0A@$0?0$00@2@@internal@Eigen@@QEBAAEBN_J@Z ; Eigen::internal::mapbase_evaluator<Eigen::Block<Eigen::Matrix<double,-1,-1,0,-1,-1>,-1,1,1>,Eigen::Matrix<double,-1,1,0,-1,1> >::coeff
PUBLIC	?size@?$generic_dense_assignment_kernel@U?$evaluator@V?$Map@V?$Matrix@N$0?0$00$0A@$0?0$00@Eigen@@$03V?$Stride@$0A@$0A@@2@@Eigen@@@internal@Eigen@@U?$evaluator@V?$Matrix@N$0?0$00$0A@$0?0$00@Eigen@@@23@U?$assign_op@NN@23@$0A@@internal@Eigen@@QEBA_JXZ ; Eigen::internal::generic_dense_assignment_kernel<Eigen::internal::evaluator<Eigen::Map<Eigen::Matrix<double,-1,1,0,-1,1>,4,Eigen::Stride<0,0> > >,Eigen::internal::evaluator<Eigen::Matrix<double,-1,1,0,-1,1> >,Eigen::internal::assign_op<double,double>,0>::size
PUBLIC	?dstDataPtr@?$generic_dense_assignment_kernel@U?$evaluator@V?$Map@V?$Matrix@N$0?0$00$0A@$0?0$00@Eigen@@$03V?$Stride@$0A@$0A@@2@@Eigen@@@internal@Eigen@@U?$evaluator@V?$Matrix@N$0?0$00$0A@$0?0$00@Eigen@@@23@U?$assign_op@NN@23@$0A@@internal@Eigen@@QEBAPEBNXZ ; Eigen::internal::generic_dense_assignment_kernel<Eigen::internal::evaluator<Eigen::Map<Eigen::Matrix<double,-1,1,0,-1,1>,4,Eigen::Stride<0,0> > >,Eigen::internal::evaluator<Eigen::Matrix<double,-1,1,0,-1,1> >,Eigen::internal::assign_op<double,double>,0>::dstDataPtr
PUBLIC	??0?$mapbase_evaluator@V?$Map@V?$Matrix@N$0?0$00$0A@$0?0$00@Eigen@@$0A@V?$Stride@$0A@$0A@@2@@Eigen@@V?$Matrix@N$0?0$00$0A@$0?0$00@2@@internal@Eigen@@QEAA@AEBV?$Map@V?$Matrix@N$0?0$00$0A@$0?0$00@Eigen@@$0A@V?$Stride@$0A@$0A@@2@@2@@Z ; Eigen::internal::mapbase_evaluator<Eigen::Map<Eigen::Matrix<double,-1,1,0,-1,1>,0,Eigen::Stride<0,0> >,Eigen::Matrix<double,-1,1,0,-1,1> >::mapbase_evaluator<Eigen::Map<Eigen::Matrix<double,-1,1,0,-1,1>,0,Eigen::Stride<0,0> >,Eigen::Matrix<double,-1,1,0,-1,1> >
PUBLIC	?size@?$generic_dense_assignment_kernel@U?$evaluator@V?$Map@V?$Matrix@N$0?0$00$0A@$0?0$00@Eigen@@$0A@V?$Stride@$0A@$0A@@2@@Eigen@@@internal@Eigen@@U?$evaluator@V?$Transpose@$$CBV?$Block@$$CBV?$Matrix@N$0?0$0?0$0A@$0?0$0?0@Eigen@@$00$0?0$0A@@Eigen@@@Eigen@@@23@U?$assign_op@NN@23@$0A@@internal@Eigen@@QEBA_JXZ ; Eigen::internal::generic_dense_assignment_kernel<Eigen::internal::evaluator<Eigen::Map<Eigen::Matrix<double,-1,1,0,-1,1>,0,Eigen::Stride<0,0> > >,Eigen::internal::evaluator<Eigen::Transpose<Eigen::Block<Eigen::Matrix<double,-1,-1,0,-1,-1> const ,1,-1,0> const > >,Eigen::internal::assign_op<double,double>,0>::size
PUBLIC	?assignCoeff@?$generic_dense_assignment_kernel@U?$evaluator@V?$Map@V?$Matrix@N$0?0$00$0A@$0?0$00@Eigen@@$0A@V?$Stride@$0A@$0A@@2@@Eigen@@@internal@Eigen@@U?$evaluator@V?$Transpose@$$CBV?$Block@$$CBV?$Matrix@N$0?0$0?0$0A@$0?0$0?0@Eigen@@$00$0?0$0A@@Eigen@@@Eigen@@@23@U?$assign_op@NN@23@$0A@@internal@Eigen@@QEAAX_J@Z ; Eigen::internal::generic_dense_assignment_kernel<Eigen::internal::evaluator<Eigen::Map<Eigen::Matrix<double,-1,1,0,-1,1>,0,Eigen::Stride<0,0> > >,Eigen::internal::evaluator<Eigen::Transpose<Eigen::Block<Eigen::Matrix<double,-1,-1,0,-1,-1> const ,1,-1,0> const > >,Eigen::internal::assign_op<double,double>,0>::assignCoeff
PUBLIC	?run@?$check_transpose_aliasing_run_time_selector@N$0A@V?$Transpose@$$CBV?$Block@$$CBV?$Matrix@N$0?0$0?0$0A@$0?0$0?0@Eigen@@$00$0?0$0A@@Eigen@@@Eigen@@@internal@Eigen@@SA_NPEBNAEBV?$Transpose@$$CBV?$Block@$$CBV?$Matrix@N$0?0$0?0$0A@$0?0$0?0@Eigen@@$00$0?0$0A@@Eigen@@@3@@Z ; Eigen::internal::check_transpose_aliasing_run_time_selector<double,0,Eigen::Transpose<Eigen::Block<Eigen::Matrix<double,-1,-1,0,-1,-1> const ,1,-1,0> const > >::run
PUBLIC	?resize@?$DenseBase@V?$Block@V?$Matrix@N$0?0$0?0$0A@$0?0$0?0@Eigen@@$0?0$00$00@Eigen@@@Eigen@@QEAAX_J0@Z ; Eigen::DenseBase<Eigen::Block<Eigen::Matrix<double,-1,-1,0,-1,-1>,-1,1,1> >::resize
PUBLIC	?rows@?$CwiseNullaryOp@U?$scalar_constant_op@N@internal@Eigen@@V?$Matrix@N$0?0$0?0$0A@$0?0$0?0@3@@Eigen@@QEBA_JXZ ; Eigen::CwiseNullaryOp<Eigen::internal::scalar_constant_op<double>,Eigen::Matrix<double,-1,-1,0,-1,-1> >::rows
PUBLIC	?cols@?$CwiseNullaryOp@U?$scalar_constant_op@N@internal@Eigen@@V?$Matrix@N$0?0$0?0$0A@$0?0$0?0@3@@Eigen@@QEBA_JXZ ; Eigen::CwiseNullaryOp<Eigen::internal::scalar_constant_op<double>,Eigen::Matrix<double,-1,-1,0,-1,-1> >::cols
PUBLIC	?functor@?$CwiseNullaryOp@U?$scalar_constant_op@N@internal@Eigen@@V?$Matrix@N$0?0$00$0A@$0?0$00@3@@Eigen@@QEBAAEBU?$scalar_constant_op@N@internal@2@XZ ; Eigen::CwiseNullaryOp<Eigen::internal::scalar_constant_op<double>,Eigen::Matrix<double,-1,1,0,-1,1> >::functor
PUBLIC	?resize@?$DenseBase@V?$Map@V?$Matrix@N$0?0$00$0A@$0?0$00@Eigen@@$03V?$Stride@$0A@$0A@@2@@Eigen@@@Eigen@@QEAAX_J0@Z ; Eigen::DenseBase<Eigen::Map<Eigen::Matrix<double,-1,1,0,-1,1>,4,Eigen::Stride<0,0> > >::resize
PUBLIC	?const_cast_derived@?$EigenBase@V?$Map@V?$Matrix@N$0?0$00$0A@$0?0$00@Eigen@@$0A@V?$Stride@$0A@$0A@@2@@Eigen@@@Eigen@@QEBAAEAV?$Map@V?$Matrix@N$0?0$00$0A@$0?0$00@Eigen@@$0A@V?$Stride@$0A@$0A@@2@@2@XZ ; Eigen::EigenBase<Eigen::Map<Eigen::Matrix<double,-1,1,0,-1,1>,0,Eigen::Stride<0,0> > >::const_cast_derived
PUBLIC	?rows@?$MapBase@V?$Map@V?$Matrix@N$0?0$00$0A@$0?0$00@Eigen@@$0A@V?$Stride@$0A@$0A@@2@@Eigen@@$0A@@Eigen@@QEBA_JXZ ; Eigen::MapBase<Eigen::Map<Eigen::Matrix<double,-1,1,0,-1,1>,0,Eigen::Stride<0,0> >,0>::rows
PUBLIC	?cols@?$MapBase@V?$Map@V?$Matrix@N$0?0$00$0A@$0?0$00@Eigen@@$0A@V?$Stride@$0A@$0A@@2@@Eigen@@$0A@@Eigen@@QEBA_JXZ ; Eigen::MapBase<Eigen::Map<Eigen::Matrix<double,-1,1,0,-1,1>,0,Eigen::Stride<0,0> >,0>::cols
PUBLIC	?coeffRef@?$mapbase_evaluator@V?$Map@V?$Matrix@N$0?0$00$0A@$0?0$00@Eigen@@$03V?$Stride@$0A@$0A@@2@@Eigen@@V?$Matrix@N$0?0$00$0A@$0?0$00@2@@internal@Eigen@@QEAAAEAN_J@Z ; Eigen::internal::mapbase_evaluator<Eigen::Map<Eigen::Matrix<double,-1,1,0,-1,1>,4,Eigen::Stride<0,0> >,Eigen::Matrix<double,-1,1,0,-1,1> >::coeffRef
PUBLIC	?assignCoeff@?$generic_dense_assignment_kernel@U?$evaluator@V?$Matrix@N$0?0$00$0A@$0?0$00@Eigen@@@internal@Eigen@@U?$evaluator@V?$CwiseBinaryOp@U?$scalar_product_op@NN@internal@Eigen@@$$CBV?$CwiseNullaryOp@U?$scalar_constant_op@N@internal@Eigen@@$$CBV?$Matrix@N$0?0$00$0A@$0?0$00@3@@3@$$CBV?$Map@V?$Matrix@N$0?0$00$0A@$0?0$00@Eigen@@$03V?$Stride@$0A@$0A@@2@@3@@Eigen@@@23@U?$add_assign_op@NN@23@$0A@@internal@Eigen@@QEAAX_J@Z ; Eigen::internal::generic_dense_assignment_kernel<Eigen::internal::evaluator<Eigen::Matrix<double,-1,1,0,-1,1> >,Eigen::internal::evaluator<Eigen::CwiseBinaryOp<Eigen::internal::scalar_product_op<double,double>,Eigen::CwiseNullaryOp<Eigen::internal::scalar_constant_op<double>,Eigen::Matrix<double,-1,1,0,-1,1> const > const ,Eigen::Map<Eigen::Matrix<double,-1,1,0,-1,1>,4,Eigen::Stride<0,0> > const > >,Eigen::internal::add_assign_op<double,double>,0>::assignCoeff
PUBLIC	?assignCoeff@?$generic_dense_assignment_kernel@U?$evaluator@V?$Block@V?$Matrix@N$0?0$0?0$0A@$0?0$0?0@Eigen@@$0?0$00$00@Eigen@@@internal@Eigen@@U?$evaluator@V?$Map@V?$Matrix@N$0?0$00$0A@$0?0$00@Eigen@@$03V?$Stride@$0A@$0A@@2@@Eigen@@@23@U?$assign_op@NN@23@$0A@@internal@Eigen@@QEAAX_J@Z ; Eigen::internal::generic_dense_assignment_kernel<Eigen::internal::evaluator<Eigen::Block<Eigen::Matrix<double,-1,-1,0,-1,-1>,-1,1,1> >,Eigen::internal::evaluator<Eigen::Map<Eigen::Matrix<double,-1,1,0,-1,1>,4,Eigen::Stride<0,0> > >,Eigen::internal::assign_op<double,double>,0>::assignCoeff
PUBLIC	?assignCoeff@?$generic_dense_assignment_kernel@U?$evaluator@V?$Map@V?$Matrix@N$0?0$00$0A@$0?0$00@Eigen@@$03V?$Stride@$0A@$0A@@2@@Eigen@@@internal@Eigen@@U?$evaluator@V?$Block@V?$Matrix@N$0?0$0?0$0A@$0?0$0?0@Eigen@@$0?0$00$00@Eigen@@@23@U?$assign_op@NN@23@$0A@@internal@Eigen@@QEAAX_J@Z ; Eigen::internal::generic_dense_assignment_kernel<Eigen::internal::evaluator<Eigen::Map<Eigen::Matrix<double,-1,1,0,-1,1>,4,Eigen::Stride<0,0> > >,Eigen::internal::evaluator<Eigen::Block<Eigen::Matrix<double,-1,-1,0,-1,-1>,-1,1,1> >,Eigen::internal::assign_op<double,double>,0>::assignCoeff
PUBLIC	?run@?$Assignment@V?$Map@V?$Matrix@N$0?0$00$0A@$0?0$00@Eigen@@$03V?$Stride@$0A@$0A@@2@@Eigen@@V?$CwiseNullaryOp@U?$scalar_constant_op@N@internal@Eigen@@V?$Matrix@N$0?0$00$0A@$0?0$00@3@@2@U?$assign_op@NN@internal@2@UDense2Dense@52@X@internal@Eigen@@SAXAEAV?$Map@V?$Matrix@N$0?0$00$0A@$0?0$00@Eigen@@$03V?$Stride@$0A@$0A@@2@@3@AEBV?$CwiseNullaryOp@U?$scalar_constant_op@N@internal@Eigen@@V?$Matrix@N$0?0$00$0A@$0?0$00@3@@3@AEBU?$assign_op@NN@23@@Z ; Eigen::internal::Assignment<Eigen::Map<Eigen::Matrix<double,-1,1,0,-1,1>,4,Eigen::Stride<0,0> >,Eigen::CwiseNullaryOp<Eigen::internal::scalar_constant_op<double>,Eigen::Matrix<double,-1,1,0,-1,1> >,Eigen::internal::assign_op<double,double>,Eigen::internal::Dense2Dense,void>::run
PUBLIC	?run@?$Assignment@V?$Matrix@N$0?0$00$0A@$0?0$00@Eigen@@V?$Map@V?$Matrix@N$0?0$00$0A@$0?0$00@Eigen@@$03V?$Stride@$0A@$0A@@2@@2@U?$assign_op@NN@internal@2@UDense2Dense@52@X@internal@Eigen@@SAXAEAV?$Matrix@N$0?0$00$0A@$0?0$00@3@AEBV?$Map@V?$Matrix@N$0?0$00$0A@$0?0$00@Eigen@@$03V?$Stride@$0A@$0A@@2@@3@AEBU?$assign_op@NN@23@@Z ; Eigen::internal::Assignment<Eigen::Matrix<double,-1,1,0,-1,1>,Eigen::Map<Eigen::Matrix<double,-1,1,0,-1,1>,4,Eigen::Stride<0,0> >,Eigen::internal::assign_op<double,double>,Eigen::internal::Dense2Dense,void>::run
PUBLIC	?run@?$checkTransposeAliasing_impl@V?$Map@V?$Matrix@N$0?0$00$0A@$0?0$00@Eigen@@$03V?$Stride@$0A@$0A@@2@@Eigen@@V?$Matrix@N$0?0$00$0A@$0?0$00@2@$0A@@internal@Eigen@@SAXAEBV?$Map@V?$Matrix@N$0?0$00$0A@$0?0$00@Eigen@@$03V?$Stride@$0A@$0A@@2@@3@AEBV?$Matrix@N$0?0$00$0A@$0?0$00@3@@Z ; Eigen::internal::checkTransposeAliasing_impl<Eigen::Map<Eigen::Matrix<double,-1,1,0,-1,1>,4,Eigen::Stride<0,0> >,Eigen::Matrix<double,-1,1,0,-1,1>,0>::run
PUBLIC	??0?$generic_dense_assignment_kernel@U?$evaluator@V?$Map@V?$Matrix@N$0?0$00$0A@$0?0$00@Eigen@@$03V?$Stride@$0A@$0A@@2@@Eigen@@@internal@Eigen@@U?$evaluator@V?$Matrix@N$0?0$00$0A@$0?0$00@Eigen@@@23@U?$assign_op@NN@23@$0A@@internal@Eigen@@QEAA@AEAU?$evaluator@V?$Map@V?$Matrix@N$0?0$00$0A@$0?0$00@Eigen@@$03V?$Stride@$0A@$0A@@2@@Eigen@@@12@AEBU?$evaluator@V?$Matrix@N$0?0$00$0A@$0?0$00@Eigen@@@12@AEBU?$assign_op@NN@12@AEAV?$Map@V?$Matrix@N$0?0$00$0A@$0?0$00@Eigen@@$03V?$Stride@$0A@$0A@@2@@2@@Z ; Eigen::internal::generic_dense_assignment_kernel<Eigen::internal::evaluator<Eigen::Map<Eigen::Matrix<double,-1,1,0,-1,1>,4,Eigen::Stride<0,0> > >,Eigen::internal::evaluator<Eigen::Matrix<double,-1,1,0,-1,1> >,Eigen::internal::assign_op<double,double>,0>::generic_dense_assignment_kernel<Eigen::internal::evaluator<Eigen::Map<Eigen::Matrix<double,-1,1,0,-1,1>,4,Eigen::Stride<0,0> > >,Eigen::internal::evaluator<Eigen::Matrix<double,-1,1,0,-1,1> >,Eigen::internal::assign_op<double,double>,0>
PUBLIC	?run@?$dense_assignment_loop@V?$generic_dense_assignment_kernel@U?$evaluator@V?$Map@V?$Matrix@N$0?0$00$0A@$0?0$00@Eigen@@$03V?$Stride@$0A@$0A@@2@@Eigen@@@internal@Eigen@@U?$evaluator@V?$Matrix@N$0?0$00$0A@$0?0$00@Eigen@@@23@U?$assign_op@NN@23@$0A@@internal@Eigen@@$02$0A@@internal@Eigen@@SAXAEAV?$generic_dense_assignment_kernel@U?$evaluator@V?$Map@V?$Matrix@N$0?0$00$0A@$0?0$00@Eigen@@$03V?$Stride@$0A@$0A@@2@@Eigen@@@internal@Eigen@@U?$evaluator@V?$Matrix@N$0?0$00$0A@$0?0$00@Eigen@@@23@U?$assign_op@NN@23@$0A@@23@@Z ; Eigen::internal::dense_assignment_loop<Eigen::internal::generic_dense_assignment_kernel<Eigen::internal::evaluator<Eigen::Map<Eigen::Matrix<double,-1,1,0,-1,1>,4,Eigen::Stride<0,0> > >,Eigen::internal::evaluator<Eigen::Matrix<double,-1,1,0,-1,1> >,Eigen::internal::assign_op<double,double>,0>,3,0>::run
PUBLIC	?run@?$checkTransposeAliasing_impl@V?$Map@V?$Matrix@N$0?0$00$0A@$0?0$00@Eigen@@$0A@V?$Stride@$0A@$0A@@2@@Eigen@@V?$Transpose@$$CBV?$Block@$$CBV?$Matrix@N$0?0$0?0$0A@$0?0$0?0@Eigen@@$00$0?0$0A@@Eigen@@@2@$00@internal@Eigen@@SAXAEBV?$Map@V?$Matrix@N$0?0$00$0A@$0?0$00@Eigen@@$0A@V?$Stride@$0A@$0A@@2@@3@AEBV?$Transpose@$$CBV?$Block@$$CBV?$Matrix@N$0?0$0?0$0A@$0?0$0?0@Eigen@@$00$0?0$0A@@Eigen@@@3@@Z ; Eigen::internal::checkTransposeAliasing_impl<Eigen::Map<Eigen::Matrix<double,-1,1,0,-1,1>,0,Eigen::Stride<0,0> >,Eigen::Transpose<Eigen::Block<Eigen::Matrix<double,-1,-1,0,-1,-1> const ,1,-1,0> const >,1>::run
PUBLIC	??1?$evaluator_base@V?$Map@V?$Matrix@N$0?0$00$0A@$0?0$00@Eigen@@$0A@V?$Stride@$0A@$0A@@2@@Eigen@@@internal@Eigen@@QEAA@XZ ; Eigen::internal::evaluator_base<Eigen::Map<Eigen::Matrix<double,-1,1,0,-1,1>,0,Eigen::Stride<0,0> > >::~evaluator_base<Eigen::Map<Eigen::Matrix<double,-1,1,0,-1,1>,0,Eigen::Stride<0,0> > >
PUBLIC	??0?$evaluator@V?$Map@V?$Matrix@N$0?0$00$0A@$0?0$00@Eigen@@$0A@V?$Stride@$0A@$0A@@2@@Eigen@@@internal@Eigen@@QEAA@AEBV?$Map@V?$Matrix@N$0?0$00$0A@$0?0$00@Eigen@@$0A@V?$Stride@$0A@$0A@@2@@2@@Z ; Eigen::internal::evaluator<Eigen::Map<Eigen::Matrix<double,-1,1,0,-1,1>,0,Eigen::Stride<0,0> > >::evaluator<Eigen::Map<Eigen::Matrix<double,-1,1,0,-1,1>,0,Eigen::Stride<0,0> > >
PUBLIC	??0?$generic_dense_assignment_kernel@U?$evaluator@V?$Map@V?$Matrix@N$0?0$00$0A@$0?0$00@Eigen@@$0A@V?$Stride@$0A@$0A@@2@@Eigen@@@internal@Eigen@@U?$evaluator@V?$Transpose@$$CBV?$Block@$$CBV?$Matrix@N$0?0$0?0$0A@$0?0$0?0@Eigen@@$00$0?0$0A@@Eigen@@@Eigen@@@23@U?$assign_op@NN@23@$0A@@internal@Eigen@@QEAA@AEAU?$evaluator@V?$Map@V?$Matrix@N$0?0$00$0A@$0?0$00@Eigen@@$0A@V?$Stride@$0A@$0A@@2@@Eigen@@@12@AEBU?$evaluator@V?$Transpose@$$CBV?$Block@$$CBV?$Matrix@N$0?0$0?0$0A@$0?0$0?0@Eigen@@$00$0?0$0A@@Eigen@@@Eigen@@@12@AEBU?$assign_op@NN@12@AEAV?$Map@V?$Matrix@N$0?0$00$0A@$0?0$00@Eigen@@$0A@V?$Stride@$0A@$0A@@2@@2@@Z ; Eigen::internal::generic_dense_assignment_kernel<Eigen::internal::evaluator<Eigen::Map<Eigen::Matrix<double,-1,1,0,-1,1>,0,Eigen::Stride<0,0> > >,Eigen::internal::evaluator<Eigen::Transpose<Eigen::Block<Eigen::Matrix<double,-1,-1,0,-1,-1> const ,1,-1,0> const > >,Eigen::internal::assign_op<double,double>,0>::generic_dense_assignment_kernel<Eigen::internal::evaluator<Eigen::Map<Eigen::Matrix<double,-1,1,0,-1,1>,0,Eigen::Stride<0,0> > >,Eigen::internal::evaluator<Eigen::Transpose<Eigen::Block<Eigen::Matrix<double,-1,-1,0,-1,-1> const ,1,-1,0> const > >,Eigen::internal::assign_op<double,double>,0>
PUBLIC	?run@?$dense_assignment_loop@V?$generic_dense_assignment_kernel@U?$evaluator@V?$Map@V?$Matrix@N$0?0$00$0A@$0?0$00@Eigen@@$0A@V?$Stride@$0A@$0A@@2@@Eigen@@@internal@Eigen@@U?$evaluator@V?$Transpose@$$CBV?$Block@$$CBV?$Matrix@N$0?0$0?0$0A@$0?0$0?0@Eigen@@$00$0?0$0A@@Eigen@@@Eigen@@@23@U?$assign_op@NN@23@$0A@@internal@Eigen@@$00$0A@@internal@Eigen@@SAXAEAV?$generic_dense_assignment_kernel@U?$evaluator@V?$Map@V?$Matrix@N$0?0$00$0A@$0?0$00@Eigen@@$0A@V?$Stride@$0A@$0A@@2@@Eigen@@@internal@Eigen@@U?$evaluator@V?$Transpose@$$CBV?$Block@$$CBV?$Matrix@N$0?0$0?0$0A@$0?0$0?0@Eigen@@$00$0?0$0A@@Eigen@@@Eigen@@@23@U?$assign_op@NN@23@$0A@@23@@Z ; Eigen::internal::dense_assignment_loop<Eigen::internal::generic_dense_assignment_kernel<Eigen::internal::evaluator<Eigen::Map<Eigen::Matrix<double,-1,1,0,-1,1>,0,Eigen::Stride<0,0> > >,Eigen::internal::evaluator<Eigen::Transpose<Eigen::Block<Eigen::Matrix<double,-1,-1,0,-1,-1> const ,1,-1,0> const > >,Eigen::internal::assign_op<double,double>,0>,1,0>::run
PUBLIC	?run@?$checkTransposeAliasing_impl@V?$Matrix@N$0?0$00$0A@$0?0$00@Eigen@@V?$CwiseNullaryOp@U?$scalar_constant_op@N@internal@Eigen@@V?$Matrix@N$0?0$00$0A@$0?0$00@3@@2@$0A@@internal@Eigen@@SAXAEBV?$Matrix@N$0?0$00$0A@$0?0$00@3@AEBV?$CwiseNullaryOp@U?$scalar_constant_op@N@internal@Eigen@@V?$Matrix@N$0?0$00$0A@$0?0$00@3@@3@@Z ; Eigen::internal::checkTransposeAliasing_impl<Eigen::Matrix<double,-1,1,0,-1,1>,Eigen::CwiseNullaryOp<Eigen::internal::scalar_constant_op<double>,Eigen::Matrix<double,-1,1,0,-1,1> >,0>::run
PUBLIC	??1?$mapbase_evaluator@V?$Map@V?$Matrix@N$0?0$00$0A@$0?0$00@Eigen@@$0A@V?$Stride@$0A@$0A@@2@@Eigen@@V?$Matrix@N$0?0$00$0A@$0?0$00@2@@internal@Eigen@@QEAA@XZ ; Eigen::internal::mapbase_evaluator<Eigen::Map<Eigen::Matrix<double,-1,1,0,-1,1>,0,Eigen::Stride<0,0> >,Eigen::Matrix<double,-1,1,0,-1,1> >::~mapbase_evaluator<Eigen::Map<Eigen::Matrix<double,-1,1,0,-1,1>,0,Eigen::Stride<0,0> >,Eigen::Matrix<double,-1,1,0,-1,1> >
PUBLIC	??1?$evaluator@V?$Map@V?$Matrix@N$0?0$00$0A@$0?0$00@Eigen@@$0A@V?$Stride@$0A@$0A@@2@@Eigen@@@internal@Eigen@@QEAA@XZ ; Eigen::internal::evaluator<Eigen::Map<Eigen::Matrix<double,-1,1,0,-1,1>,0,Eigen::Stride<0,0> > >::~evaluator<Eigen::Map<Eigen::Matrix<double,-1,1,0,-1,1>,0,Eigen::Stride<0,0> > >
PUBLIC	??$coeff@_J@?$evaluator@V?$CwiseNullaryOp@U?$scalar_constant_op@N@internal@Eigen@@$$CBV?$Matrix@N$0?0$00$0A@$0?0$00@3@@Eigen@@@internal@Eigen@@QEBAN_J@Z ; Eigen::internal::evaluator<Eigen::CwiseNullaryOp<Eigen::internal::scalar_constant_op<double>,Eigen::Matrix<double,-1,1,0,-1,1> const > >::coeff<__int64>
PUBLIC	??$call_dense_assignment_loop@V?$Matrix@N$0?0$00$0A@$0?0$00@Eigen@@@internal@Eigen@@YAXAEAV?$Matrix@N$0?0$00$0A@$0?0$00@1@AEBV?$CwiseNullaryOp@U?$scalar_constant_op@N@internal@Eigen@@V?$Matrix@N$0?0$00$0A@$0?0$00@3@@1@AEBU?$assign_op@NN@01@@Z ; Eigen::internal::call_dense_assignment_loop<Eigen::Matrix<double,-1,1,0,-1,1> >
PUBLIC	??$check_for_aliasing@V?$Matrix@N$0?0$00$0A@$0?0$00@Eigen@@V?$CwiseNullaryOp@U?$scalar_constant_op@N@internal@Eigen@@V?$Matrix@N$0?0$00$0A@$0?0$00@3@@2@@internal@Eigen@@YAXAEBV?$Matrix@N$0?0$00$0A@$0?0$00@1@AEBV?$CwiseNullaryOp@U?$scalar_constant_op@N@internal@Eigen@@V?$Matrix@N$0?0$00$0A@$0?0$00@3@@1@@Z ; Eigen::internal::check_for_aliasing<Eigen::Matrix<double,-1,1,0,-1,1>,Eigen::CwiseNullaryOp<Eigen::internal::scalar_constant_op<double>,Eigen::Matrix<double,-1,1,0,-1,1> > >
PUBLIC	??$call_dense_assignment_loop@V?$Map@V?$Matrix@N$0?0$00$0A@$0?0$00@Eigen@@$0A@V?$Stride@$0A@$0A@@2@@Eigen@@V?$Transpose@$$CBV?$Block@$$CBV?$Matrix@N$0?0$0?0$0A@$0?0$0?0@Eigen@@$00$0?0$0A@@Eigen@@@2@U?$assign_op@NN@internal@2@@internal@Eigen@@YAXAEAV?$Map@V?$Matrix@N$0?0$00$0A@$0?0$00@Eigen@@$0A@V?$Stride@$0A@$0A@@2@@1@AEBV?$Transpose@$$CBV?$Block@$$CBV?$Matrix@N$0?0$0?0$0A@$0?0$0?0@Eigen@@$00$0?0$0A@@Eigen@@@1@AEBU?$assign_op@NN@01@@Z ; Eigen::internal::call_dense_assignment_loop<Eigen::Map<Eigen::Matrix<double,-1,1,0,-1,1>,0,Eigen::Stride<0,0> >,Eigen::Transpose<Eigen::Block<Eigen::Matrix<double,-1,-1,0,-1,-1> const ,1,-1,0> const >,Eigen::internal::assign_op<double,double> >
PUBLIC	??$check_for_aliasing@V?$Map@V?$Matrix@N$0?0$00$0A@$0?0$00@Eigen@@$0A@V?$Stride@$0A@$0A@@2@@Eigen@@V?$Transpose@$$CBV?$Block@$$CBV?$Matrix@N$0?0$0?0$0A@$0?0$0?0@Eigen@@$00$0?0$0A@@Eigen@@@2@@internal@Eigen@@YAXAEBV?$Map@V?$Matrix@N$0?0$00$0A@$0?0$00@Eigen@@$0A@V?$Stride@$0A@$0A@@2@@1@AEBV?$Transpose@$$CBV?$Block@$$CBV?$Matrix@N$0?0$0?0$0A@$0?0$0?0@Eigen@@$00$0?0$0A@@Eigen@@@1@@Z ; Eigen::internal::check_for_aliasing<Eigen::Map<Eigen::Matrix<double,-1,1,0,-1,1>,0,Eigen::Stride<0,0> >,Eigen::Transpose<Eigen::Block<Eigen::Matrix<double,-1,-1,0,-1,-1> const ,1,-1,0> const > >
PUBLIC	??$call_dense_assignment_loop@V?$Map@V?$Matrix@N$0?0$00$0A@$0?0$00@Eigen@@$03V?$Stride@$0A@$0A@@2@@Eigen@@V?$Matrix@N$0?0$00$0A@$0?0$00@2@U?$assign_op@NN@internal@2@@internal@Eigen@@YAXAEAV?$Map@V?$Matrix@N$0?0$00$0A@$0?0$00@Eigen@@$03V?$Stride@$0A@$0A@@2@@1@AEBV?$Matrix@N$0?0$00$0A@$0?0$00@1@AEBU?$assign_op@NN@01@@Z ; Eigen::internal::call_dense_assignment_loop<Eigen::Map<Eigen::Matrix<double,-1,1,0,-1,1>,4,Eigen::Stride<0,0> >,Eigen::Matrix<double,-1,1,0,-1,1>,Eigen::internal::assign_op<double,double> >
PUBLIC	??$check_for_aliasing@V?$Map@V?$Matrix@N$0?0$00$0A@$0?0$00@Eigen@@$03V?$Stride@$0A@$0A@@2@@Eigen@@V?$Matrix@N$0?0$00$0A@$0?0$00@2@@internal@Eigen@@YAXAEBV?$Map@V?$Matrix@N$0?0$00$0A@$0?0$00@Eigen@@$03V?$Stride@$0A@$0A@@2@@1@AEBV?$Matrix@N$0?0$00$0A@$0?0$00@1@@Z ; Eigen::internal::check_for_aliasing<Eigen::Map<Eigen::Matrix<double,-1,1,0,-1,1>,4,Eigen::Stride<0,0> >,Eigen::Matrix<double,-1,1,0,-1,1> >
PUBLIC	??$run@V?$generic_dense_assignment_kernel@U?$evaluator@V?$Matrix@N$0?0$00$0A@$0?0$00@Eigen@@@internal@Eigen@@U?$evaluator@V?$CwiseBinaryOp@U?$scalar_product_op@NN@internal@Eigen@@$$CBV?$CwiseNullaryOp@U?$scalar_constant_op@N@internal@Eigen@@$$CBV?$Matrix@N$0?0$00$0A@$0?0$00@3@@3@$$CBV?$Map@V?$Matrix@N$0?0$00$0A@$0?0$00@Eigen@@$03V?$Stride@$0A@$0A@@2@@3@@Eigen@@@23@U?$add_assign_op@NN@23@$0A@@internal@Eigen@@@?$unaligned_dense_assignment_loop@$0A@@internal@Eigen@@SAXAEAV?$generic_dense_assignment_kernel@U?$evaluator@V?$Matrix@N$0?0$00$0A@$0?0$00@Eigen@@@internal@Eigen@@U?$evaluator@V?$CwiseBinaryOp@U?$scalar_product_op@NN@internal@Eigen@@$$CBV?$CwiseNullaryOp@U?$scalar_constant_op@N@internal@Eigen@@$$CBV?$Matrix@N$0?0$00$0A@$0?0$00@3@@3@$$CBV?$Map@V?$Matrix@N$0?0$00$0A@$0?0$00@Eigen@@$03V?$Stride@$0A@$0A@@2@@3@@Eigen@@@23@U?$add_assign_op@NN@23@$0A@@12@_J1@Z ; Eigen::internal::unaligned_dense_assignment_loop<0>::run<Eigen::internal::generic_dense_assignment_kernel<Eigen::internal::evaluator<Eigen::Matrix<double,-1,1,0,-1,1> >,Eigen::internal::evaluator<Eigen::CwiseBinaryOp<Eigen::internal::scalar_product_op<double,double>,Eigen::CwiseNullaryOp<Eigen::internal::scalar_constant_op<double>,Eigen::Matrix<double,-1,1,0,-1,1> const > const ,Eigen::Map<Eigen::Matrix<double,-1,1,0,-1,1>,4,Eigen::Stride<0,0> > const > >,Eigen::internal::add_assign_op<double,double>,0> >
PUBLIC	??$assignPacket@$0CA@$03U__m256d@@@?$generic_dense_assignment_kernel@U?$evaluator@V?$Matrix@N$0?0$00$0A@$0?0$00@Eigen@@@internal@Eigen@@U?$evaluator@V?$CwiseBinaryOp@U?$scalar_product_op@NN@internal@Eigen@@$$CBV?$CwiseNullaryOp@U?$scalar_constant_op@N@internal@Eigen@@$$CBV?$Matrix@N$0?0$00$0A@$0?0$00@3@@3@$$CBV?$Map@V?$Matrix@N$0?0$00$0A@$0?0$00@Eigen@@$03V?$Stride@$0A@$0A@@2@@3@@Eigen@@@23@U?$add_assign_op@NN@23@$0A@@internal@Eigen@@QEAAX_J@Z ; Eigen::internal::generic_dense_assignment_kernel<Eigen::internal::evaluator<Eigen::Matrix<double,-1,1,0,-1,1> >,Eigen::internal::evaluator<Eigen::CwiseBinaryOp<Eigen::internal::scalar_product_op<double,double>,Eigen::CwiseNullaryOp<Eigen::internal::scalar_constant_op<double>,Eigen::Matrix<double,-1,1,0,-1,1> const > const ,Eigen::Map<Eigen::Matrix<double,-1,1,0,-1,1>,4,Eigen::Stride<0,0> > const > >,Eigen::internal::add_assign_op<double,double>,0>::assignPacket<32,4,__m256d>
PUBLIC	??$run@V?$generic_dense_assignment_kernel@U?$evaluator@V?$Matrix@N$0?0$00$0A@$0?0$00@Eigen@@@internal@Eigen@@U?$evaluator@V?$CwiseBinaryOp@U?$scalar_product_op@NN@internal@Eigen@@$$CBV?$CwiseNullaryOp@U?$scalar_constant_op@N@internal@Eigen@@$$CBV?$Matrix@N$0?0$00$0A@$0?0$00@3@@3@$$CBV?$Map@V?$Matrix@N$0?0$00$0A@$0?0$00@Eigen@@$03V?$Stride@$0A@$0A@@2@@3@@Eigen@@@23@U?$add_assign_op@NN@23@$0A@@internal@Eigen@@@?$unaligned_dense_assignment_loop@$00@internal@Eigen@@SAXAEAV?$generic_dense_assignment_kernel@U?$evaluator@V?$Matrix@N$0?0$00$0A@$0?0$00@Eigen@@@internal@Eigen@@U?$evaluator@V?$CwiseBinaryOp@U?$scalar_product_op@NN@internal@Eigen@@$$CBV?$CwiseNullaryOp@U?$scalar_constant_op@N@internal@Eigen@@$$CBV?$Matrix@N$0?0$00$0A@$0?0$00@3@@3@$$CBV?$Map@V?$Matrix@N$0?0$00$0A@$0?0$00@Eigen@@$03V?$Stride@$0A@$0A@@2@@3@@Eigen@@@23@U?$add_assign_op@NN@23@$0A@@12@_J1@Z ; Eigen::internal::unaligned_dense_assignment_loop<1>::run<Eigen::internal::generic_dense_assignment_kernel<Eigen::internal::evaluator<Eigen::Matrix<double,-1,1,0,-1,1> >,Eigen::internal::evaluator<Eigen::CwiseBinaryOp<Eigen::internal::scalar_product_op<double,double>,Eigen::CwiseNullaryOp<Eigen::internal::scalar_constant_op<double>,Eigen::Matrix<double,-1,1,0,-1,1> const > const ,Eigen::Map<Eigen::Matrix<double,-1,1,0,-1,1>,4,Eigen::Stride<0,0> > const > >,Eigen::internal::add_assign_op<double,double>,0> >
PUBLIC	??$assignPacket@$0CA@$0A@U__m256d@@@?$generic_dense_assignment_kernel@U?$evaluator@V?$Block@V?$Matrix@N$0?0$0?0$0A@$0?0$0?0@Eigen@@$0?0$00$00@Eigen@@@internal@Eigen@@U?$evaluator@V?$Map@V?$Matrix@N$0?0$00$0A@$0?0$00@Eigen@@$03V?$Stride@$0A@$0A@@2@@Eigen@@@23@U?$assign_op@NN@23@$0A@@internal@Eigen@@QEAAX_J@Z ; Eigen::internal::generic_dense_assignment_kernel<Eigen::internal::evaluator<Eigen::Block<Eigen::Matrix<double,-1,-1,0,-1,-1>,-1,1,1> >,Eigen::internal::evaluator<Eigen::Map<Eigen::Matrix<double,-1,1,0,-1,1>,4,Eigen::Stride<0,0> > >,Eigen::internal::assign_op<double,double>,0>::assignPacket<32,0,__m256d>
PUBLIC	??$run@V?$generic_dense_assignment_kernel@U?$evaluator@V?$Block@V?$Matrix@N$0?0$0?0$0A@$0?0$0?0@Eigen@@$0?0$00$00@Eigen@@@internal@Eigen@@U?$evaluator@V?$Map@V?$Matrix@N$0?0$00$0A@$0?0$00@Eigen@@$03V?$Stride@$0A@$0A@@2@@Eigen@@@23@U?$assign_op@NN@23@$0A@@internal@Eigen@@@?$unaligned_dense_assignment_loop@$0A@@internal@Eigen@@SAXAEAV?$generic_dense_assignment_kernel@U?$evaluator@V?$Block@V?$Matrix@N$0?0$0?0$0A@$0?0$0?0@Eigen@@$0?0$00$00@Eigen@@@internal@Eigen@@U?$evaluator@V?$Map@V?$Matrix@N$0?0$00$0A@$0?0$00@Eigen@@$03V?$Stride@$0A@$0A@@2@@Eigen@@@23@U?$assign_op@NN@23@$0A@@12@_J1@Z ; Eigen::internal::unaligned_dense_assignment_loop<0>::run<Eigen::internal::generic_dense_assignment_kernel<Eigen::internal::evaluator<Eigen::Block<Eigen::Matrix<double,-1,-1,0,-1,-1>,-1,1,1> >,Eigen::internal::evaluator<Eigen::Map<Eigen::Matrix<double,-1,1,0,-1,1>,4,Eigen::Stride<0,0> > >,Eigen::internal::assign_op<double,double>,0> >
PUBLIC	??$assignPacket@$0CA@$0A@U__m256d@@@?$generic_dense_assignment_kernel@U?$evaluator@V?$Map@V?$Matrix@N$0?0$00$0A@$0?0$00@Eigen@@$03V?$Stride@$0A@$0A@@2@@Eigen@@@internal@Eigen@@U?$evaluator@V?$Block@V?$Matrix@N$0?0$0?0$0A@$0?0$0?0@Eigen@@$0?0$00$00@Eigen@@@23@U?$assign_op@NN@23@$0A@@internal@Eigen@@QEAAX_J@Z ; Eigen::internal::generic_dense_assignment_kernel<Eigen::internal::evaluator<Eigen::Map<Eigen::Matrix<double,-1,1,0,-1,1>,4,Eigen::Stride<0,0> > >,Eigen::internal::evaluator<Eigen::Block<Eigen::Matrix<double,-1,-1,0,-1,-1>,-1,1,1> >,Eigen::internal::assign_op<double,double>,0>::assignPacket<32,0,__m256d>
PUBLIC	??$run@V?$generic_dense_assignment_kernel@U?$evaluator@V?$Map@V?$Matrix@N$0?0$00$0A@$0?0$00@Eigen@@$03V?$Stride@$0A@$0A@@2@@Eigen@@@internal@Eigen@@U?$evaluator@V?$Block@V?$Matrix@N$0?0$0?0$0A@$0?0$0?0@Eigen@@$0?0$00$00@Eigen@@@23@U?$assign_op@NN@23@$0A@@internal@Eigen@@@?$unaligned_dense_assignment_loop@$0A@@internal@Eigen@@SAXAEAV?$generic_dense_assignment_kernel@U?$evaluator@V?$Map@V?$Matrix@N$0?0$00$0A@$0?0$00@Eigen@@$03V?$Stride@$0A@$0A@@2@@Eigen@@@internal@Eigen@@U?$evaluator@V?$Block@V?$Matrix@N$0?0$0?0$0A@$0?0$0?0@Eigen@@$0?0$00$00@Eigen@@@23@U?$assign_op@NN@23@$0A@@12@_J1@Z ; Eigen::internal::unaligned_dense_assignment_loop<0>::run<Eigen::internal::generic_dense_assignment_kernel<Eigen::internal::evaluator<Eigen::Map<Eigen::Matrix<double,-1,1,0,-1,1>,4,Eigen::Stride<0,0> > >,Eigen::internal::evaluator<Eigen::Block<Eigen::Matrix<double,-1,-1,0,-1,-1>,-1,1,1> >,Eigen::internal::assign_op<double,double>,0> >
PUBLIC	??$fill_n@PEAN_JN@std@@YAPEANPEAN_JAEBN@Z	; std::fill_n<double *,__int64,double>
PUBLIC	??$_Get_unwrapped_n@AEAPEAN_J@std@@YA?A_TAEAPEAN_J@Z ; std::_Get_unwrapped_n<double * &,__int64>
PUBLIC	??$resize_if_allowed@V?$Matrix@N$0?0$0?0$0A@$0?0$0?0@Eigen@@V?$CwiseNullaryOp@U?$scalar_constant_op@N@internal@Eigen@@V?$Matrix@N$0?0$0?0$0A@$0?0$0?0@3@@2@NN@internal@Eigen@@YAXAEAV?$Matrix@N$0?0$0?0$0A@$0?0$0?0@1@AEBV?$CwiseNullaryOp@U?$scalar_constant_op@N@internal@Eigen@@V?$Matrix@N$0?0$0?0$0A@$0?0$0?0@3@@1@AEBU?$assign_op@NN@01@@Z ; Eigen::internal::resize_if_allowed<Eigen::Matrix<double,-1,-1,0,-1,-1>,Eigen::CwiseNullaryOp<Eigen::internal::scalar_constant_op<double>,Eigen::Matrix<double,-1,-1,0,-1,-1> >,double,double>
PUBLIC	??$resize_if_allowed@V?$Map@V?$Matrix@N$0?0$00$0A@$0?0$00@Eigen@@$03V?$Stride@$0A@$0A@@2@@Eigen@@V?$Block@V?$Matrix@N$0?0$0?0$0A@$0?0$0?0@Eigen@@$0?0$00$00@2@NN@internal@Eigen@@YAXAEAV?$Map@V?$Matrix@N$0?0$00$0A@$0?0$00@Eigen@@$03V?$Stride@$0A@$0A@@2@@1@AEBV?$Block@V?$Matrix@N$0?0$0?0$0A@$0?0$0?0@Eigen@@$0?0$00$00@1@AEBU?$assign_op@NN@01@@Z ; Eigen::internal::resize_if_allowed<Eigen::Map<Eigen::Matrix<double,-1,1,0,-1,1>,4,Eigen::Stride<0,0> >,Eigen::Block<Eigen::Matrix<double,-1,-1,0,-1,-1>,-1,1,1>,double,double>
PUBLIC	??$resize_if_allowed@V?$Block@V?$Matrix@N$0?0$0?0$0A@$0?0$0?0@Eigen@@$0?0$00$00@Eigen@@V?$Map@V?$Matrix@N$0?0$00$0A@$0?0$00@Eigen@@$03V?$Stride@$0A@$0A@@2@@2@NN@internal@Eigen@@YAXAEAV?$Block@V?$Matrix@N$0?0$0?0$0A@$0?0$0?0@Eigen@@$0?0$00$00@1@AEBV?$Map@V?$Matrix@N$0?0$00$0A@$0?0$00@Eigen@@$03V?$Stride@$0A@$0A@@2@@1@AEBU?$assign_op@NN@01@@Z ; Eigen::internal::resize_if_allowed<Eigen::Block<Eigen::Matrix<double,-1,-1,0,-1,-1>,-1,1,1>,Eigen::Map<Eigen::Matrix<double,-1,1,0,-1,1>,4,Eigen::Stride<0,0> >,double,double>
PUBLIC	??$resize_if_allowed@V?$Matrix@N$0?0$00$0A@$0?0$00@Eigen@@V?$CwiseBinaryOp@U?$scalar_product_op@NN@internal@Eigen@@$$CBV?$CwiseNullaryOp@U?$scalar_constant_op@N@internal@Eigen@@$$CBV?$Matrix@N$0?0$00$0A@$0?0$00@3@@3@$$CBV?$Map@V?$Matrix@N$0?0$00$0A@$0?0$00@Eigen@@$03V?$Stride@$0A@$0A@@2@@3@@2@U?$add_assign_op@NN@internal@2@@internal@Eigen@@YAXAEAV?$Matrix@N$0?0$00$0A@$0?0$00@1@AEBV?$CwiseBinaryOp@U?$scalar_product_op@NN@internal@Eigen@@$$CBV?$CwiseNullaryOp@U?$scalar_constant_op@N@internal@Eigen@@$$CBV?$Matrix@N$0?0$00$0A@$0?0$00@3@@3@$$CBV?$Map@V?$Matrix@N$0?0$00$0A@$0?0$00@Eigen@@$03V?$Stride@$0A@$0A@@2@@3@@1@AEBU?$add_assign_op@NN@01@@Z ; Eigen::internal::resize_if_allowed<Eigen::Matrix<double,-1,1,0,-1,1>,Eigen::CwiseBinaryOp<Eigen::internal::scalar_product_op<double,double>,Eigen::CwiseNullaryOp<Eigen::internal::scalar_constant_op<double>,Eigen::Matrix<double,-1,1,0,-1,1> const > const ,Eigen::Map<Eigen::Matrix<double,-1,1,0,-1,1>,4,Eigen::Stride<0,0> > const >,Eigen::internal::add_assign_op<double,double> >
PUBLIC	??$assignPacket@$0CA@U__m256d@@@?$add_assign_op@NN@internal@Eigen@@QEBAXPEANAEBU__m256d@@@Z ; Eigen::internal::add_assign_op<double,double>::assignPacket<32,__m256d>
PUBLIC	??$packet@$0A@U__m256d@@@?$binary_evaluator@V?$CwiseBinaryOp@U?$scalar_product_op@NN@internal@Eigen@@$$CBV?$CwiseNullaryOp@U?$scalar_constant_op@N@internal@Eigen@@$$CBV?$Matrix@N$0?0$00$0A@$0?0$00@3@@3@$$CBV?$Map@V?$Matrix@N$0?0$00$0A@$0?0$00@Eigen@@$03V?$Stride@$0A@$0A@@2@@3@@Eigen@@UIndexBased@internal@2@U342@NN@internal@Eigen@@QEBA?AU__m256d@@_J@Z ; Eigen::internal::binary_evaluator<Eigen::CwiseBinaryOp<Eigen::internal::scalar_product_op<double,double>,Eigen::CwiseNullaryOp<Eigen::internal::scalar_constant_op<double>,Eigen::Matrix<double,-1,1,0,-1,1> const > const ,Eigen::Map<Eigen::Matrix<double,-1,1,0,-1,1>,4,Eigen::Stride<0,0> > const >,Eigen::internal::IndexBased,Eigen::internal::IndexBased,double,double>::packet<0,__m256d>
PUBLIC	??$call_assignment_no_alias@V?$Matrix@N$0?0$00$0A@$0?0$00@Eigen@@V?$Map@V?$Matrix@N$0?0$00$0A@$0?0$00@Eigen@@$03V?$Stride@$0A@$0A@@2@@2@U?$assign_op@NN@internal@2@@internal@Eigen@@YAXAEAV?$Matrix@N$0?0$00$0A@$0?0$00@1@AEBV?$Map@V?$Matrix@N$0?0$00$0A@$0?0$00@Eigen@@$03V?$Stride@$0A@$0A@@2@@1@AEBU?$assign_op@NN@01@@Z ; Eigen::internal::call_assignment_no_alias<Eigen::Matrix<double,-1,1,0,-1,1>,Eigen::Map<Eigen::Matrix<double,-1,1,0,-1,1>,4,Eigen::Stride<0,0> >,Eigen::internal::assign_op<double,double> >
PUBLIC	??$call_assignment_no_alias@V?$Map@V?$Matrix@N$0?0$00$0A@$0?0$00@Eigen@@$03V?$Stride@$0A@$0A@@2@@Eigen@@V?$CwiseNullaryOp@U?$scalar_constant_op@N@internal@Eigen@@V?$Matrix@N$0?0$00$0A@$0?0$00@3@@2@U?$assign_op@NN@internal@2@@internal@Eigen@@YAXAEAV?$Map@V?$Matrix@N$0?0$00$0A@$0?0$00@Eigen@@$03V?$Stride@$0A@$0A@@2@@1@AEBV?$CwiseNullaryOp@U?$scalar_constant_op@N@internal@Eigen@@V?$Matrix@N$0?0$00$0A@$0?0$00@3@@1@AEBU?$assign_op@NN@01@@Z ; Eigen::internal::call_assignment_no_alias<Eigen::Map<Eigen::Matrix<double,-1,1,0,-1,1>,4,Eigen::Stride<0,0> >,Eigen::CwiseNullaryOp<Eigen::internal::scalar_constant_op<double>,Eigen::Matrix<double,-1,1,0,-1,1> >,Eigen::internal::assign_op<double,double> >
PUBLIC	?data@?$MapBase@V?$Map@V?$Matrix@N$0?0$00$0A@$0?0$00@Eigen@@$03V?$Stride@$0A@$0A@@2@@Eigen@@$00@Eigen@@QEAAPEANXZ ; Eigen::MapBase<Eigen::Map<Eigen::Matrix<double,-1,1,0,-1,1>,4,Eigen::Stride<0,0> >,1>::data
PUBLIC	?coeff@?$mapbase_evaluator@V?$Map@V?$Matrix@N$0?0$00$0A@$0?0$00@Eigen@@$03V?$Stride@$0A@$0A@@2@@Eigen@@V?$Matrix@N$0?0$00$0A@$0?0$00@2@@internal@Eigen@@QEBAAEBN_J@Z ; Eigen::internal::mapbase_evaluator<Eigen::Map<Eigen::Matrix<double,-1,1,0,-1,1>,4,Eigen::Stride<0,0> >,Eigen::Matrix<double,-1,1,0,-1,1> >::coeff
PUBLIC	?func@Data@?$binary_evaluator@V?$CwiseBinaryOp@U?$scalar_product_op@NN@internal@Eigen@@$$CBV?$CwiseNullaryOp@U?$scalar_constant_op@N@internal@Eigen@@$$CBV?$Matrix@N$0?0$00$0A@$0?0$00@3@@3@$$CBV?$Map@V?$Matrix@N$0?0$00$0A@$0?0$00@Eigen@@$03V?$Stride@$0A@$0A@@2@@3@@Eigen@@UIndexBased@internal@2@U342@NN@internal@Eigen@@QEBAAEBU?$scalar_product_op@NN@34@XZ ; Eigen::internal::binary_evaluator<Eigen::CwiseBinaryOp<Eigen::internal::scalar_product_op<double,double>,Eigen::CwiseNullaryOp<Eigen::internal::scalar_constant_op<double>,Eigen::Matrix<double,-1,1,0,-1,1> const > const ,Eigen::Map<Eigen::Matrix<double,-1,1,0,-1,1>,4,Eigen::Stride<0,0> > const >,Eigen::internal::IndexBased,Eigen::internal::IndexBased,double,double>::Data::func
PUBLIC	?assignCoeff@?$add_assign_op@NN@internal@Eigen@@QEBAXAEANAEBN@Z ; Eigen::internal::add_assign_op<double,double>::assignCoeff
PUBLIC	?coeff@?$binary_evaluator@V?$CwiseBinaryOp@U?$scalar_product_op@NN@internal@Eigen@@$$CBV?$CwiseNullaryOp@U?$scalar_constant_op@N@internal@Eigen@@$$CBV?$Matrix@N$0?0$00$0A@$0?0$00@3@@3@$$CBV?$Map@V?$Matrix@N$0?0$00$0A@$0?0$00@Eigen@@$03V?$Stride@$0A@$0A@@2@@3@@Eigen@@UIndexBased@internal@2@U342@NN@internal@Eigen@@QEBAN_J@Z ; Eigen::internal::binary_evaluator<Eigen::CwiseBinaryOp<Eigen::internal::scalar_product_op<double,double>,Eigen::CwiseNullaryOp<Eigen::internal::scalar_constant_op<double>,Eigen::Matrix<double,-1,1,0,-1,1> const > const ,Eigen::Map<Eigen::Matrix<double,-1,1,0,-1,1>,4,Eigen::Stride<0,0> > const >,Eigen::internal::IndexBased,Eigen::internal::IndexBased,double,double>::coeff
PUBLIC	?size@?$generic_dense_assignment_kernel@U?$evaluator@V?$Matrix@N$0?0$00$0A@$0?0$00@Eigen@@@internal@Eigen@@U?$evaluator@V?$CwiseBinaryOp@U?$scalar_product_op@NN@internal@Eigen@@$$CBV?$CwiseNullaryOp@U?$scalar_constant_op@N@internal@Eigen@@$$CBV?$Matrix@N$0?0$00$0A@$0?0$00@3@@3@$$CBV?$Map@V?$Matrix@N$0?0$00$0A@$0?0$00@Eigen@@$03V?$Stride@$0A@$0A@@2@@3@@Eigen@@@23@U?$add_assign_op@NN@23@$0A@@internal@Eigen@@QEBA_JXZ ; Eigen::internal::generic_dense_assignment_kernel<Eigen::internal::evaluator<Eigen::Matrix<double,-1,1,0,-1,1> >,Eigen::internal::evaluator<Eigen::CwiseBinaryOp<Eigen::internal::scalar_product_op<double,double>,Eigen::CwiseNullaryOp<Eigen::internal::scalar_constant_op<double>,Eigen::Matrix<double,-1,1,0,-1,1> const > const ,Eigen::Map<Eigen::Matrix<double,-1,1,0,-1,1>,4,Eigen::Stride<0,0> > const > >,Eigen::internal::add_assign_op<double,double>,0>::size
PUBLIC	?dstDataPtr@?$generic_dense_assignment_kernel@U?$evaluator@V?$Matrix@N$0?0$00$0A@$0?0$00@Eigen@@@internal@Eigen@@U?$evaluator@V?$CwiseBinaryOp@U?$scalar_product_op@NN@internal@Eigen@@$$CBV?$CwiseNullaryOp@U?$scalar_constant_op@N@internal@Eigen@@$$CBV?$Matrix@N$0?0$00$0A@$0?0$00@3@@3@$$CBV?$Map@V?$Matrix@N$0?0$00$0A@$0?0$00@Eigen@@$03V?$Stride@$0A@$0A@@2@@3@@Eigen@@@23@U?$add_assign_op@NN@23@$0A@@internal@Eigen@@QEBAPEBNXZ ; Eigen::internal::generic_dense_assignment_kernel<Eigen::internal::evaluator<Eigen::Matrix<double,-1,1,0,-1,1> >,Eigen::internal::evaluator<Eigen::CwiseBinaryOp<Eigen::internal::scalar_product_op<double,double>,Eigen::CwiseNullaryOp<Eigen::internal::scalar_constant_op<double>,Eigen::Matrix<double,-1,1,0,-1,1> const > const ,Eigen::Map<Eigen::Matrix<double,-1,1,0,-1,1>,4,Eigen::Stride<0,0> > const > >,Eigen::internal::add_assign_op<double,double>,0>::dstDataPtr
PUBLIC	?size@?$generic_dense_assignment_kernel@U?$evaluator@V?$Block@V?$Matrix@N$0?0$0?0$0A@$0?0$0?0@Eigen@@$0?0$00$00@Eigen@@@internal@Eigen@@U?$evaluator@V?$Map@V?$Matrix@N$0?0$00$0A@$0?0$00@Eigen@@$03V?$Stride@$0A@$0A@@2@@Eigen@@@23@U?$assign_op@NN@23@$0A@@internal@Eigen@@QEBA_JXZ ; Eigen::internal::generic_dense_assignment_kernel<Eigen::internal::evaluator<Eigen::Block<Eigen::Matrix<double,-1,-1,0,-1,-1>,-1,1,1> >,Eigen::internal::evaluator<Eigen::Map<Eigen::Matrix<double,-1,1,0,-1,1>,4,Eigen::Stride<0,0> > >,Eigen::internal::assign_op<double,double>,0>::size
PUBLIC	?dstDataPtr@?$generic_dense_assignment_kernel@U?$evaluator@V?$Block@V?$Matrix@N$0?0$0?0$0A@$0?0$0?0@Eigen@@$0?0$00$00@Eigen@@@internal@Eigen@@U?$evaluator@V?$Map@V?$Matrix@N$0?0$00$0A@$0?0$00@Eigen@@$03V?$Stride@$0A@$0A@@2@@Eigen@@@23@U?$assign_op@NN@23@$0A@@internal@Eigen@@QEBAPEBNXZ ; Eigen::internal::generic_dense_assignment_kernel<Eigen::internal::evaluator<Eigen::Block<Eigen::Matrix<double,-1,-1,0,-1,-1>,-1,1,1> >,Eigen::internal::evaluator<Eigen::Map<Eigen::Matrix<double,-1,1,0,-1,1>,4,Eigen::Stride<0,0> > >,Eigen::internal::assign_op<double,double>,0>::dstDataPtr
PUBLIC	?size@?$generic_dense_assignment_kernel@U?$evaluator@V?$Map@V?$Matrix@N$0?0$00$0A@$0?0$00@Eigen@@$03V?$Stride@$0A@$0A@@2@@Eigen@@@internal@Eigen@@U?$evaluator@V?$Block@V?$Matrix@N$0?0$0?0$0A@$0?0$0?0@Eigen@@$0?0$00$00@Eigen@@@23@U?$assign_op@NN@23@$0A@@internal@Eigen@@QEBA_JXZ ; Eigen::internal::generic_dense_assignment_kernel<Eigen::internal::evaluator<Eigen::Map<Eigen::Matrix<double,-1,1,0,-1,1>,4,Eigen::Stride<0,0> > >,Eigen::internal::evaluator<Eigen::Block<Eigen::Matrix<double,-1,-1,0,-1,-1>,-1,1,1> >,Eigen::internal::assign_op<double,double>,0>::size
PUBLIC	?dstDataPtr@?$generic_dense_assignment_kernel@U?$evaluator@V?$Map@V?$Matrix@N$0?0$00$0A@$0?0$00@Eigen@@$03V?$Stride@$0A@$0A@@2@@Eigen@@@internal@Eigen@@U?$evaluator@V?$Block@V?$Matrix@N$0?0$0?0$0A@$0?0$0?0@Eigen@@$0?0$00$00@Eigen@@@23@U?$assign_op@NN@23@$0A@@internal@Eigen@@QEBAPEBNXZ ; Eigen::internal::generic_dense_assignment_kernel<Eigen::internal::evaluator<Eigen::Map<Eigen::Matrix<double,-1,1,0,-1,1>,4,Eigen::Stride<0,0> > >,Eigen::internal::evaluator<Eigen::Block<Eigen::Matrix<double,-1,-1,0,-1,-1>,-1,1,1> >,Eigen::internal::assign_op<double,double>,0>::dstDataPtr
PUBLIC	?functor@?$CwiseNullaryOp@U?$scalar_constant_op@N@internal@Eigen@@V?$Matrix@N$0?0$0?0$0A@$0?0$0?0@3@@Eigen@@QEBAAEBU?$scalar_constant_op@N@internal@2@XZ ; Eigen::CwiseNullaryOp<Eigen::internal::scalar_constant_op<double>,Eigen::Matrix<double,-1,-1,0,-1,-1> >::functor
PUBLIC	?const_cast_derived@?$EigenBase@V?$Map@V?$Matrix@N$0?0$00$0A@$0?0$00@Eigen@@$03V?$Stride@$0A@$0A@@2@@Eigen@@@Eigen@@QEBAAEAV?$Map@V?$Matrix@N$0?0$00$0A@$0?0$00@Eigen@@$03V?$Stride@$0A@$0A@@2@@2@XZ ; Eigen::EigenBase<Eigen::Map<Eigen::Matrix<double,-1,1,0,-1,1>,4,Eigen::Stride<0,0> > >::const_cast_derived
PUBLIC	?rows@?$CwiseBinaryOp@U?$scalar_product_op@NN@internal@Eigen@@$$CBV?$CwiseNullaryOp@U?$scalar_constant_op@N@internal@Eigen@@$$CBV?$Matrix@N$0?0$00$0A@$0?0$00@3@@3@$$CBV?$Map@V?$Matrix@N$0?0$00$0A@$0?0$00@Eigen@@$03V?$Stride@$0A@$0A@@2@@3@@Eigen@@QEBA_JXZ ; Eigen::CwiseBinaryOp<Eigen::internal::scalar_product_op<double,double>,Eigen::CwiseNullaryOp<Eigen::internal::scalar_constant_op<double>,Eigen::Matrix<double,-1,1,0,-1,1> const > const ,Eigen::Map<Eigen::Matrix<double,-1,1,0,-1,1>,4,Eigen::Stride<0,0> > const >::rows
PUBLIC	?cols@?$CwiseBinaryOp@U?$scalar_product_op@NN@internal@Eigen@@$$CBV?$CwiseNullaryOp@U?$scalar_constant_op@N@internal@Eigen@@$$CBV?$Matrix@N$0?0$00$0A@$0?0$00@3@@3@$$CBV?$Map@V?$Matrix@N$0?0$00$0A@$0?0$00@Eigen@@$03V?$Stride@$0A@$0A@@2@@3@@Eigen@@QEBA_JXZ ; Eigen::CwiseBinaryOp<Eigen::internal::scalar_product_op<double,double>,Eigen::CwiseNullaryOp<Eigen::internal::scalar_constant_op<double>,Eigen::Matrix<double,-1,1,0,-1,1> const > const ,Eigen::Map<Eigen::Matrix<double,-1,1,0,-1,1>,4,Eigen::Stride<0,0> > const >::cols
PUBLIC	?coeffRef@?$mapbase_evaluator@V?$Block@V?$Matrix@N$0?0$0?0$0A@$0?0$0?0@Eigen@@$0?0$00$00@Eigen@@V?$Matrix@N$0?0$00$0A@$0?0$00@2@@internal@Eigen@@QEAAAEAN_J@Z ; Eigen::internal::mapbase_evaluator<Eigen::Block<Eigen::Matrix<double,-1,-1,0,-1,-1>,-1,1,1>,Eigen::Matrix<double,-1,1,0,-1,1> >::coeffRef
PUBLIC	?assignCoeff@?$generic_dense_assignment_kernel@U?$evaluator@V?$Block@V?$Matrix@N$0?0$0?0$0A@$0?0$0?0@Eigen@@$0?0$00$00@Eigen@@@internal@Eigen@@U?$evaluator@V?$CwiseBinaryOp@U?$scalar_product_op@NN@internal@Eigen@@$$CBV?$CwiseNullaryOp@U?$scalar_constant_op@N@internal@Eigen@@$$CBV?$Matrix@N$0?0$00$0A@$0?0$00@3@@3@$$CBV?$Map@V?$Matrix@N$0?0$00$0A@$0?0$00@Eigen@@$03V?$Stride@$0A@$0A@@2@@3@@Eigen@@@23@U?$add_assign_op@NN@23@$0A@@internal@Eigen@@QEAAX_J@Z ; Eigen::internal::generic_dense_assignment_kernel<Eigen::internal::evaluator<Eigen::Block<Eigen::Matrix<double,-1,-1,0,-1,-1>,-1,1,1> >,Eigen::internal::evaluator<Eigen::CwiseBinaryOp<Eigen::internal::scalar_product_op<double,double>,Eigen::CwiseNullaryOp<Eigen::internal::scalar_constant_op<double>,Eigen::Matrix<double,-1,1,0,-1,1> const > const ,Eigen::Map<Eigen::Matrix<double,-1,1,0,-1,1>,4,Eigen::Stride<0,0> > const > >,Eigen::internal::add_assign_op<double,double>,0>::assignCoeff
PUBLIC	?run@?$Assignment@V?$Matrix@N$0?0$00$0A@$0?0$00@Eigen@@V?$CwiseNullaryOp@U?$scalar_constant_op@N@internal@Eigen@@V?$Matrix@N$0?0$00$0A@$0?0$00@3@@2@U?$assign_op@NN@internal@2@UDense2Dense@52@X@internal@Eigen@@SAXAEAV?$Matrix@N$0?0$00$0A@$0?0$00@3@AEBV?$CwiseNullaryOp@U?$scalar_constant_op@N@internal@Eigen@@V?$Matrix@N$0?0$00$0A@$0?0$00@3@@3@AEBU?$assign_op@NN@23@@Z ; Eigen::internal::Assignment<Eigen::Matrix<double,-1,1,0,-1,1>,Eigen::CwiseNullaryOp<Eigen::internal::scalar_constant_op<double>,Eigen::Matrix<double,-1,1,0,-1,1> >,Eigen::internal::assign_op<double,double>,Eigen::internal::Dense2Dense,void>::run
PUBLIC	?run@?$Assignment@V?$Map@V?$Matrix@N$0?0$00$0A@$0?0$00@Eigen@@$0A@V?$Stride@$0A@$0A@@2@@Eigen@@V?$Transpose@$$CBV?$Block@$$CBV?$Matrix@N$0?0$0?0$0A@$0?0$0?0@Eigen@@$00$0?0$0A@@Eigen@@@2@U?$assign_op@NN@internal@2@UDense2Dense@52@X@internal@Eigen@@SAXAEAV?$Map@V?$Matrix@N$0?0$00$0A@$0?0$00@Eigen@@$0A@V?$Stride@$0A@$0A@@2@@3@AEBV?$Transpose@$$CBV?$Block@$$CBV?$Matrix@N$0?0$0?0$0A@$0?0$0?0@Eigen@@$00$0?0$0A@@Eigen@@@3@AEBU?$assign_op@NN@23@@Z ; Eigen::internal::Assignment<Eigen::Map<Eigen::Matrix<double,-1,1,0,-1,1>,0,Eigen::Stride<0,0> >,Eigen::Transpose<Eigen::Block<Eigen::Matrix<double,-1,-1,0,-1,-1> const ,1,-1,0> const >,Eigen::internal::assign_op<double,double>,Eigen::internal::Dense2Dense,void>::run
PUBLIC	?run@?$Assignment@V?$Map@V?$Matrix@N$0?0$00$0A@$0?0$00@Eigen@@$03V?$Stride@$0A@$0A@@2@@Eigen@@V?$Matrix@N$0?0$00$0A@$0?0$00@2@U?$assign_op@NN@internal@2@UDense2Dense@52@X@internal@Eigen@@SAXAEAV?$Map@V?$Matrix@N$0?0$00$0A@$0?0$00@Eigen@@$03V?$Stride@$0A@$0A@@2@@3@AEBV?$Matrix@N$0?0$00$0A@$0?0$00@3@AEBU?$assign_op@NN@23@@Z ; Eigen::internal::Assignment<Eigen::Map<Eigen::Matrix<double,-1,1,0,-1,1>,4,Eigen::Stride<0,0> >,Eigen::Matrix<double,-1,1,0,-1,1>,Eigen::internal::assign_op<double,double>,Eigen::internal::Dense2Dense,void>::run
PUBLIC	?run@?$checkTransposeAliasing_impl@V?$Matrix@N$0?0$00$0A@$0?0$00@Eigen@@V?$CwiseBinaryOp@U?$scalar_product_op@NN@internal@Eigen@@$$CBV?$CwiseNullaryOp@U?$scalar_constant_op@N@internal@Eigen@@$$CBV?$Matrix@N$0?0$00$0A@$0?0$00@3@@3@$$CBV?$Map@V?$Matrix@N$0?0$00$0A@$0?0$00@Eigen@@$03V?$Stride@$0A@$0A@@2@@3@@2@$0A@@internal@Eigen@@SAXAEBV?$Matrix@N$0?0$00$0A@$0?0$00@3@AEBV?$CwiseBinaryOp@U?$scalar_product_op@NN@internal@Eigen@@$$CBV?$CwiseNullaryOp@U?$scalar_constant_op@N@internal@Eigen@@$$CBV?$Matrix@N$0?0$00$0A@$0?0$00@3@@3@$$CBV?$Map@V?$Matrix@N$0?0$00$0A@$0?0$00@Eigen@@$03V?$Stride@$0A@$0A@@2@@3@@3@@Z ; Eigen::internal::checkTransposeAliasing_impl<Eigen::Matrix<double,-1,1,0,-1,1>,Eigen::CwiseBinaryOp<Eigen::internal::scalar_product_op<double,double>,Eigen::CwiseNullaryOp<Eigen::internal::scalar_constant_op<double>,Eigen::Matrix<double,-1,1,0,-1,1> const > const ,Eigen::Map<Eigen::Matrix<double,-1,1,0,-1,1>,4,Eigen::Stride<0,0> > const >,0>::run
PUBLIC	??0?$generic_dense_assignment_kernel@U?$evaluator@V?$Matrix@N$0?0$00$0A@$0?0$00@Eigen@@@internal@Eigen@@U?$evaluator@V?$CwiseBinaryOp@U?$scalar_product_op@NN@internal@Eigen@@$$CBV?$CwiseNullaryOp@U?$scalar_constant_op@N@internal@Eigen@@$$CBV?$Matrix@N$0?0$00$0A@$0?0$00@3@@3@$$CBV?$Map@V?$Matrix@N$0?0$00$0A@$0?0$00@Eigen@@$03V?$Stride@$0A@$0A@@2@@3@@Eigen@@@23@U?$add_assign_op@NN@23@$0A@@internal@Eigen@@QEAA@AEAU?$evaluator@V?$Matrix@N$0?0$00$0A@$0?0$00@Eigen@@@12@AEBU?$evaluator@V?$CwiseBinaryOp@U?$scalar_product_op@NN@internal@Eigen@@$$CBV?$CwiseNullaryOp@U?$scalar_constant_op@N@internal@Eigen@@$$CBV?$Matrix@N$0?0$00$0A@$0?0$00@3@@3@$$CBV?$Map@V?$Matrix@N$0?0$00$0A@$0?0$00@Eigen@@$03V?$Stride@$0A@$0A@@2@@3@@Eigen@@@12@AEBU?$add_assign_op@NN@12@AEAV?$Matrix@N$0?0$00$0A@$0?0$00@2@@Z ; Eigen::internal::generic_dense_assignment_kernel<Eigen::internal::evaluator<Eigen::Matrix<double,-1,1,0,-1,1> >,Eigen::internal::evaluator<Eigen::CwiseBinaryOp<Eigen::internal::scalar_product_op<double,double>,Eigen::CwiseNullaryOp<Eigen::internal::scalar_constant_op<double>,Eigen::Matrix<double,-1,1,0,-1,1> const > const ,Eigen::Map<Eigen::Matrix<double,-1,1,0,-1,1>,4,Eigen::Stride<0,0> > const > >,Eigen::internal::add_assign_op<double,double>,0>::generic_dense_assignment_kernel<Eigen::internal::evaluator<Eigen::Matrix<double,-1,1,0,-1,1> >,Eigen::internal::evaluator<Eigen::CwiseBinaryOp<Eigen::internal::scalar_product_op<double,double>,Eigen::CwiseNullaryOp<Eigen::internal::scalar_constant_op<double>,Eigen::Matrix<double,-1,1,0,-1,1> const > const ,Eigen::Map<Eigen::Matrix<double,-1,1,0,-1,1>,4,Eigen::Stride<0,0> > const > >,Eigen::internal::add_assign_op<double,double>,0>
PUBLIC	?run@?$dense_assignment_loop@V?$generic_dense_assignment_kernel@U?$evaluator@V?$Matrix@N$0?0$00$0A@$0?0$00@Eigen@@@internal@Eigen@@U?$evaluator@V?$CwiseBinaryOp@U?$scalar_product_op@NN@internal@Eigen@@$$CBV?$CwiseNullaryOp@U?$scalar_constant_op@N@internal@Eigen@@$$CBV?$Matrix@N$0?0$00$0A@$0?0$00@3@@3@$$CBV?$Map@V?$Matrix@N$0?0$00$0A@$0?0$00@Eigen@@$03V?$Stride@$0A@$0A@@2@@3@@Eigen@@@23@U?$add_assign_op@NN@23@$0A@@internal@Eigen@@$02$0A@@internal@Eigen@@SAXAEAV?$generic_dense_assignment_kernel@U?$evaluator@V?$Matrix@N$0?0$00$0A@$0?0$00@Eigen@@@internal@Eigen@@U?$evaluator@V?$CwiseBinaryOp@U?$scalar_product_op@NN@internal@Eigen@@$$CBV?$CwiseNullaryOp@U?$scalar_constant_op@N@internal@Eigen@@$$CBV?$Matrix@N$0?0$00$0A@$0?0$00@3@@3@$$CBV?$Map@V?$Matrix@N$0?0$00$0A@$0?0$00@Eigen@@$03V?$Stride@$0A@$0A@@2@@3@@Eigen@@@23@U?$add_assign_op@NN@23@$0A@@23@@Z ; Eigen::internal::dense_assignment_loop<Eigen::internal::generic_dense_assignment_kernel<Eigen::internal::evaluator<Eigen::Matrix<double,-1,1,0,-1,1> >,Eigen::internal::evaluator<Eigen::CwiseBinaryOp<Eigen::internal::scalar_product_op<double,double>,Eigen::CwiseNullaryOp<Eigen::internal::scalar_constant_op<double>,Eigen::Matrix<double,-1,1,0,-1,1> const > const ,Eigen::Map<Eigen::Matrix<double,-1,1,0,-1,1>,4,Eigen::Stride<0,0> > const > >,Eigen::internal::add_assign_op<double,double>,0>,3,0>::run
PUBLIC	?run@?$checkTransposeAliasing_impl@V?$Block@V?$Matrix@N$0?0$0?0$0A@$0?0$0?0@Eigen@@$0?0$00$00@Eigen@@V?$Map@V?$Matrix@N$0?0$00$0A@$0?0$00@Eigen@@$03V?$Stride@$0A@$0A@@2@@2@$0A@@internal@Eigen@@SAXAEBV?$Block@V?$Matrix@N$0?0$0?0$0A@$0?0$0?0@Eigen@@$0?0$00$00@3@AEBV?$Map@V?$Matrix@N$0?0$00$0A@$0?0$00@Eigen@@$03V?$Stride@$0A@$0A@@2@@3@@Z ; Eigen::internal::checkTransposeAliasing_impl<Eigen::Block<Eigen::Matrix<double,-1,-1,0,-1,-1>,-1,1,1>,Eigen::Map<Eigen::Matrix<double,-1,1,0,-1,1>,4,Eigen::Stride<0,0> >,0>::run
PUBLIC	??0?$generic_dense_assignment_kernel@U?$evaluator@V?$Block@V?$Matrix@N$0?0$0?0$0A@$0?0$0?0@Eigen@@$0?0$00$00@Eigen@@@internal@Eigen@@U?$evaluator@V?$Map@V?$Matrix@N$0?0$00$0A@$0?0$00@Eigen@@$03V?$Stride@$0A@$0A@@2@@Eigen@@@23@U?$assign_op@NN@23@$0A@@internal@Eigen@@QEAA@AEAU?$evaluator@V?$Block@V?$Matrix@N$0?0$0?0$0A@$0?0$0?0@Eigen@@$0?0$00$00@Eigen@@@12@AEBU?$evaluator@V?$Map@V?$Matrix@N$0?0$00$0A@$0?0$00@Eigen@@$03V?$Stride@$0A@$0A@@2@@Eigen@@@12@AEBU?$assign_op@NN@12@AEAV?$Block@V?$Matrix@N$0?0$0?0$0A@$0?0$0?0@Eigen@@$0?0$00$00@2@@Z ; Eigen::internal::generic_dense_assignment_kernel<Eigen::internal::evaluator<Eigen::Block<Eigen::Matrix<double,-1,-1,0,-1,-1>,-1,1,1> >,Eigen::internal::evaluator<Eigen::Map<Eigen::Matrix<double,-1,1,0,-1,1>,4,Eigen::Stride<0,0> > >,Eigen::internal::assign_op<double,double>,0>::generic_dense_assignment_kernel<Eigen::internal::evaluator<Eigen::Block<Eigen::Matrix<double,-1,-1,0,-1,-1>,-1,1,1> >,Eigen::internal::evaluator<Eigen::Map<Eigen::Matrix<double,-1,1,0,-1,1>,4,Eigen::Stride<0,0> > >,Eigen::internal::assign_op<double,double>,0>
PUBLIC	?run@?$dense_assignment_loop@V?$generic_dense_assignment_kernel@U?$evaluator@V?$Block@V?$Matrix@N$0?0$0?0$0A@$0?0$0?0@Eigen@@$0?0$00$00@Eigen@@@internal@Eigen@@U?$evaluator@V?$Map@V?$Matrix@N$0?0$00$0A@$0?0$00@Eigen@@$03V?$Stride@$0A@$0A@@2@@Eigen@@@23@U?$assign_op@NN@23@$0A@@internal@Eigen@@$02$0A@@internal@Eigen@@SAXAEAV?$generic_dense_assignment_kernel@U?$evaluator@V?$Block@V?$Matrix@N$0?0$0?0$0A@$0?0$0?0@Eigen@@$0?0$00$00@Eigen@@@internal@Eigen@@U?$evaluator@V?$Map@V?$Matrix@N$0?0$00$0A@$0?0$00@Eigen@@$03V?$Stride@$0A@$0A@@2@@Eigen@@@23@U?$assign_op@NN@23@$0A@@23@@Z ; Eigen::internal::dense_assignment_loop<Eigen::internal::generic_dense_assignment_kernel<Eigen::internal::evaluator<Eigen::Block<Eigen::Matrix<double,-1,-1,0,-1,-1>,-1,1,1> >,Eigen::internal::evaluator<Eigen::Map<Eigen::Matrix<double,-1,1,0,-1,1>,4,Eigen::Stride<0,0> > >,Eigen::internal::assign_op<double,double>,0>,3,0>::run
PUBLIC	?run@?$checkTransposeAliasing_impl@V?$Map@V?$Matrix@N$0?0$00$0A@$0?0$00@Eigen@@$03V?$Stride@$0A@$0A@@2@@Eigen@@V?$Block@V?$Matrix@N$0?0$0?0$0A@$0?0$0?0@Eigen@@$0?0$00$00@2@$0A@@internal@Eigen@@SAXAEBV?$Map@V?$Matrix@N$0?0$00$0A@$0?0$00@Eigen@@$03V?$Stride@$0A@$0A@@2@@3@AEBV?$Block@V?$Matrix@N$0?0$0?0$0A@$0?0$0?0@Eigen@@$0?0$00$00@3@@Z ; Eigen::internal::checkTransposeAliasing_impl<Eigen::Map<Eigen::Matrix<double,-1,1,0,-1,1>,4,Eigen::Stride<0,0> >,Eigen::Block<Eigen::Matrix<double,-1,-1,0,-1,-1>,-1,1,1>,0>::run
PUBLIC	??0?$generic_dense_assignment_kernel@U?$evaluator@V?$Map@V?$Matrix@N$0?0$00$0A@$0?0$00@Eigen@@$03V?$Stride@$0A@$0A@@2@@Eigen@@@internal@Eigen@@U?$evaluator@V?$Block@V?$Matrix@N$0?0$0?0$0A@$0?0$0?0@Eigen@@$0?0$00$00@Eigen@@@23@U?$assign_op@NN@23@$0A@@internal@Eigen@@QEAA@AEAU?$evaluator@V?$Map@V?$Matrix@N$0?0$00$0A@$0?0$00@Eigen@@$03V?$Stride@$0A@$0A@@2@@Eigen@@@12@AEBU?$evaluator@V?$Block@V?$Matrix@N$0?0$0?0$0A@$0?0$0?0@Eigen@@$0?0$00$00@Eigen@@@12@AEBU?$assign_op@NN@12@AEAV?$Map@V?$Matrix@N$0?0$00$0A@$0?0$00@Eigen@@$03V?$Stride@$0A@$0A@@2@@2@@Z ; Eigen::internal::generic_dense_assignment_kernel<Eigen::internal::evaluator<Eigen::Map<Eigen::Matrix<double,-1,1,0,-1,1>,4,Eigen::Stride<0,0> > >,Eigen::internal::evaluator<Eigen::Block<Eigen::Matrix<double,-1,-1,0,-1,-1>,-1,1,1> >,Eigen::internal::assign_op<double,double>,0>::generic_dense_assignment_kernel<Eigen::internal::evaluator<Eigen::Map<Eigen::Matrix<double,-1,1,0,-1,1>,4,Eigen::Stride<0,0> > >,Eigen::internal::evaluator<Eigen::Block<Eigen::Matrix<double,-1,-1,0,-1,-1>,-1,1,1> >,Eigen::internal::assign_op<double,double>,0>
PUBLIC	?run@?$dense_assignment_loop@V?$generic_dense_assignment_kernel@U?$evaluator@V?$Map@V?$Matrix@N$0?0$00$0A@$0?0$00@Eigen@@$03V?$Stride@$0A@$0A@@2@@Eigen@@@internal@Eigen@@U?$evaluator@V?$Block@V?$Matrix@N$0?0$0?0$0A@$0?0$0?0@Eigen@@$0?0$00$00@Eigen@@@23@U?$assign_op@NN@23@$0A@@internal@Eigen@@$02$0A@@internal@Eigen@@SAXAEAV?$generic_dense_assignment_kernel@U?$evaluator@V?$Map@V?$Matrix@N$0?0$00$0A@$0?0$00@Eigen@@$03V?$Stride@$0A@$0A@@2@@Eigen@@@internal@Eigen@@U?$evaluator@V?$Block@V?$Matrix@N$0?0$0?0$0A@$0?0$0?0@Eigen@@$0?0$00$00@Eigen@@@23@U?$assign_op@NN@23@$0A@@23@@Z ; Eigen::internal::dense_assignment_loop<Eigen::internal::generic_dense_assignment_kernel<Eigen::internal::evaluator<Eigen::Map<Eigen::Matrix<double,-1,1,0,-1,1>,4,Eigen::Stride<0,0> > >,Eigen::internal::evaluator<Eigen::Block<Eigen::Matrix<double,-1,-1,0,-1,-1>,-1,1,1> >,Eigen::internal::assign_op<double,double>,0>,3,0>::run
PUBLIC	?run@?$checkTransposeAliasing_impl@V?$Matrix@N$0?0$0?0$0A@$0?0$0?0@Eigen@@V?$CwiseNullaryOp@U?$scalar_constant_op@N@internal@Eigen@@V?$Matrix@N$0?0$0?0$0A@$0?0$0?0@3@@2@$0A@@internal@Eigen@@SAXAEBV?$Matrix@N$0?0$0?0$0A@$0?0$0?0@3@AEBV?$CwiseNullaryOp@U?$scalar_constant_op@N@internal@Eigen@@V?$Matrix@N$0?0$0?0$0A@$0?0$0?0@3@@3@@Z ; Eigen::internal::checkTransposeAliasing_impl<Eigen::Matrix<double,-1,-1,0,-1,-1>,Eigen::CwiseNullaryOp<Eigen::internal::scalar_constant_op<double>,Eigen::Matrix<double,-1,-1,0,-1,-1> >,0>::run
PUBLIC	??$call_dense_assignment_loop@V?$Matrix@N$0?0$0?0$0A@$0?0$0?0@Eigen@@@internal@Eigen@@YAXAEAV?$Matrix@N$0?0$0?0$0A@$0?0$0?0@1@AEBV?$CwiseNullaryOp@U?$scalar_constant_op@N@internal@Eigen@@V?$Matrix@N$0?0$0?0$0A@$0?0$0?0@3@@1@AEBU?$assign_op@NN@01@@Z ; Eigen::internal::call_dense_assignment_loop<Eigen::Matrix<double,-1,-1,0,-1,-1> >
PUBLIC	??$check_for_aliasing@V?$Matrix@N$0?0$0?0$0A@$0?0$0?0@Eigen@@V?$CwiseNullaryOp@U?$scalar_constant_op@N@internal@Eigen@@V?$Matrix@N$0?0$0?0$0A@$0?0$0?0@3@@2@@internal@Eigen@@YAXAEBV?$Matrix@N$0?0$0?0$0A@$0?0$0?0@1@AEBV?$CwiseNullaryOp@U?$scalar_constant_op@N@internal@Eigen@@V?$Matrix@N$0?0$0?0$0A@$0?0$0?0@3@@1@@Z ; Eigen::internal::check_for_aliasing<Eigen::Matrix<double,-1,-1,0,-1,-1>,Eigen::CwiseNullaryOp<Eigen::internal::scalar_constant_op<double>,Eigen::Matrix<double,-1,-1,0,-1,-1> > >
PUBLIC	??$call_dense_assignment_loop@V?$Map@V?$Matrix@N$0?0$00$0A@$0?0$00@Eigen@@$03V?$Stride@$0A@$0A@@2@@Eigen@@V?$Block@V?$Matrix@N$0?0$0?0$0A@$0?0$0?0@Eigen@@$0?0$00$00@2@U?$assign_op@NN@internal@2@@internal@Eigen@@YAXAEAV?$Map@V?$Matrix@N$0?0$00$0A@$0?0$00@Eigen@@$03V?$Stride@$0A@$0A@@2@@1@AEBV?$Block@V?$Matrix@N$0?0$0?0$0A@$0?0$0?0@Eigen@@$0?0$00$00@1@AEBU?$assign_op@NN@01@@Z ; Eigen::internal::call_dense_assignment_loop<Eigen::Map<Eigen::Matrix<double,-1,1,0,-1,1>,4,Eigen::Stride<0,0> >,Eigen::Block<Eigen::Matrix<double,-1,-1,0,-1,-1>,-1,1,1>,Eigen::internal::assign_op<double,double> >
PUBLIC	??$check_for_aliasing@V?$Map@V?$Matrix@N$0?0$00$0A@$0?0$00@Eigen@@$03V?$Stride@$0A@$0A@@2@@Eigen@@V?$Block@V?$Matrix@N$0?0$0?0$0A@$0?0$0?0@Eigen@@$0?0$00$00@2@@internal@Eigen@@YAXAEBV?$Map@V?$Matrix@N$0?0$00$0A@$0?0$00@Eigen@@$03V?$Stride@$0A@$0A@@2@@1@AEBV?$Block@V?$Matrix@N$0?0$0?0$0A@$0?0$0?0@Eigen@@$0?0$00$00@1@@Z ; Eigen::internal::check_for_aliasing<Eigen::Map<Eigen::Matrix<double,-1,1,0,-1,1>,4,Eigen::Stride<0,0> >,Eigen::Block<Eigen::Matrix<double,-1,-1,0,-1,-1>,-1,1,1> >
PUBLIC	??$call_dense_assignment_loop@V?$Block@V?$Matrix@N$0?0$0?0$0A@$0?0$0?0@Eigen@@$0?0$00$00@Eigen@@V?$Map@V?$Matrix@N$0?0$00$0A@$0?0$00@Eigen@@$03V?$Stride@$0A@$0A@@2@@2@U?$assign_op@NN@internal@2@@internal@Eigen@@YAXAEAV?$Block@V?$Matrix@N$0?0$0?0$0A@$0?0$0?0@Eigen@@$0?0$00$00@1@AEBV?$Map@V?$Matrix@N$0?0$00$0A@$0?0$00@Eigen@@$03V?$Stride@$0A@$0A@@2@@1@AEBU?$assign_op@NN@01@@Z ; Eigen::internal::call_dense_assignment_loop<Eigen::Block<Eigen::Matrix<double,-1,-1,0,-1,-1>,-1,1,1>,Eigen::Map<Eigen::Matrix<double,-1,1,0,-1,1>,4,Eigen::Stride<0,0> >,Eigen::internal::assign_op<double,double> >
PUBLIC	??$check_for_aliasing@V?$Block@V?$Matrix@N$0?0$0?0$0A@$0?0$0?0@Eigen@@$0?0$00$00@Eigen@@V?$Map@V?$Matrix@N$0?0$00$0A@$0?0$00@Eigen@@$03V?$Stride@$0A@$0A@@2@@2@@internal@Eigen@@YAXAEBV?$Block@V?$Matrix@N$0?0$0?0$0A@$0?0$0?0@Eigen@@$0?0$00$00@1@AEBV?$Map@V?$Matrix@N$0?0$00$0A@$0?0$00@Eigen@@$03V?$Stride@$0A@$0A@@2@@1@@Z ; Eigen::internal::check_for_aliasing<Eigen::Block<Eigen::Matrix<double,-1,-1,0,-1,-1>,-1,1,1>,Eigen::Map<Eigen::Matrix<double,-1,1,0,-1,1>,4,Eigen::Stride<0,0> > >
PUBLIC	??$call_dense_assignment_loop@V?$Matrix@N$0?0$00$0A@$0?0$00@Eigen@@V?$CwiseBinaryOp@U?$scalar_product_op@NN@internal@Eigen@@$$CBV?$CwiseNullaryOp@U?$scalar_constant_op@N@internal@Eigen@@$$CBV?$Matrix@N$0?0$00$0A@$0?0$00@3@@3@$$CBV?$Map@V?$Matrix@N$0?0$00$0A@$0?0$00@Eigen@@$03V?$Stride@$0A@$0A@@2@@3@@2@U?$add_assign_op@NN@internal@2@@internal@Eigen@@YAXAEAV?$Matrix@N$0?0$00$0A@$0?0$00@1@AEBV?$CwiseBinaryOp@U?$scalar_product_op@NN@internal@Eigen@@$$CBV?$CwiseNullaryOp@U?$scalar_constant_op@N@internal@Eigen@@$$CBV?$Matrix@N$0?0$00$0A@$0?0$00@3@@3@$$CBV?$Map@V?$Matrix@N$0?0$00$0A@$0?0$00@Eigen@@$03V?$Stride@$0A@$0A@@2@@3@@1@AEBU?$add_assign_op@NN@01@@Z ; Eigen::internal::call_dense_assignment_loop<Eigen::Matrix<double,-1,1,0,-1,1>,Eigen::CwiseBinaryOp<Eigen::internal::scalar_product_op<double,double>,Eigen::CwiseNullaryOp<Eigen::internal::scalar_constant_op<double>,Eigen::Matrix<double,-1,1,0,-1,1> const > const ,Eigen::Map<Eigen::Matrix<double,-1,1,0,-1,1>,4,Eigen::Stride<0,0> > const >,Eigen::internal::add_assign_op<double,double> >
PUBLIC	??$check_for_aliasing@V?$Matrix@N$0?0$00$0A@$0?0$00@Eigen@@V?$CwiseBinaryOp@U?$scalar_product_op@NN@internal@Eigen@@$$CBV?$CwiseNullaryOp@U?$scalar_constant_op@N@internal@Eigen@@$$CBV?$Matrix@N$0?0$00$0A@$0?0$00@3@@3@$$CBV?$Map@V?$Matrix@N$0?0$00$0A@$0?0$00@Eigen@@$03V?$Stride@$0A@$0A@@2@@3@@2@@internal@Eigen@@YAXAEBV?$Matrix@N$0?0$00$0A@$0?0$00@1@AEBV?$CwiseBinaryOp@U?$scalar_product_op@NN@internal@Eigen@@$$CBV?$CwiseNullaryOp@U?$scalar_constant_op@N@internal@Eigen@@$$CBV?$Matrix@N$0?0$00$0A@$0?0$00@3@@3@$$CBV?$Map@V?$Matrix@N$0?0$00$0A@$0?0$00@Eigen@@$03V?$Stride@$0A@$0A@@2@@3@@1@@Z ; Eigen::internal::check_for_aliasing<Eigen::Matrix<double,-1,1,0,-1,1>,Eigen::CwiseBinaryOp<Eigen::internal::scalar_product_op<double,double>,Eigen::CwiseNullaryOp<Eigen::internal::scalar_constant_op<double>,Eigen::Matrix<double,-1,1,0,-1,1> const > const ,Eigen::Map<Eigen::Matrix<double,-1,1,0,-1,1>,4,Eigen::Stride<0,0> > const > >
PUBLIC	??$assignPacket@$0CA@$0A@U__m256d@@@?$generic_dense_assignment_kernel@U?$evaluator@V?$Block@V?$Matrix@N$0?0$0?0$0A@$0?0$0?0@Eigen@@$0?0$00$00@Eigen@@@internal@Eigen@@U?$evaluator@V?$CwiseBinaryOp@U?$scalar_product_op@NN@internal@Eigen@@$$CBV?$CwiseNullaryOp@U?$scalar_constant_op@N@internal@Eigen@@$$CBV?$Matrix@N$0?0$00$0A@$0?0$00@3@@3@$$CBV?$Map@V?$Matrix@N$0?0$00$0A@$0?0$00@Eigen@@$03V?$Stride@$0A@$0A@@2@@3@@Eigen@@@23@U?$add_assign_op@NN@23@$0A@@internal@Eigen@@QEAAX_J@Z ; Eigen::internal::generic_dense_assignment_kernel<Eigen::internal::evaluator<Eigen::Block<Eigen::Matrix<double,-1,-1,0,-1,-1>,-1,1,1> >,Eigen::internal::evaluator<Eigen::CwiseBinaryOp<Eigen::internal::scalar_product_op<double,double>,Eigen::CwiseNullaryOp<Eigen::internal::scalar_constant_op<double>,Eigen::Matrix<double,-1,1,0,-1,1> const > const ,Eigen::Map<Eigen::Matrix<double,-1,1,0,-1,1>,4,Eigen::Stride<0,0> > const > >,Eigen::internal::add_assign_op<double,double>,0>::assignPacket<32,0,__m256d>
PUBLIC	??$run@V?$generic_dense_assignment_kernel@U?$evaluator@V?$Block@V?$Matrix@N$0?0$0?0$0A@$0?0$0?0@Eigen@@$0?0$00$00@Eigen@@@internal@Eigen@@U?$evaluator@V?$CwiseBinaryOp@U?$scalar_product_op@NN@internal@Eigen@@$$CBV?$CwiseNullaryOp@U?$scalar_constant_op@N@internal@Eigen@@$$CBV?$Matrix@N$0?0$00$0A@$0?0$00@3@@3@$$CBV?$Map@V?$Matrix@N$0?0$00$0A@$0?0$00@Eigen@@$03V?$Stride@$0A@$0A@@2@@3@@Eigen@@@23@U?$add_assign_op@NN@23@$0A@@internal@Eigen@@@?$unaligned_dense_assignment_loop@$0A@@internal@Eigen@@SAXAEAV?$generic_dense_assignment_kernel@U?$evaluator@V?$Block@V?$Matrix@N$0?0$0?0$0A@$0?0$0?0@Eigen@@$0?0$00$00@Eigen@@@internal@Eigen@@U?$evaluator@V?$CwiseBinaryOp@U?$scalar_product_op@NN@internal@Eigen@@$$CBV?$CwiseNullaryOp@U?$scalar_constant_op@N@internal@Eigen@@$$CBV?$Matrix@N$0?0$00$0A@$0?0$00@3@@3@$$CBV?$Map@V?$Matrix@N$0?0$00$0A@$0?0$00@Eigen@@$03V?$Stride@$0A@$0A@@2@@3@@Eigen@@@23@U?$add_assign_op@NN@23@$0A@@12@_J1@Z ; Eigen::internal::unaligned_dense_assignment_loop<0>::run<Eigen::internal::generic_dense_assignment_kernel<Eigen::internal::evaluator<Eigen::Block<Eigen::Matrix<double,-1,-1,0,-1,-1>,-1,1,1> >,Eigen::internal::evaluator<Eigen::CwiseBinaryOp<Eigen::internal::scalar_product_op<double,double>,Eigen::CwiseNullaryOp<Eigen::internal::scalar_constant_op<double>,Eigen::Matrix<double,-1,1,0,-1,1> const > const ,Eigen::Map<Eigen::Matrix<double,-1,1,0,-1,1>,4,Eigen::Stride<0,0> > const > >,Eigen::internal::add_assign_op<double,double>,0> >
PUBLIC	??$resize_if_allowed@V?$Block@V?$Matrix@N$0?0$0?0$0A@$0?0$0?0@Eigen@@$0?0$00$00@Eigen@@V?$CwiseBinaryOp@U?$scalar_product_op@NN@internal@Eigen@@$$CBV?$CwiseNullaryOp@U?$scalar_constant_op@N@internal@Eigen@@$$CBV?$Matrix@N$0?0$00$0A@$0?0$00@3@@3@$$CBV?$Map@V?$Matrix@N$0?0$00$0A@$0?0$00@Eigen@@$03V?$Stride@$0A@$0A@@2@@3@@2@U?$add_assign_op@NN@internal@2@@internal@Eigen@@YAXAEAV?$Block@V?$Matrix@N$0?0$0?0$0A@$0?0$0?0@Eigen@@$0?0$00$00@1@AEBV?$CwiseBinaryOp@U?$scalar_product_op@NN@internal@Eigen@@$$CBV?$CwiseNullaryOp@U?$scalar_constant_op@N@internal@Eigen@@$$CBV?$Matrix@N$0?0$00$0A@$0?0$00@3@@3@$$CBV?$Map@V?$Matrix@N$0?0$00$0A@$0?0$00@Eigen@@$03V?$Stride@$0A@$0A@@2@@3@@1@AEBU?$add_assign_op@NN@01@@Z ; Eigen::internal::resize_if_allowed<Eigen::Block<Eigen::Matrix<double,-1,-1,0,-1,-1>,-1,1,1>,Eigen::CwiseBinaryOp<Eigen::internal::scalar_product_op<double,double>,Eigen::CwiseNullaryOp<Eigen::internal::scalar_constant_op<double>,Eigen::Matrix<double,-1,1,0,-1,1> const > const ,Eigen::Map<Eigen::Matrix<double,-1,1,0,-1,1>,4,Eigen::Stride<0,0> > const >,Eigen::internal::add_assign_op<double,double> >
PUBLIC	??$call_assignment@V?$Matrix@N$0?0$00$0A@$0?0$00@Eigen@@V?$Map@V?$Matrix@N$0?0$00$0A@$0?0$00@Eigen@@$03V?$Stride@$0A@$0A@@2@@2@U?$assign_op@NN@internal@2@@internal@Eigen@@YAXAEAV?$Matrix@N$0?0$00$0A@$0?0$00@1@AEBV?$Map@V?$Matrix@N$0?0$00$0A@$0?0$00@Eigen@@$03V?$Stride@$0A@$0A@@2@@1@AEBU?$assign_op@NN@01@PEAX@Z ; Eigen::internal::call_assignment<Eigen::Matrix<double,-1,1,0,-1,1>,Eigen::Map<Eigen::Matrix<double,-1,1,0,-1,1>,4,Eigen::Stride<0,0> >,Eigen::internal::assign_op<double,double> >
PUBLIC	??$call_assignment_no_alias@V?$Map@V?$Matrix@N$0?0$00$0A@$0?0$00@Eigen@@$03V?$Stride@$0A@$0A@@2@@Eigen@@V?$Matrix@N$0?0$00$0A@$0?0$00@2@U?$assign_op@NN@internal@2@@internal@Eigen@@YAXAEAV?$Map@V?$Matrix@N$0?0$00$0A@$0?0$00@Eigen@@$03V?$Stride@$0A@$0A@@2@@1@AEBV?$Matrix@N$0?0$00$0A@$0?0$00@1@AEBU?$assign_op@NN@01@@Z ; Eigen::internal::call_assignment_no_alias<Eigen::Map<Eigen::Matrix<double,-1,1,0,-1,1>,4,Eigen::Stride<0,0> >,Eigen::Matrix<double,-1,1,0,-1,1>,Eigen::internal::assign_op<double,double> >
PUBLIC	??$call_assignment_no_alias@V?$Map@V?$Matrix@N$0?0$00$0A@$0?0$00@Eigen@@$0A@V?$Stride@$0A@$0A@@2@@Eigen@@V?$Transpose@$$CBV?$Block@$$CBV?$Matrix@N$0?0$0?0$0A@$0?0$0?0@Eigen@@$00$0?0$0A@@Eigen@@@2@U?$assign_op@NN@internal@2@@internal@Eigen@@YAXAEAV?$Map@V?$Matrix@N$0?0$00$0A@$0?0$00@Eigen@@$0A@V?$Stride@$0A@$0A@@2@@1@AEBV?$Transpose@$$CBV?$Block@$$CBV?$Matrix@N$0?0$0?0$0A@$0?0$0?0@Eigen@@$00$0?0$0A@@Eigen@@@1@AEBU?$assign_op@NN@01@@Z ; Eigen::internal::call_assignment_no_alias<Eigen::Map<Eigen::Matrix<double,-1,1,0,-1,1>,0,Eigen::Stride<0,0> >,Eigen::Transpose<Eigen::Block<Eigen::Matrix<double,-1,-1,0,-1,-1> const ,1,-1,0> const >,Eigen::internal::assign_op<double,double> >
PUBLIC	??$call_assignment_no_alias@V?$Matrix@N$0?0$00$0A@$0?0$00@Eigen@@V?$CwiseNullaryOp@U?$scalar_constant_op@N@internal@Eigen@@V?$Matrix@N$0?0$00$0A@$0?0$00@3@@2@U?$assign_op@NN@internal@2@@internal@Eigen@@YAXAEAV?$Matrix@N$0?0$00$0A@$0?0$00@1@AEBV?$CwiseNullaryOp@U?$scalar_constant_op@N@internal@Eigen@@V?$Matrix@N$0?0$00$0A@$0?0$00@3@@1@AEBU?$assign_op@NN@01@@Z ; Eigen::internal::call_assignment_no_alias<Eigen::Matrix<double,-1,1,0,-1,1>,Eigen::CwiseNullaryOp<Eigen::internal::scalar_constant_op<double>,Eigen::Matrix<double,-1,1,0,-1,1> >,Eigen::internal::assign_op<double,double> >
PUBLIC	??$call_assignment@V?$Map@V?$Matrix@N$0?0$00$0A@$0?0$00@Eigen@@$03V?$Stride@$0A@$0A@@2@@Eigen@@V?$CwiseNullaryOp@U?$scalar_constant_op@N@internal@Eigen@@V?$Matrix@N$0?0$00$0A@$0?0$00@3@@2@U?$assign_op@NN@internal@2@@internal@Eigen@@YAXAEAV?$Map@V?$Matrix@N$0?0$00$0A@$0?0$00@Eigen@@$03V?$Stride@$0A@$0A@@2@@1@AEBV?$CwiseNullaryOp@U?$scalar_constant_op@N@internal@Eigen@@V?$Matrix@N$0?0$00$0A@$0?0$00@3@@1@AEBU?$assign_op@NN@01@PEAX@Z ; Eigen::internal::call_assignment<Eigen::Map<Eigen::Matrix<double,-1,1,0,-1,1>,4,Eigen::Stride<0,0> >,Eigen::CwiseNullaryOp<Eigen::internal::scalar_constant_op<double>,Eigen::Matrix<double,-1,1,0,-1,1> >,Eigen::internal::assign_op<double,double> >
PUBLIC	?size@?$EigenBase@V?$Map@V?$Matrix@N$0?0$00$0A@$0?0$00@Eigen@@$03V?$Stride@$0A@$0A@@2@@Eigen@@@Eigen@@QEBA_JXZ ; Eigen::EigenBase<Eigen::Map<Eigen::Matrix<double,-1,1,0,-1,1>,4,Eigen::Stride<0,0> > >::size
PUBLIC	?data@?$MapBase@V?$Map@V?$Matrix@N$0?0$00$0A@$0?0$00@Eigen@@$03V?$Stride@$0A@$0A@@2@@Eigen@@$00@Eigen@@QEBAPEBNXZ ; Eigen::MapBase<Eigen::Map<Eigen::Matrix<double,-1,1,0,-1,1>,4,Eigen::Stride<0,0> >,1>::data
PUBLIC	?innerStride@?$Map@V?$Matrix@N$0?0$00$0A@$0?0$00@Eigen@@$03V?$Stride@$0A@$0A@@2@@Eigen@@QEBA_JXZ ; Eigen::Map<Eigen::Matrix<double,-1,1,0,-1,1>,4,Eigen::Stride<0,0> >::innerStride
PUBLIC	?outerStride@?$Map@V?$Matrix@N$0?0$00$0A@$0?0$00@Eigen@@$03V?$Stride@$0A@$0A@@2@@Eigen@@QEBA_JXZ ; Eigen::Map<Eigen::Matrix<double,-1,1,0,-1,1>,4,Eigen::Stride<0,0> >::outerStride
PUBLIC	??0?$evaluator_base@V?$Map@V?$Matrix@N$0?0$00$0A@$0?0$00@Eigen@@$03V?$Stride@$0A@$0A@@2@@Eigen@@@internal@Eigen@@QEAA@XZ ; Eigen::internal::evaluator_base<Eigen::Map<Eigen::Matrix<double,-1,1,0,-1,1>,4,Eigen::Stride<0,0> > >::evaluator_base<Eigen::Map<Eigen::Matrix<double,-1,1,0,-1,1>,4,Eigen::Stride<0,0> > >
PUBLIC	?functor@?$CwiseNullaryOp@U?$scalar_constant_op@N@internal@Eigen@@$$CBV?$Matrix@N$0?0$00$0A@$0?0$00@3@@Eigen@@QEBAAEBU?$scalar_constant_op@N@internal@2@XZ ; Eigen::CwiseNullaryOp<Eigen::internal::scalar_constant_op<double>,Eigen::Matrix<double,-1,1,0,-1,1> const >::functor
PUBLIC	??0?$evaluator_base@V?$CwiseNullaryOp@U?$scalar_constant_op@N@internal@Eigen@@$$CBV?$Matrix@N$0?0$00$0A@$0?0$00@3@@Eigen@@@internal@Eigen@@QEAA@XZ ; Eigen::internal::evaluator_base<Eigen::CwiseNullaryOp<Eigen::internal::scalar_constant_op<double>,Eigen::Matrix<double,-1,1,0,-1,1> const > >::evaluator_base<Eigen::CwiseNullaryOp<Eigen::internal::scalar_constant_op<double>,Eigen::Matrix<double,-1,1,0,-1,1> const > >
PUBLIC	??0?$mapbase_evaluator@V?$Map@V?$Matrix@N$0?0$00$0A@$0?0$00@Eigen@@$03V?$Stride@$0A@$0A@@2@@Eigen@@V?$Matrix@N$0?0$00$0A@$0?0$00@2@@internal@Eigen@@QEAA@AEBV?$Map@V?$Matrix@N$0?0$00$0A@$0?0$00@Eigen@@$03V?$Stride@$0A@$0A@@2@@2@@Z ; Eigen::internal::mapbase_evaluator<Eigen::Map<Eigen::Matrix<double,-1,1,0,-1,1>,4,Eigen::Stride<0,0> >,Eigen::Matrix<double,-1,1,0,-1,1> >::mapbase_evaluator<Eigen::Map<Eigen::Matrix<double,-1,1,0,-1,1>,4,Eigen::Stride<0,0> >,Eigen::Matrix<double,-1,1,0,-1,1> >
PUBLIC	??0?$evaluator@V?$CwiseNullaryOp@U?$scalar_constant_op@N@internal@Eigen@@$$CBV?$Matrix@N$0?0$00$0A@$0?0$00@3@@Eigen@@@internal@Eigen@@QEAA@AEBV?$CwiseNullaryOp@U?$scalar_constant_op@N@internal@Eigen@@$$CBV?$Matrix@N$0?0$00$0A@$0?0$00@3@@2@@Z ; Eigen::internal::evaluator<Eigen::CwiseNullaryOp<Eigen::internal::scalar_constant_op<double>,Eigen::Matrix<double,-1,1,0,-1,1> const > >::evaluator<Eigen::CwiseNullaryOp<Eigen::internal::scalar_constant_op<double>,Eigen::Matrix<double,-1,1,0,-1,1> const > >
PUBLIC	??0?$evaluator@V?$Map@V?$Matrix@N$0?0$00$0A@$0?0$00@Eigen@@$03V?$Stride@$0A@$0A@@2@@Eigen@@@internal@Eigen@@QEAA@AEBV?$Map@V?$Matrix@N$0?0$00$0A@$0?0$00@Eigen@@$03V?$Stride@$0A@$0A@@2@@2@@Z ; Eigen::internal::evaluator<Eigen::Map<Eigen::Matrix<double,-1,1,0,-1,1>,4,Eigen::Stride<0,0> > >::evaluator<Eigen::Map<Eigen::Matrix<double,-1,1,0,-1,1>,4,Eigen::Stride<0,0> > >
PUBLIC	?lhs@?$CwiseBinaryOp@U?$scalar_product_op@NN@internal@Eigen@@$$CBV?$CwiseNullaryOp@U?$scalar_constant_op@N@internal@Eigen@@$$CBV?$Matrix@N$0?0$00$0A@$0?0$00@3@@3@$$CBV?$Map@V?$Matrix@N$0?0$00$0A@$0?0$00@Eigen@@$03V?$Stride@$0A@$0A@@2@@3@@Eigen@@QEBAAEBV?$CwiseNullaryOp@U?$scalar_constant_op@N@internal@Eigen@@$$CBV?$Matrix@N$0?0$00$0A@$0?0$00@3@@2@XZ ; Eigen::CwiseBinaryOp<Eigen::internal::scalar_product_op<double,double>,Eigen::CwiseNullaryOp<Eigen::internal::scalar_constant_op<double>,Eigen::Matrix<double,-1,1,0,-1,1> const > const ,Eigen::Map<Eigen::Matrix<double,-1,1,0,-1,1>,4,Eigen::Stride<0,0> > const >::lhs
PUBLIC	?rhs@?$CwiseBinaryOp@U?$scalar_product_op@NN@internal@Eigen@@$$CBV?$CwiseNullaryOp@U?$scalar_constant_op@N@internal@Eigen@@$$CBV?$Matrix@N$0?0$00$0A@$0?0$00@3@@3@$$CBV?$Map@V?$Matrix@N$0?0$00$0A@$0?0$00@Eigen@@$03V?$Stride@$0A@$0A@@2@@3@@Eigen@@QEBAAEBV?$Map@V?$Matrix@N$0?0$00$0A@$0?0$00@Eigen@@$03V?$Stride@$0A@$0A@@2@@2@XZ ; Eigen::CwiseBinaryOp<Eigen::internal::scalar_product_op<double,double>,Eigen::CwiseNullaryOp<Eigen::internal::scalar_constant_op<double>,Eigen::Matrix<double,-1,1,0,-1,1> const > const ,Eigen::Map<Eigen::Matrix<double,-1,1,0,-1,1>,4,Eigen::Stride<0,0> > const >::rhs
PUBLIC	?functor@?$CwiseBinaryOp@U?$scalar_product_op@NN@internal@Eigen@@$$CBV?$CwiseNullaryOp@U?$scalar_constant_op@N@internal@Eigen@@$$CBV?$Matrix@N$0?0$00$0A@$0?0$00@3@@3@$$CBV?$Map@V?$Matrix@N$0?0$00$0A@$0?0$00@Eigen@@$03V?$Stride@$0A@$0A@@2@@3@@Eigen@@QEBAAEBU?$scalar_product_op@NN@internal@2@XZ ; Eigen::CwiseBinaryOp<Eigen::internal::scalar_product_op<double,double>,Eigen::CwiseNullaryOp<Eigen::internal::scalar_constant_op<double>,Eigen::Matrix<double,-1,1,0,-1,1> const > const ,Eigen::Map<Eigen::Matrix<double,-1,1,0,-1,1>,4,Eigen::Stride<0,0> > const >::functor
PUBLIC	?rowStride@?$mapbase_evaluator@V?$Block@$$CBV?$Matrix@N$0?0$00$0A@$0?0$00@Eigen@@$0?0$00$00@Eigen@@V?$Matrix@N$0?0$00$0A@$0?0$00@2@@internal@Eigen@@IEBA_JXZ ; Eigen::internal::mapbase_evaluator<Eigen::Block<Eigen::Matrix<double,-1,1,0,-1,1> const ,-1,1,1>,Eigen::Matrix<double,-1,1,0,-1,1> >::rowStride
PUBLIC	?colStride@?$mapbase_evaluator@V?$Block@$$CBV?$Matrix@N$0?0$00$0A@$0?0$00@Eigen@@$0?0$00$00@Eigen@@V?$Matrix@N$0?0$00$0A@$0?0$00@2@@internal@Eigen@@IEBA_JXZ ; Eigen::internal::mapbase_evaluator<Eigen::Block<Eigen::Matrix<double,-1,1,0,-1,1> const ,-1,1,1>,Eigen::Matrix<double,-1,1,0,-1,1> >::colStride
PUBLIC	??0?$evaluator@$$CBV?$CwiseNullaryOp@U?$scalar_constant_op@N@internal@Eigen@@$$CBV?$Matrix@N$0?0$00$0A@$0?0$00@3@@Eigen@@@internal@Eigen@@QEAA@AEBV?$CwiseNullaryOp@U?$scalar_constant_op@N@internal@Eigen@@$$CBV?$Matrix@N$0?0$00$0A@$0?0$00@3@@2@@Z ; Eigen::internal::evaluator<Eigen::CwiseNullaryOp<Eigen::internal::scalar_constant_op<double>,Eigen::Matrix<double,-1,1,0,-1,1> const > const >::evaluator<Eigen::CwiseNullaryOp<Eigen::internal::scalar_constant_op<double>,Eigen::Matrix<double,-1,1,0,-1,1> const > const >
PUBLIC	??0?$evaluator@$$CBV?$Map@V?$Matrix@N$0?0$00$0A@$0?0$00@Eigen@@$03V?$Stride@$0A@$0A@@2@@Eigen@@@internal@Eigen@@QEAA@AEBV?$Map@V?$Matrix@N$0?0$00$0A@$0?0$00@Eigen@@$03V?$Stride@$0A@$0A@@2@@2@@Z ; Eigen::internal::evaluator<Eigen::Map<Eigen::Matrix<double,-1,1,0,-1,1>,4,Eigen::Stride<0,0> > const >::evaluator<Eigen::Map<Eigen::Matrix<double,-1,1,0,-1,1>,4,Eigen::Stride<0,0> > const >
PUBLIC	??0?$evaluator_base@V?$Block@V?$Matrix@N$0?0$0?0$0A@$0?0$0?0@Eigen@@$0?0$00$00@Eigen@@@internal@Eigen@@QEAA@XZ ; Eigen::internal::evaluator_base<Eigen::Block<Eigen::Matrix<double,-1,-1,0,-1,-1>,-1,1,1> >::evaluator_base<Eigen::Block<Eigen::Matrix<double,-1,-1,0,-1,-1>,-1,1,1> >
PUBLIC	?data@?$MapBase@V?$Block@V?$Matrix@N$0?0$0?0$0A@$0?0$0?0@Eigen@@$0?0$00$00@Eigen@@$00@Eigen@@QEBAPEBNXZ ; Eigen::MapBase<Eigen::Block<Eigen::Matrix<double,-1,-1,0,-1,-1>,-1,1,1>,1>::data
PUBLIC	?coeff@?$mapbase_evaluator@V?$Block@$$CBV?$Matrix@N$0?0$00$0A@$0?0$00@Eigen@@$0?0$00$00@Eigen@@V?$Matrix@N$0?0$00$0A@$0?0$00@2@@internal@Eigen@@QEBAN_J0@Z ; Eigen::internal::mapbase_evaluator<Eigen::Block<Eigen::Matrix<double,-1,1,0,-1,1> const ,-1,1,1>,Eigen::Matrix<double,-1,1,0,-1,1> >::coeff
PUBLIC	?func@Data@?$binary_evaluator@V?$CwiseBinaryOp@U?$scalar_conj_product_op@NN@internal@Eigen@@$$CBV?$Transpose@$$CBV?$Block@$$CBV?$Matrix@N$0?0$0?0$0A@$0?0$0?0@Eigen@@$00$0?0$0A@@Eigen@@@3@$$CBV?$Block@$$CBV?$Matrix@N$0?0$00$0A@$0?0$00@Eigen@@$0?0$00$00@3@@Eigen@@UIndexBased@internal@2@U342@NN@internal@Eigen@@QEBAAEBU?$scalar_conj_product_op@NN@34@XZ ; Eigen::internal::binary_evaluator<Eigen::CwiseBinaryOp<Eigen::internal::scalar_conj_product_op<double,double>,Eigen::Transpose<Eigen::Block<Eigen::Matrix<double,-1,-1,0,-1,-1> const ,1,-1,0> const > const ,Eigen::Block<Eigen::Matrix<double,-1,1,0,-1,1> const ,-1,1,1> const >,Eigen::internal::IndexBased,Eigen::internal::IndexBased,double,double>::Data::func
PUBLIC	??0?$evaluator_base@V?$CwiseBinaryOp@U?$scalar_product_op@NN@internal@Eigen@@$$CBV?$CwiseNullaryOp@U?$scalar_constant_op@N@internal@Eigen@@$$CBV?$Matrix@N$0?0$00$0A@$0?0$00@3@@3@$$CBV?$Map@V?$Matrix@N$0?0$00$0A@$0?0$00@Eigen@@$03V?$Stride@$0A@$0A@@2@@3@@Eigen@@@internal@Eigen@@QEAA@XZ ; Eigen::internal::evaluator_base<Eigen::CwiseBinaryOp<Eigen::internal::scalar_product_op<double,double>,Eigen::CwiseNullaryOp<Eigen::internal::scalar_constant_op<double>,Eigen::Matrix<double,-1,1,0,-1,1> const > const ,Eigen::Map<Eigen::Matrix<double,-1,1,0,-1,1>,4,Eigen::Stride<0,0> > const > >::evaluator_base<Eigen::CwiseBinaryOp<Eigen::internal::scalar_product_op<double,double>,Eigen::CwiseNullaryOp<Eigen::internal::scalar_constant_op<double>,Eigen::Matrix<double,-1,1,0,-1,1> const > const ,Eigen::Map<Eigen::Matrix<double,-1,1,0,-1,1>,4,Eigen::Stride<0,0> > const > >
PUBLIC	??0Data@?$binary_evaluator@V?$CwiseBinaryOp@U?$scalar_product_op@NN@internal@Eigen@@$$CBV?$CwiseNullaryOp@U?$scalar_constant_op@N@internal@Eigen@@$$CBV?$Matrix@N$0?0$00$0A@$0?0$00@3@@3@$$CBV?$Map@V?$Matrix@N$0?0$00$0A@$0?0$00@Eigen@@$03V?$Stride@$0A@$0A@@2@@3@@Eigen@@UIndexBased@internal@2@U342@NN@internal@Eigen@@QEAA@AEBV?$CwiseBinaryOp@U?$scalar_product_op@NN@internal@Eigen@@$$CBV?$CwiseNullaryOp@U?$scalar_constant_op@N@internal@Eigen@@$$CBV?$Matrix@N$0?0$00$0A@$0?0$00@3@@3@$$CBV?$Map@V?$Matrix@N$0?0$00$0A@$0?0$00@Eigen@@$03V?$Stride@$0A@$0A@@2@@3@@3@@Z ; Eigen::internal::binary_evaluator<Eigen::CwiseBinaryOp<Eigen::internal::scalar_product_op<double,double>,Eigen::CwiseNullaryOp<Eigen::internal::scalar_constant_op<double>,Eigen::Matrix<double,-1,1,0,-1,1> const > const ,Eigen::Map<Eigen::Matrix<double,-1,1,0,-1,1>,4,Eigen::Stride<0,0> > const >,Eigen::internal::IndexBased,Eigen::internal::IndexBased,double,double>::Data::Data
PUBLIC	??0?$mapbase_evaluator@V?$Block@V?$Matrix@N$0?0$0?0$0A@$0?0$0?0@Eigen@@$0?0$00$00@Eigen@@V?$Matrix@N$0?0$00$0A@$0?0$00@2@@internal@Eigen@@QEAA@AEBV?$Block@V?$Matrix@N$0?0$0?0$0A@$0?0$0?0@Eigen@@$0?0$00$00@2@@Z ; Eigen::internal::mapbase_evaluator<Eigen::Block<Eigen::Matrix<double,-1,-1,0,-1,-1>,-1,1,1>,Eigen::Matrix<double,-1,1,0,-1,1> >::mapbase_evaluator<Eigen::Block<Eigen::Matrix<double,-1,-1,0,-1,-1>,-1,1,1>,Eigen::Matrix<double,-1,1,0,-1,1> >
PUBLIC	?coeff@?$binary_evaluator@V?$CwiseBinaryOp@U?$scalar_conj_product_op@NN@internal@Eigen@@$$CBV?$Transpose@$$CBV?$Block@$$CBV?$Matrix@N$0?0$0?0$0A@$0?0$0?0@Eigen@@$00$0?0$0A@@Eigen@@@3@$$CBV?$Block@$$CBV?$Matrix@N$0?0$00$0A@$0?0$00@Eigen@@$0?0$00$00@3@@Eigen@@UIndexBased@internal@2@U342@NN@internal@Eigen@@QEBAN_J0@Z ; Eigen::internal::binary_evaluator<Eigen::CwiseBinaryOp<Eigen::internal::scalar_conj_product_op<double,double>,Eigen::Transpose<Eigen::Block<Eigen::Matrix<double,-1,-1,0,-1,-1> const ,1,-1,0> const > const ,Eigen::Block<Eigen::Matrix<double,-1,1,0,-1,1> const ,-1,1,1> const >,Eigen::internal::IndexBased,Eigen::internal::IndexBased,double,double>::coeff
PUBLIC	??0?$binary_evaluator@V?$CwiseBinaryOp@U?$scalar_product_op@NN@internal@Eigen@@$$CBV?$CwiseNullaryOp@U?$scalar_constant_op@N@internal@Eigen@@$$CBV?$Matrix@N$0?0$00$0A@$0?0$00@3@@3@$$CBV?$Map@V?$Matrix@N$0?0$00$0A@$0?0$00@Eigen@@$03V?$Stride@$0A@$0A@@2@@3@@Eigen@@UIndexBased@internal@2@U342@NN@internal@Eigen@@QEAA@AEBV?$CwiseBinaryOp@U?$scalar_product_op@NN@internal@Eigen@@$$CBV?$CwiseNullaryOp@U?$scalar_constant_op@N@internal@Eigen@@$$CBV?$Matrix@N$0?0$00$0A@$0?0$00@3@@3@$$CBV?$Map@V?$Matrix@N$0?0$00$0A@$0?0$00@Eigen@@$03V?$Stride@$0A@$0A@@2@@3@@2@@Z ; Eigen::internal::binary_evaluator<Eigen::CwiseBinaryOp<Eigen::internal::scalar_product_op<double,double>,Eigen::CwiseNullaryOp<Eigen::internal::scalar_constant_op<double>,Eigen::Matrix<double,-1,1,0,-1,1> const > const ,Eigen::Map<Eigen::Matrix<double,-1,1,0,-1,1>,4,Eigen::Stride<0,0> > const >,Eigen::internal::IndexBased,Eigen::internal::IndexBased,double,double>::binary_evaluator<Eigen::CwiseBinaryOp<Eigen::internal::scalar_product_op<double,double>,Eigen::CwiseNullaryOp<Eigen::internal::scalar_constant_op<double>,Eigen::Matrix<double,-1,1,0,-1,1> const > const ,Eigen::Map<Eigen::Matrix<double,-1,1,0,-1,1>,4,Eigen::Stride<0,0> > const >,Eigen::internal::IndexBased,Eigen::internal::IndexBased,double,double>
PUBLIC	??0?$block_evaluator@V?$Matrix@N$0?0$0?0$0A@$0?0$0?0@Eigen@@$0?0$00$00$00@internal@Eigen@@QEAA@AEBV?$Block@V?$Matrix@N$0?0$0?0$0A@$0?0$0?0@Eigen@@$0?0$00$00@2@@Z ; Eigen::internal::block_evaluator<Eigen::Matrix<double,-1,-1,0,-1,-1>,-1,1,1,1>::block_evaluator<Eigen::Matrix<double,-1,-1,0,-1,-1>,-1,1,1,1>
PUBLIC	?size@?$generic_dense_assignment_kernel@U?$evaluator@V?$Block@V?$Matrix@N$0?0$0?0$0A@$0?0$0?0@Eigen@@$0?0$00$00@Eigen@@@internal@Eigen@@U?$evaluator@V?$CwiseBinaryOp@U?$scalar_product_op@NN@internal@Eigen@@$$CBV?$CwiseNullaryOp@U?$scalar_constant_op@N@internal@Eigen@@$$CBV?$Matrix@N$0?0$00$0A@$0?0$00@3@@3@$$CBV?$Map@V?$Matrix@N$0?0$00$0A@$0?0$00@Eigen@@$03V?$Stride@$0A@$0A@@2@@3@@Eigen@@@23@U?$add_assign_op@NN@23@$0A@@internal@Eigen@@QEBA_JXZ ; Eigen::internal::generic_dense_assignment_kernel<Eigen::internal::evaluator<Eigen::Block<Eigen::Matrix<double,-1,-1,0,-1,-1>,-1,1,1> >,Eigen::internal::evaluator<Eigen::CwiseBinaryOp<Eigen::internal::scalar_product_op<double,double>,Eigen::CwiseNullaryOp<Eigen::internal::scalar_constant_op<double>,Eigen::Matrix<double,-1,1,0,-1,1> const > const ,Eigen::Map<Eigen::Matrix<double,-1,1,0,-1,1>,4,Eigen::Stride<0,0> > const > >,Eigen::internal::add_assign_op<double,double>,0>::size
PUBLIC	?dstDataPtr@?$generic_dense_assignment_kernel@U?$evaluator@V?$Block@V?$Matrix@N$0?0$0?0$0A@$0?0$0?0@Eigen@@$0?0$00$00@Eigen@@@internal@Eigen@@U?$evaluator@V?$CwiseBinaryOp@U?$scalar_product_op@NN@internal@Eigen@@$$CBV?$CwiseNullaryOp@U?$scalar_constant_op@N@internal@Eigen@@$$CBV?$Matrix@N$0?0$00$0A@$0?0$00@3@@3@$$CBV?$Map@V?$Matrix@N$0?0$00$0A@$0?0$00@Eigen@@$03V?$Stride@$0A@$0A@@2@@3@@Eigen@@@23@U?$add_assign_op@NN@23@$0A@@internal@Eigen@@QEBAPEBNXZ ; Eigen::internal::generic_dense_assignment_kernel<Eigen::internal::evaluator<Eigen::Block<Eigen::Matrix<double,-1,-1,0,-1,-1>,-1,1,1> >,Eigen::internal::evaluator<Eigen::CwiseBinaryOp<Eigen::internal::scalar_product_op<double,double>,Eigen::CwiseNullaryOp<Eigen::internal::scalar_constant_op<double>,Eigen::Matrix<double,-1,1,0,-1,1> const > const ,Eigen::Map<Eigen::Matrix<double,-1,1,0,-1,1>,4,Eigen::Stride<0,0> > const > >,Eigen::internal::add_assign_op<double,double>,0>::dstDataPtr
PUBLIC	?const_cast_derived@?$EigenBase@V?$Block@V?$Matrix@N$0?0$0?0$0A@$0?0$0?0@Eigen@@$0?0$00$00@Eigen@@@Eigen@@QEBAAEAV?$Block@V?$Matrix@N$0?0$0?0$0A@$0?0$0?0@Eigen@@$0?0$00$00@2@XZ ; Eigen::EigenBase<Eigen::Block<Eigen::Matrix<double,-1,-1,0,-1,-1>,-1,1,1> >::const_cast_derived
PUBLIC	?outerSize@?$DenseBase@V?$CwiseBinaryOp@U?$scalar_conj_product_op@NN@internal@Eigen@@$$CBV?$Transpose@$$CBV?$Block@$$CBV?$Matrix@N$0?0$0?0$0A@$0?0$0?0@Eigen@@$00$0?0$0A@@Eigen@@@3@$$CBV?$Block@$$CBV?$Matrix@N$0?0$00$0A@$0?0$00@Eigen@@$0?0$00$00@3@@Eigen@@@Eigen@@QEBA_JXZ ; Eigen::DenseBase<Eigen::CwiseBinaryOp<Eigen::internal::scalar_conj_product_op<double,double>,Eigen::Transpose<Eigen::Block<Eigen::Matrix<double,-1,-1,0,-1,-1> const ,1,-1,0> const > const ,Eigen::Block<Eigen::Matrix<double,-1,1,0,-1,1> const ,-1,1,1> const > >::outerSize
PUBLIC	?innerSize@?$DenseBase@V?$CwiseBinaryOp@U?$scalar_conj_product_op@NN@internal@Eigen@@$$CBV?$Transpose@$$CBV?$Block@$$CBV?$Matrix@N$0?0$0?0$0A@$0?0$0?0@Eigen@@$00$0?0$0A@@Eigen@@@3@$$CBV?$Block@$$CBV?$Matrix@N$0?0$00$0A@$0?0$00@Eigen@@$0?0$00$00@3@@Eigen@@@Eigen@@QEBA_JXZ ; Eigen::DenseBase<Eigen::CwiseBinaryOp<Eigen::internal::scalar_conj_product_op<double,double>,Eigen::Transpose<Eigen::Block<Eigen::Matrix<double,-1,-1,0,-1,-1> const ,1,-1,0> const > const ,Eigen::Block<Eigen::Matrix<double,-1,1,0,-1,1> const ,-1,1,1> const > >::innerSize
PUBLIC	?coeffByOuterInner@?$redux_evaluator@V?$CwiseBinaryOp@U?$scalar_conj_product_op@NN@internal@Eigen@@$$CBV?$Transpose@$$CBV?$Block@$$CBV?$Matrix@N$0?0$0?0$0A@$0?0$0?0@Eigen@@$00$0?0$0A@@Eigen@@@3@$$CBV?$Block@$$CBV?$Matrix@N$0?0$00$0A@$0?0$00@Eigen@@$0?0$00$00@3@@Eigen@@@internal@Eigen@@QEBAN_J0@Z ; Eigen::internal::redux_evaluator<Eigen::CwiseBinaryOp<Eigen::internal::scalar_conj_product_op<double,double>,Eigen::Transpose<Eigen::Block<Eigen::Matrix<double,-1,-1,0,-1,-1> const ,1,-1,0> const > const ,Eigen::Block<Eigen::Matrix<double,-1,1,0,-1,1> const ,-1,1,1> const > >::coeffByOuterInner
PUBLIC	?run@?$Assignment@V?$Matrix@N$0?0$0?0$0A@$0?0$0?0@Eigen@@V?$CwiseNullaryOp@U?$scalar_constant_op@N@internal@Eigen@@V?$Matrix@N$0?0$0?0$0A@$0?0$0?0@3@@2@U?$assign_op@NN@internal@2@UDense2Dense@52@X@internal@Eigen@@SAXAEAV?$Matrix@N$0?0$0?0$0A@$0?0$0?0@3@AEBV?$CwiseNullaryOp@U?$scalar_constant_op@N@internal@Eigen@@V?$Matrix@N$0?0$0?0$0A@$0?0$0?0@3@@3@AEBU?$assign_op@NN@23@@Z ; Eigen::internal::Assignment<Eigen::Matrix<double,-1,-1,0,-1,-1>,Eigen::CwiseNullaryOp<Eigen::internal::scalar_constant_op<double>,Eigen::Matrix<double,-1,-1,0,-1,-1> >,Eigen::internal::assign_op<double,double>,Eigen::internal::Dense2Dense,void>::run
PUBLIC	?run@?$Assignment@V?$Map@V?$Matrix@N$0?0$00$0A@$0?0$00@Eigen@@$03V?$Stride@$0A@$0A@@2@@Eigen@@V?$Block@V?$Matrix@N$0?0$0?0$0A@$0?0$0?0@Eigen@@$0?0$00$00@2@U?$assign_op@NN@internal@2@UDense2Dense@52@X@internal@Eigen@@SAXAEAV?$Map@V?$Matrix@N$0?0$00$0A@$0?0$00@Eigen@@$03V?$Stride@$0A@$0A@@2@@3@AEBV?$Block@V?$Matrix@N$0?0$0?0$0A@$0?0$0?0@Eigen@@$0?0$00$00@3@AEBU?$assign_op@NN@23@@Z ; Eigen::internal::Assignment<Eigen::Map<Eigen::Matrix<double,-1,1,0,-1,1>,4,Eigen::Stride<0,0> >,Eigen::Block<Eigen::Matrix<double,-1,-1,0,-1,-1>,-1,1,1>,Eigen::internal::assign_op<double,double>,Eigen::internal::Dense2Dense,void>::run
PUBLIC	?run@?$Assignment@V?$Block@V?$Matrix@N$0?0$0?0$0A@$0?0$0?0@Eigen@@$0?0$00$00@Eigen@@V?$Map@V?$Matrix@N$0?0$00$0A@$0?0$00@Eigen@@$03V?$Stride@$0A@$0A@@2@@2@U?$assign_op@NN@internal@2@UDense2Dense@52@X@internal@Eigen@@SAXAEAV?$Block@V?$Matrix@N$0?0$0?0$0A@$0?0$0?0@Eigen@@$0?0$00$00@3@AEBV?$Map@V?$Matrix@N$0?0$00$0A@$0?0$00@Eigen@@$03V?$Stride@$0A@$0A@@2@@3@AEBU?$assign_op@NN@23@@Z ; Eigen::internal::Assignment<Eigen::Block<Eigen::Matrix<double,-1,-1,0,-1,-1>,-1,1,1>,Eigen::Map<Eigen::Matrix<double,-1,1,0,-1,1>,4,Eigen::Stride<0,0> >,Eigen::internal::assign_op<double,double>,Eigen::internal::Dense2Dense,void>::run
PUBLIC	?run@?$Assignment@V?$Matrix@N$0?0$00$0A@$0?0$00@Eigen@@V?$CwiseBinaryOp@U?$scalar_product_op@NN@internal@Eigen@@$$CBV?$CwiseNullaryOp@U?$scalar_constant_op@N@internal@Eigen@@$$CBV?$Matrix@N$0?0$00$0A@$0?0$00@3@@3@$$CBV?$Map@V?$Matrix@N$0?0$00$0A@$0?0$00@Eigen@@$03V?$Stride@$0A@$0A@@2@@3@@2@U?$add_assign_op@NN@internal@2@UDense2Dense@52@X@internal@Eigen@@SAXAEAV?$Matrix@N$0?0$00$0A@$0?0$00@3@AEBV?$CwiseBinaryOp@U?$scalar_product_op@NN@internal@Eigen@@$$CBV?$CwiseNullaryOp@U?$scalar_constant_op@N@internal@Eigen@@$$CBV?$Matrix@N$0?0$00$0A@$0?0$00@3@@3@$$CBV?$Map@V?$Matrix@N$0?0$00$0A@$0?0$00@Eigen@@$03V?$Stride@$0A@$0A@@2@@3@@3@AEBU?$add_assign_op@NN@23@@Z ; Eigen::internal::Assignment<Eigen::Matrix<double,-1,1,0,-1,1>,Eigen::CwiseBinaryOp<Eigen::internal::scalar_product_op<double,double>,Eigen::CwiseNullaryOp<Eigen::internal::scalar_constant_op<double>,Eigen::Matrix<double,-1,1,0,-1,1> const > const ,Eigen::Map<Eigen::Matrix<double,-1,1,0,-1,1>,4,Eigen::Stride<0,0> > const >,Eigen::internal::add_assign_op<double,double>,Eigen::internal::Dense2Dense,void>::run
PUBLIC	?run@?$checkTransposeAliasing_impl@V?$Block@V?$Matrix@N$0?0$0?0$0A@$0?0$0?0@Eigen@@$0?0$00$00@Eigen@@V?$CwiseBinaryOp@U?$scalar_product_op@NN@internal@Eigen@@$$CBV?$CwiseNullaryOp@U?$scalar_constant_op@N@internal@Eigen@@$$CBV?$Matrix@N$0?0$00$0A@$0?0$00@3@@3@$$CBV?$Map@V?$Matrix@N$0?0$00$0A@$0?0$00@Eigen@@$03V?$Stride@$0A@$0A@@2@@3@@2@$0A@@internal@Eigen@@SAXAEBV?$Block@V?$Matrix@N$0?0$0?0$0A@$0?0$0?0@Eigen@@$0?0$00$00@3@AEBV?$CwiseBinaryOp@U?$scalar_product_op@NN@internal@Eigen@@$$CBV?$CwiseNullaryOp@U?$scalar_constant_op@N@internal@Eigen@@$$CBV?$Matrix@N$0?0$00$0A@$0?0$00@3@@3@$$CBV?$Map@V?$Matrix@N$0?0$00$0A@$0?0$00@Eigen@@$03V?$Stride@$0A@$0A@@2@@3@@3@@Z ; Eigen::internal::checkTransposeAliasing_impl<Eigen::Block<Eigen::Matrix<double,-1,-1,0,-1,-1>,-1,1,1>,Eigen::CwiseBinaryOp<Eigen::internal::scalar_product_op<double,double>,Eigen::CwiseNullaryOp<Eigen::internal::scalar_constant_op<double>,Eigen::Matrix<double,-1,1,0,-1,1> const > const ,Eigen::Map<Eigen::Matrix<double,-1,1,0,-1,1>,4,Eigen::Stride<0,0> > const >,0>::run
PUBLIC	??1?$evaluator_base@V?$CwiseBinaryOp@U?$scalar_product_op@NN@internal@Eigen@@$$CBV?$CwiseNullaryOp@U?$scalar_constant_op@N@internal@Eigen@@$$CBV?$Matrix@N$0?0$00$0A@$0?0$00@3@@3@$$CBV?$Map@V?$Matrix@N$0?0$00$0A@$0?0$00@Eigen@@$03V?$Stride@$0A@$0A@@2@@3@@Eigen@@@internal@Eigen@@QEAA@XZ ; Eigen::internal::evaluator_base<Eigen::CwiseBinaryOp<Eigen::internal::scalar_product_op<double,double>,Eigen::CwiseNullaryOp<Eigen::internal::scalar_constant_op<double>,Eigen::Matrix<double,-1,1,0,-1,1> const > const ,Eigen::Map<Eigen::Matrix<double,-1,1,0,-1,1>,4,Eigen::Stride<0,0> > const > >::~evaluator_base<Eigen::CwiseBinaryOp<Eigen::internal::scalar_product_op<double,double>,Eigen::CwiseNullaryOp<Eigen::internal::scalar_constant_op<double>,Eigen::Matrix<double,-1,1,0,-1,1> const > const ,Eigen::Map<Eigen::Matrix<double,-1,1,0,-1,1>,4,Eigen::Stride<0,0> > const > >
PUBLIC	??1?$evaluator_base@V?$CwiseNullaryOp@U?$scalar_constant_op@N@internal@Eigen@@$$CBV?$Matrix@N$0?0$00$0A@$0?0$00@3@@Eigen@@@internal@Eigen@@QEAA@XZ ; Eigen::internal::evaluator_base<Eigen::CwiseNullaryOp<Eigen::internal::scalar_constant_op<double>,Eigen::Matrix<double,-1,1,0,-1,1> const > >::~evaluator_base<Eigen::CwiseNullaryOp<Eigen::internal::scalar_constant_op<double>,Eigen::Matrix<double,-1,1,0,-1,1> const > >
PUBLIC	??1?$evaluator_base@V?$Map@V?$Matrix@N$0?0$00$0A@$0?0$00@Eigen@@$03V?$Stride@$0A@$0A@@2@@Eigen@@@internal@Eigen@@QEAA@XZ ; Eigen::internal::evaluator_base<Eigen::Map<Eigen::Matrix<double,-1,1,0,-1,1>,4,Eigen::Stride<0,0> > >::~evaluator_base<Eigen::Map<Eigen::Matrix<double,-1,1,0,-1,1>,4,Eigen::Stride<0,0> > >
PUBLIC	??0?$evaluator@V?$CwiseBinaryOp@U?$scalar_product_op@NN@internal@Eigen@@$$CBV?$CwiseNullaryOp@U?$scalar_constant_op@N@internal@Eigen@@$$CBV?$Matrix@N$0?0$00$0A@$0?0$00@3@@3@$$CBV?$Map@V?$Matrix@N$0?0$00$0A@$0?0$00@Eigen@@$03V?$Stride@$0A@$0A@@2@@3@@Eigen@@@internal@Eigen@@QEAA@AEBV?$CwiseBinaryOp@U?$scalar_product_op@NN@internal@Eigen@@$$CBV?$CwiseNullaryOp@U?$scalar_constant_op@N@internal@Eigen@@$$CBV?$Matrix@N$0?0$00$0A@$0?0$00@3@@3@$$CBV?$Map@V?$Matrix@N$0?0$00$0A@$0?0$00@Eigen@@$03V?$Stride@$0A@$0A@@2@@3@@2@@Z ; Eigen::internal::evaluator<Eigen::CwiseBinaryOp<Eigen::internal::scalar_product_op<double,double>,Eigen::CwiseNullaryOp<Eigen::internal::scalar_constant_op<double>,Eigen::Matrix<double,-1,1,0,-1,1> const > const ,Eigen::Map<Eigen::Matrix<double,-1,1,0,-1,1>,4,Eigen::Stride<0,0> > const > >::evaluator<Eigen::CwiseBinaryOp<Eigen::internal::scalar_product_op<double,double>,Eigen::CwiseNullaryOp<Eigen::internal::scalar_constant_op<double>,Eigen::Matrix<double,-1,1,0,-1,1> const > const ,Eigen::Map<Eigen::Matrix<double,-1,1,0,-1,1>,4,Eigen::Stride<0,0> > const > >
PUBLIC	??1?$evaluator_base@V?$Block@V?$Matrix@N$0?0$0?0$0A@$0?0$0?0@Eigen@@$0?0$00$00@Eigen@@@internal@Eigen@@QEAA@XZ ; Eigen::internal::evaluator_base<Eigen::Block<Eigen::Matrix<double,-1,-1,0,-1,-1>,-1,1,1> >::~evaluator_base<Eigen::Block<Eigen::Matrix<double,-1,-1,0,-1,-1>,-1,1,1> >
PUBLIC	??0?$evaluator@V?$Block@V?$Matrix@N$0?0$0?0$0A@$0?0$0?0@Eigen@@$0?0$00$00@Eigen@@@internal@Eigen@@QEAA@AEBV?$Block@V?$Matrix@N$0?0$0?0$0A@$0?0$0?0@Eigen@@$0?0$00$00@2@@Z ; Eigen::internal::evaluator<Eigen::Block<Eigen::Matrix<double,-1,-1,0,-1,-1>,-1,1,1> >::evaluator<Eigen::Block<Eigen::Matrix<double,-1,-1,0,-1,-1>,-1,1,1> >
PUBLIC	??0?$generic_dense_assignment_kernel@U?$evaluator@V?$Block@V?$Matrix@N$0?0$0?0$0A@$0?0$0?0@Eigen@@$0?0$00$00@Eigen@@@internal@Eigen@@U?$evaluator@V?$CwiseBinaryOp@U?$scalar_product_op@NN@internal@Eigen@@$$CBV?$CwiseNullaryOp@U?$scalar_constant_op@N@internal@Eigen@@$$CBV?$Matrix@N$0?0$00$0A@$0?0$00@3@@3@$$CBV?$Map@V?$Matrix@N$0?0$00$0A@$0?0$00@Eigen@@$03V?$Stride@$0A@$0A@@2@@3@@Eigen@@@23@U?$add_assign_op@NN@23@$0A@@internal@Eigen@@QEAA@AEAU?$evaluator@V?$Block@V?$Matrix@N$0?0$0?0$0A@$0?0$0?0@Eigen@@$0?0$00$00@Eigen@@@12@AEBU?$evaluator@V?$CwiseBinaryOp@U?$scalar_product_op@NN@internal@Eigen@@$$CBV?$CwiseNullaryOp@U?$scalar_constant_op@N@internal@Eigen@@$$CBV?$Matrix@N$0?0$00$0A@$0?0$00@3@@3@$$CBV?$Map@V?$Matrix@N$0?0$00$0A@$0?0$00@Eigen@@$03V?$Stride@$0A@$0A@@2@@3@@Eigen@@@12@AEBU?$add_assign_op@NN@12@AEAV?$Block@V?$Matrix@N$0?0$0?0$0A@$0?0$0?0@Eigen@@$0?0$00$00@2@@Z ; Eigen::internal::generic_dense_assignment_kernel<Eigen::internal::evaluator<Eigen::Block<Eigen::Matrix<double,-1,-1,0,-1,-1>,-1,1,1> >,Eigen::internal::evaluator<Eigen::CwiseBinaryOp<Eigen::internal::scalar_product_op<double,double>,Eigen::CwiseNullaryOp<Eigen::internal::scalar_constant_op<double>,Eigen::Matrix<double,-1,1,0,-1,1> const > const ,Eigen::Map<Eigen::Matrix<double,-1,1,0,-1,1>,4,Eigen::Stride<0,0> > const > >,Eigen::internal::add_assign_op<double,double>,0>::generic_dense_assignment_kernel<Eigen::internal::evaluator<Eigen::Block<Eigen::Matrix<double,-1,-1,0,-1,-1>,-1,1,1> >,Eigen::internal::evaluator<Eigen::CwiseBinaryOp<Eigen::internal::scalar_product_op<double,double>,Eigen::CwiseNullaryOp<Eigen::internal::scalar_constant_op<double>,Eigen::Matrix<double,-1,1,0,-1,1> const > const ,Eigen::Map<Eigen::Matrix<double,-1,1,0,-1,1>,4,Eigen::Stride<0,0> > const > >,Eigen::internal::add_assign_op<double,double>,0>
PUBLIC	?run@?$dense_assignment_loop@V?$generic_dense_assignment_kernel@U?$evaluator@V?$Block@V?$Matrix@N$0?0$0?0$0A@$0?0$0?0@Eigen@@$0?0$00$00@Eigen@@@internal@Eigen@@U?$evaluator@V?$CwiseBinaryOp@U?$scalar_product_op@NN@internal@Eigen@@$$CBV?$CwiseNullaryOp@U?$scalar_constant_op@N@internal@Eigen@@$$CBV?$Matrix@N$0?0$00$0A@$0?0$00@3@@3@$$CBV?$Map@V?$Matrix@N$0?0$00$0A@$0?0$00@Eigen@@$03V?$Stride@$0A@$0A@@2@@3@@Eigen@@@23@U?$add_assign_op@NN@23@$0A@@internal@Eigen@@$02$0A@@internal@Eigen@@SAXAEAV?$generic_dense_assignment_kernel@U?$evaluator@V?$Block@V?$Matrix@N$0?0$0?0$0A@$0?0$0?0@Eigen@@$0?0$00$00@Eigen@@@internal@Eigen@@U?$evaluator@V?$CwiseBinaryOp@U?$scalar_product_op@NN@internal@Eigen@@$$CBV?$CwiseNullaryOp@U?$scalar_constant_op@N@internal@Eigen@@$$CBV?$Matrix@N$0?0$00$0A@$0?0$00@3@@3@$$CBV?$Map@V?$Matrix@N$0?0$00$0A@$0?0$00@Eigen@@$03V?$Stride@$0A@$0A@@2@@3@@Eigen@@@23@U?$add_assign_op@NN@23@$0A@@23@@Z ; Eigen::internal::dense_assignment_loop<Eigen::internal::generic_dense_assignment_kernel<Eigen::internal::evaluator<Eigen::Block<Eigen::Matrix<double,-1,-1,0,-1,-1>,-1,1,1> >,Eigen::internal::evaluator<Eigen::CwiseBinaryOp<Eigen::internal::scalar_product_op<double,double>,Eigen::CwiseNullaryOp<Eigen::internal::scalar_constant_op<double>,Eigen::Matrix<double,-1,1,0,-1,1> const > const ,Eigen::Map<Eigen::Matrix<double,-1,1,0,-1,1>,4,Eigen::Stride<0,0> > const > >,Eigen::internal::add_assign_op<double,double>,0>,3,0>::run
PUBLIC	??1?$mapbase_evaluator@V?$Block@V?$Matrix@N$0?0$0?0$0A@$0?0$0?0@Eigen@@$0?0$00$00@Eigen@@V?$Matrix@N$0?0$00$0A@$0?0$00@2@@internal@Eigen@@QEAA@XZ ; Eigen::internal::mapbase_evaluator<Eigen::Block<Eigen::Matrix<double,-1,-1,0,-1,-1>,-1,1,1>,Eigen::Matrix<double,-1,1,0,-1,1> >::~mapbase_evaluator<Eigen::Block<Eigen::Matrix<double,-1,-1,0,-1,-1>,-1,1,1>,Eigen::Matrix<double,-1,1,0,-1,1> >
PUBLIC	??1?$block_evaluator@V?$Matrix@N$0?0$0?0$0A@$0?0$0?0@Eigen@@$0?0$00$00$00@internal@Eigen@@QEAA@XZ ; Eigen::internal::block_evaluator<Eigen::Matrix<double,-1,-1,0,-1,-1>,-1,1,1,1>::~block_evaluator<Eigen::Matrix<double,-1,-1,0,-1,-1>,-1,1,1,1>
PUBLIC	??1?$evaluator@V?$Block@V?$Matrix@N$0?0$0?0$0A@$0?0$0?0@Eigen@@$0?0$00$00@Eigen@@@internal@Eigen@@QEAA@XZ ; Eigen::internal::evaluator<Eigen::Block<Eigen::Matrix<double,-1,-1,0,-1,-1>,-1,1,1> >::~evaluator<Eigen::Block<Eigen::Matrix<double,-1,-1,0,-1,-1>,-1,1,1> >
PUBLIC	??1?$mapbase_evaluator@V?$Map@V?$Matrix@N$0?0$00$0A@$0?0$00@Eigen@@$03V?$Stride@$0A@$0A@@2@@Eigen@@V?$Matrix@N$0?0$00$0A@$0?0$00@2@@internal@Eigen@@QEAA@XZ ; Eigen::internal::mapbase_evaluator<Eigen::Map<Eigen::Matrix<double,-1,1,0,-1,1>,4,Eigen::Stride<0,0> >,Eigen::Matrix<double,-1,1,0,-1,1> >::~mapbase_evaluator<Eigen::Map<Eigen::Matrix<double,-1,1,0,-1,1>,4,Eigen::Stride<0,0> >,Eigen::Matrix<double,-1,1,0,-1,1> >
PUBLIC	??1?$evaluator@V?$Map@V?$Matrix@N$0?0$00$0A@$0?0$00@Eigen@@$03V?$Stride@$0A@$0A@@2@@Eigen@@@internal@Eigen@@QEAA@XZ ; Eigen::internal::evaluator<Eigen::Map<Eigen::Matrix<double,-1,1,0,-1,1>,4,Eigen::Stride<0,0> > >::~evaluator<Eigen::Map<Eigen::Matrix<double,-1,1,0,-1,1>,4,Eigen::Stride<0,0> > >
PUBLIC	??1?$evaluator@$$CBV?$Map@V?$Matrix@N$0?0$00$0A@$0?0$00@Eigen@@$03V?$Stride@$0A@$0A@@2@@Eigen@@@internal@Eigen@@QEAA@XZ ; Eigen::internal::evaluator<Eigen::Map<Eigen::Matrix<double,-1,1,0,-1,1>,4,Eigen::Stride<0,0> > const >::~evaluator<Eigen::Map<Eigen::Matrix<double,-1,1,0,-1,1>,4,Eigen::Stride<0,0> > const >
PUBLIC	??1?$evaluator@V?$CwiseNullaryOp@U?$scalar_constant_op@N@internal@Eigen@@$$CBV?$Matrix@N$0?0$00$0A@$0?0$00@3@@Eigen@@@internal@Eigen@@QEAA@XZ ; Eigen::internal::evaluator<Eigen::CwiseNullaryOp<Eigen::internal::scalar_constant_op<double>,Eigen::Matrix<double,-1,1,0,-1,1> const > >::~evaluator<Eigen::CwiseNullaryOp<Eigen::internal::scalar_constant_op<double>,Eigen::Matrix<double,-1,1,0,-1,1> const > >
PUBLIC	??1?$evaluator@$$CBV?$CwiseNullaryOp@U?$scalar_constant_op@N@internal@Eigen@@$$CBV?$Matrix@N$0?0$00$0A@$0?0$00@3@@Eigen@@@internal@Eigen@@QEAA@XZ ; Eigen::internal::evaluator<Eigen::CwiseNullaryOp<Eigen::internal::scalar_constant_op<double>,Eigen::Matrix<double,-1,1,0,-1,1> const > const >::~evaluator<Eigen::CwiseNullaryOp<Eigen::internal::scalar_constant_op<double>,Eigen::Matrix<double,-1,1,0,-1,1> const > const >
PUBLIC	??1Data@?$binary_evaluator@V?$CwiseBinaryOp@U?$scalar_product_op@NN@internal@Eigen@@$$CBV?$CwiseNullaryOp@U?$scalar_constant_op@N@internal@Eigen@@$$CBV?$Matrix@N$0?0$00$0A@$0?0$00@3@@3@$$CBV?$Map@V?$Matrix@N$0?0$00$0A@$0?0$00@Eigen@@$03V?$Stride@$0A@$0A@@2@@3@@Eigen@@UIndexBased@internal@2@U342@NN@internal@Eigen@@QEAA@XZ ; Eigen::internal::binary_evaluator<Eigen::CwiseBinaryOp<Eigen::internal::scalar_product_op<double,double>,Eigen::CwiseNullaryOp<Eigen::internal::scalar_constant_op<double>,Eigen::Matrix<double,-1,1,0,-1,1> const > const ,Eigen::Map<Eigen::Matrix<double,-1,1,0,-1,1>,4,Eigen::Stride<0,0> > const >,Eigen::internal::IndexBased,Eigen::internal::IndexBased,double,double>::Data::~Data
PUBLIC	??1?$binary_evaluator@V?$CwiseBinaryOp@U?$scalar_product_op@NN@internal@Eigen@@$$CBV?$CwiseNullaryOp@U?$scalar_constant_op@N@internal@Eigen@@$$CBV?$Matrix@N$0?0$00$0A@$0?0$00@3@@3@$$CBV?$Map@V?$Matrix@N$0?0$00$0A@$0?0$00@Eigen@@$03V?$Stride@$0A@$0A@@2@@3@@Eigen@@UIndexBased@internal@2@U342@NN@internal@Eigen@@QEAA@XZ ; Eigen::internal::binary_evaluator<Eigen::CwiseBinaryOp<Eigen::internal::scalar_product_op<double,double>,Eigen::CwiseNullaryOp<Eigen::internal::scalar_constant_op<double>,Eigen::Matrix<double,-1,1,0,-1,1> const > const ,Eigen::Map<Eigen::Matrix<double,-1,1,0,-1,1>,4,Eigen::Stride<0,0> > const >,Eigen::internal::IndexBased,Eigen::internal::IndexBased,double,double>::~binary_evaluator<Eigen::CwiseBinaryOp<Eigen::internal::scalar_product_op<double,double>,Eigen::CwiseNullaryOp<Eigen::internal::scalar_constant_op<double>,Eigen::Matrix<double,-1,1,0,-1,1> const > const ,Eigen::Map<Eigen::Matrix<double,-1,1,0,-1,1>,4,Eigen::Stride<0,0> > const >,Eigen::internal::IndexBased,Eigen::internal::IndexBased,double,double>
PUBLIC	??1?$evaluator@V?$CwiseBinaryOp@U?$scalar_product_op@NN@internal@Eigen@@$$CBV?$CwiseNullaryOp@U?$scalar_constant_op@N@internal@Eigen@@$$CBV?$Matrix@N$0?0$00$0A@$0?0$00@3@@3@$$CBV?$Map@V?$Matrix@N$0?0$00$0A@$0?0$00@Eigen@@$03V?$Stride@$0A@$0A@@2@@3@@Eigen@@@internal@Eigen@@QEAA@XZ ; Eigen::internal::evaluator<Eigen::CwiseBinaryOp<Eigen::internal::scalar_product_op<double,double>,Eigen::CwiseNullaryOp<Eigen::internal::scalar_constant_op<double>,Eigen::Matrix<double,-1,1,0,-1,1> const > const ,Eigen::Map<Eigen::Matrix<double,-1,1,0,-1,1>,4,Eigen::Stride<0,0> > const > >::~evaluator<Eigen::CwiseBinaryOp<Eigen::internal::scalar_product_op<double,double>,Eigen::CwiseNullaryOp<Eigen::internal::scalar_constant_op<double>,Eigen::Matrix<double,-1,1,0,-1,1> const > const ,Eigen::Map<Eigen::Matrix<double,-1,1,0,-1,1>,4,Eigen::Stride<0,0> > const > >
PUBLIC	??$call_dense_assignment_loop@V?$Block@V?$Matrix@N$0?0$0?0$0A@$0?0$0?0@Eigen@@$0?0$00$00@Eigen@@V?$CwiseBinaryOp@U?$scalar_product_op@NN@internal@Eigen@@$$CBV?$CwiseNullaryOp@U?$scalar_constant_op@N@internal@Eigen@@$$CBV?$Matrix@N$0?0$00$0A@$0?0$00@3@@3@$$CBV?$Map@V?$Matrix@N$0?0$00$0A@$0?0$00@Eigen@@$03V?$Stride@$0A@$0A@@2@@3@@2@U?$add_assign_op@NN@internal@2@@internal@Eigen@@YAXAEAV?$Block@V?$Matrix@N$0?0$0?0$0A@$0?0$0?0@Eigen@@$0?0$00$00@1@AEBV?$CwiseBinaryOp@U?$scalar_product_op@NN@internal@Eigen@@$$CBV?$CwiseNullaryOp@U?$scalar_constant_op@N@internal@Eigen@@$$CBV?$Matrix@N$0?0$00$0A@$0?0$00@3@@3@$$CBV?$Map@V?$Matrix@N$0?0$00$0A@$0?0$00@Eigen@@$03V?$Stride@$0A@$0A@@2@@3@@1@AEBU?$add_assign_op@NN@01@@Z ; Eigen::internal::call_dense_assignment_loop<Eigen::Block<Eigen::Matrix<double,-1,-1,0,-1,-1>,-1,1,1>,Eigen::CwiseBinaryOp<Eigen::internal::scalar_product_op<double,double>,Eigen::CwiseNullaryOp<Eigen::internal::scalar_constant_op<double>,Eigen::Matrix<double,-1,1,0,-1,1> const > const ,Eigen::Map<Eigen::Matrix<double,-1,1,0,-1,1>,4,Eigen::Stride<0,0> > const >,Eigen::internal::add_assign_op<double,double> >
PUBLIC	??$check_for_aliasing@V?$Block@V?$Matrix@N$0?0$0?0$0A@$0?0$0?0@Eigen@@$0?0$00$00@Eigen@@V?$CwiseBinaryOp@U?$scalar_product_op@NN@internal@Eigen@@$$CBV?$CwiseNullaryOp@U?$scalar_constant_op@N@internal@Eigen@@$$CBV?$Matrix@N$0?0$00$0A@$0?0$00@3@@3@$$CBV?$Map@V?$Matrix@N$0?0$00$0A@$0?0$00@Eigen@@$03V?$Stride@$0A@$0A@@2@@3@@2@@internal@Eigen@@YAXAEBV?$Block@V?$Matrix@N$0?0$0?0$0A@$0?0$0?0@Eigen@@$0?0$00$00@1@AEBV?$CwiseBinaryOp@U?$scalar_product_op@NN@internal@Eigen@@$$CBV?$CwiseNullaryOp@U?$scalar_constant_op@N@internal@Eigen@@$$CBV?$Matrix@N$0?0$00$0A@$0?0$00@3@@3@$$CBV?$Map@V?$Matrix@N$0?0$00$0A@$0?0$00@Eigen@@$03V?$Stride@$0A@$0A@@2@@3@@1@@Z ; Eigen::internal::check_for_aliasing<Eigen::Block<Eigen::Matrix<double,-1,-1,0,-1,-1>,-1,1,1>,Eigen::CwiseBinaryOp<Eigen::internal::scalar_product_op<double,double>,Eigen::CwiseNullaryOp<Eigen::internal::scalar_constant_op<double>,Eigen::Matrix<double,-1,1,0,-1,1> const > const ,Eigen::Map<Eigen::Matrix<double,-1,1,0,-1,1>,4,Eigen::Stride<0,0> > const > >
PUBLIC	??$packet@$0A@U__m256d@@@?$evaluator@V?$PlainObjectBase@V?$Matrix@N$0?0$0?0$0A@$0?0$0?0@Eigen@@@Eigen@@@internal@Eigen@@QEBA?AU__m256d@@_J0@Z ; Eigen::internal::evaluator<Eigen::PlainObjectBase<Eigen::Matrix<double,-1,-1,0,-1,-1> > >::packet<0,__m256d>
PUBLIC	??$run@V?$CwiseBinaryOp@U?$scalar_conj_product_op@NN@internal@Eigen@@$$CBV?$Transpose@$$CBV?$Block@$$CBV?$Matrix@N$0?0$0?0$0A@$0?0$0?0@Eigen@@$00$0?0$0A@@Eigen@@@3@$$CBV?$Block@$$CBV?$Matrix@N$0?0$00$0A@$0?0$00@Eigen@@$0?0$00$00@3@@Eigen@@@?$redux_impl@U?$scalar_sum_op@NN@internal@Eigen@@V?$redux_evaluator@V?$CwiseBinaryOp@U?$scalar_conj_product_op@NN@internal@Eigen@@$$CBV?$Transpose@$$CBV?$Block@$$CBV?$Matrix@N$0?0$0?0$0A@$0?0$0?0@Eigen@@$00$0?0$0A@@Eigen@@@3@$$CBV?$Block@$$CBV?$Matrix@N$0?0$00$0A@$0?0$00@Eigen@@$0?0$00$00@3@@Eigen@@@23@$0A@$0A@@internal@Eigen@@SANAEBV?$redux_evaluator@V?$CwiseBinaryOp@U?$scalar_conj_product_op@NN@internal@Eigen@@$$CBV?$Transpose@$$CBV?$Block@$$CBV?$Matrix@N$0?0$0?0$0A@$0?0$0?0@Eigen@@$00$0?0$0A@@Eigen@@@3@$$CBV?$Block@$$CBV?$Matrix@N$0?0$00$0A@$0?0$00@Eigen@@$0?0$00$00@3@@Eigen@@@12@AEBU?$scalar_sum_op@NN@12@AEBV?$CwiseBinaryOp@U?$scalar_conj_product_op@NN@internal@Eigen@@$$CBV?$Transpose@$$CBV?$Block@$$CBV?$Matrix@N$0?0$0?0$0A@$0?0$0?0@Eigen@@$00$0?0$0A@@Eigen@@@3@$$CBV?$Block@$$CBV?$Matrix@N$0?0$00$0A@$0?0$00@Eigen@@$0?0$00$00@3@@2@@Z ; Eigen::internal::redux_impl<Eigen::internal::scalar_sum_op<double,double>,Eigen::internal::redux_evaluator<Eigen::CwiseBinaryOp<Eigen::internal::scalar_conj_product_op<double,double>,Eigen::Transpose<Eigen::Block<Eigen::Matrix<double,-1,-1,0,-1,-1> const ,1,-1,0> const > const ,Eigen::Block<Eigen::Matrix<double,-1,1,0,-1,1> const ,-1,1,1> const > >,0,0>::run<Eigen::CwiseBinaryOp<Eigen::internal::scalar_conj_product_op<double,double>,Eigen::Transpose<Eigen::Block<Eigen::Matrix<double,-1,-1,0,-1,-1> const ,1,-1,0> const > const ,Eigen::Block<Eigen::Matrix<double,-1,1,0,-1,1> const ,-1,1,1> const > >
PUBLIC	??$call_assignment@V?$Matrix@N$0?0$00$0A@$0?0$00@Eigen@@V?$Map@V?$Matrix@N$0?0$00$0A@$0?0$00@Eigen@@$03V?$Stride@$0A@$0A@@2@@2@@internal@Eigen@@YAXAEAV?$Matrix@N$0?0$00$0A@$0?0$00@1@AEBV?$Map@V?$Matrix@N$0?0$00$0A@$0?0$00@Eigen@@$03V?$Stride@$0A@$0A@@2@@1@@Z ; Eigen::internal::call_assignment<Eigen::Matrix<double,-1,1,0,-1,1>,Eigen::Map<Eigen::Matrix<double,-1,1,0,-1,1>,4,Eigen::Stride<0,0> > >
PUBLIC	??$call_assignment_no_alias@V?$Matrix@N$0?0$00$0A@$0?0$00@Eigen@@V?$CwiseBinaryOp@U?$scalar_product_op@NN@internal@Eigen@@$$CBV?$CwiseNullaryOp@U?$scalar_constant_op@N@internal@Eigen@@$$CBV?$Matrix@N$0?0$00$0A@$0?0$00@3@@3@$$CBV?$Map@V?$Matrix@N$0?0$00$0A@$0?0$00@Eigen@@$03V?$Stride@$0A@$0A@@2@@3@@2@U?$add_assign_op@NN@internal@2@@internal@Eigen@@YAXAEAV?$Matrix@N$0?0$00$0A@$0?0$00@1@AEBV?$CwiseBinaryOp@U?$scalar_product_op@NN@internal@Eigen@@$$CBV?$CwiseNullaryOp@U?$scalar_constant_op@N@internal@Eigen@@$$CBV?$Matrix@N$0?0$00$0A@$0?0$00@3@@3@$$CBV?$Map@V?$Matrix@N$0?0$00$0A@$0?0$00@Eigen@@$03V?$Stride@$0A@$0A@@2@@3@@1@AEBU?$add_assign_op@NN@01@@Z ; Eigen::internal::call_assignment_no_alias<Eigen::Matrix<double,-1,1,0,-1,1>,Eigen::CwiseBinaryOp<Eigen::internal::scalar_product_op<double,double>,Eigen::CwiseNullaryOp<Eigen::internal::scalar_constant_op<double>,Eigen::Matrix<double,-1,1,0,-1,1> const > const ,Eigen::Map<Eigen::Matrix<double,-1,1,0,-1,1>,4,Eigen::Stride<0,0> > const >,Eigen::internal::add_assign_op<double,double> >
PUBLIC	??$call_assignment@V?$Map@V?$Matrix@N$0?0$00$0A@$0?0$00@Eigen@@$03V?$Stride@$0A@$0A@@2@@Eigen@@V?$Matrix@N$0?0$00$0A@$0?0$00@2@U?$assign_op@NN@internal@2@@internal@Eigen@@YAXAEAV?$Map@V?$Matrix@N$0?0$00$0A@$0?0$00@Eigen@@$03V?$Stride@$0A@$0A@@2@@1@AEBV?$Matrix@N$0?0$00$0A@$0?0$00@1@AEBU?$assign_op@NN@01@PEAX@Z ; Eigen::internal::call_assignment<Eigen::Map<Eigen::Matrix<double,-1,1,0,-1,1>,4,Eigen::Stride<0,0> >,Eigen::Matrix<double,-1,1,0,-1,1>,Eigen::internal::assign_op<double,double> >
PUBLIC	??$call_assignment@V?$Map@V?$Matrix@N$0?0$00$0A@$0?0$00@Eigen@@$0A@V?$Stride@$0A@$0A@@2@@Eigen@@V?$Transpose@$$CBV?$Block@$$CBV?$Matrix@N$0?0$0?0$0A@$0?0$0?0@Eigen@@$00$0?0$0A@@Eigen@@@2@U?$assign_op@NN@internal@2@@internal@Eigen@@YAXAEAV?$Map@V?$Matrix@N$0?0$00$0A@$0?0$00@Eigen@@$0A@V?$Stride@$0A@$0A@@2@@1@AEBV?$Transpose@$$CBV?$Block@$$CBV?$Matrix@N$0?0$0?0$0A@$0?0$0?0@Eigen@@$00$0?0$0A@@Eigen@@@1@AEBU?$assign_op@NN@01@PEAX@Z ; Eigen::internal::call_assignment<Eigen::Map<Eigen::Matrix<double,-1,1,0,-1,1>,0,Eigen::Stride<0,0> >,Eigen::Transpose<Eigen::Block<Eigen::Matrix<double,-1,-1,0,-1,-1> const ,1,-1,0> const >,Eigen::internal::assign_op<double,double> >
PUBLIC	??$call_assignment_no_alias@V?$Block@V?$Matrix@N$0?0$0?0$0A@$0?0$0?0@Eigen@@$0?0$00$00@Eigen@@V?$Map@V?$Matrix@N$0?0$00$0A@$0?0$00@Eigen@@$03V?$Stride@$0A@$0A@@2@@2@U?$assign_op@NN@internal@2@@internal@Eigen@@YAXAEAV?$Block@V?$Matrix@N$0?0$0?0$0A@$0?0$0?0@Eigen@@$0?0$00$00@1@AEBV?$Map@V?$Matrix@N$0?0$00$0A@$0?0$00@Eigen@@$03V?$Stride@$0A@$0A@@2@@1@AEBU?$assign_op@NN@01@@Z ; Eigen::internal::call_assignment_no_alias<Eigen::Block<Eigen::Matrix<double,-1,-1,0,-1,-1>,-1,1,1>,Eigen::Map<Eigen::Matrix<double,-1,1,0,-1,1>,4,Eigen::Stride<0,0> >,Eigen::internal::assign_op<double,double> >
PUBLIC	??$call_assignment_no_alias@V?$Map@V?$Matrix@N$0?0$00$0A@$0?0$00@Eigen@@$03V?$Stride@$0A@$0A@@2@@Eigen@@V?$Block@V?$Matrix@N$0?0$0?0$0A@$0?0$0?0@Eigen@@$0?0$00$00@2@U?$assign_op@NN@internal@2@@internal@Eigen@@YAXAEAV?$Map@V?$Matrix@N$0?0$00$0A@$0?0$00@Eigen@@$03V?$Stride@$0A@$0A@@2@@1@AEBV?$Block@V?$Matrix@N$0?0$0?0$0A@$0?0$0?0@Eigen@@$0?0$00$00@1@AEBU?$assign_op@NN@01@@Z ; Eigen::internal::call_assignment_no_alias<Eigen::Map<Eigen::Matrix<double,-1,1,0,-1,1>,4,Eigen::Stride<0,0> >,Eigen::Block<Eigen::Matrix<double,-1,-1,0,-1,-1>,-1,1,1>,Eigen::internal::assign_op<double,double> >
PUBLIC	??$call_assignment_no_alias@V?$Matrix@N$0?0$0?0$0A@$0?0$0?0@Eigen@@V?$CwiseNullaryOp@U?$scalar_constant_op@N@internal@Eigen@@V?$Matrix@N$0?0$0?0$0A@$0?0$0?0@3@@2@U?$assign_op@NN@internal@2@@internal@Eigen@@YAXAEAV?$Matrix@N$0?0$0?0$0A@$0?0$0?0@1@AEBV?$CwiseNullaryOp@U?$scalar_constant_op@N@internal@Eigen@@V?$Matrix@N$0?0$0?0$0A@$0?0$0?0@3@@1@AEBU?$assign_op@NN@01@@Z ; Eigen::internal::call_assignment_no_alias<Eigen::Matrix<double,-1,-1,0,-1,-1>,Eigen::CwiseNullaryOp<Eigen::internal::scalar_constant_op<double>,Eigen::Matrix<double,-1,-1,0,-1,-1> >,Eigen::internal::assign_op<double,double> >
PUBLIC	??$call_assignment@V?$Matrix@N$0?0$00$0A@$0?0$00@Eigen@@V?$CwiseNullaryOp@U?$scalar_constant_op@N@internal@Eigen@@V?$Matrix@N$0?0$00$0A@$0?0$00@3@@2@U?$assign_op@NN@internal@2@@internal@Eigen@@YAXAEAV?$Matrix@N$0?0$00$0A@$0?0$00@1@AEBV?$CwiseNullaryOp@U?$scalar_constant_op@N@internal@Eigen@@V?$Matrix@N$0?0$00$0A@$0?0$00@3@@1@AEBU?$assign_op@NN@01@PEAX@Z ; Eigen::internal::call_assignment<Eigen::Matrix<double,-1,1,0,-1,1>,Eigen::CwiseNullaryOp<Eigen::internal::scalar_constant_op<double>,Eigen::Matrix<double,-1,1,0,-1,1> >,Eigen::internal::assign_op<double,double> >
PUBLIC	??$call_assignment@V?$Map@V?$Matrix@N$0?0$00$0A@$0?0$00@Eigen@@$03V?$Stride@$0A@$0A@@2@@Eigen@@V?$CwiseNullaryOp@U?$scalar_constant_op@N@internal@Eigen@@V?$Matrix@N$0?0$00$0A@$0?0$00@3@@2@@internal@Eigen@@YAXAEAV?$Map@V?$Matrix@N$0?0$00$0A@$0?0$00@Eigen@@$03V?$Stride@$0A@$0A@@2@@1@AEBV?$CwiseNullaryOp@U?$scalar_constant_op@N@internal@Eigen@@V?$Matrix@N$0?0$00$0A@$0?0$00@3@@1@@Z ; Eigen::internal::call_assignment<Eigen::Map<Eigen::Matrix<double,-1,1,0,-1,1>,4,Eigen::Stride<0,0> >,Eigen::CwiseNullaryOp<Eigen::internal::scalar_constant_op<double>,Eigen::Matrix<double,-1,1,0,-1,1> > >
PUBLIC	??$NullaryExpr@U?$scalar_constant_op@N@internal@Eigen@@@?$DenseBase@V?$Map@V?$Matrix@N$0?0$00$0A@$0?0$00@Eigen@@$03V?$Stride@$0A@$0A@@2@@Eigen@@@Eigen@@SA?BV?$CwiseNullaryOp@U?$scalar_constant_op@N@internal@Eigen@@V?$Matrix@N$0?0$00$0A@$0?0$00@3@@1@_J0AEBU?$scalar_constant_op@N@internal@1@@Z ; Eigen::DenseBase<Eigen::Map<Eigen::Matrix<double,-1,1,0,-1,1>,4,Eigen::Stride<0,0> > >::NullaryExpr<Eigen::internal::scalar_constant_op<double> >
PUBLIC	?innerStride@?$BlockImpl_dense@$$CBV?$Matrix@N$0?0$00$0A@$0?0$00@Eigen@@$0?0$00$00$00@internal@Eigen@@QEBA_JXZ ; Eigen::internal::BlockImpl_dense<Eigen::Matrix<double,-1,1,0,-1,1> const ,-1,1,1,1>::innerStride
PUBLIC	?outerStride@?$BlockImpl_dense@$$CBV?$Matrix@N$0?0$00$0A@$0?0$00@Eigen@@$0?0$00$00$00@internal@Eigen@@QEBA_JXZ ; Eigen::internal::BlockImpl_dense<Eigen::Matrix<double,-1,1,0,-1,1> const ,-1,1,1,1>::outerStride
PUBLIC	??0?$evaluator_base@V?$Block@$$CBV?$Matrix@N$0?0$00$0A@$0?0$00@Eigen@@$0?0$00$00@Eigen@@@internal@Eigen@@QEAA@XZ ; Eigen::internal::evaluator_base<Eigen::Block<Eigen::Matrix<double,-1,1,0,-1,1> const ,-1,1,1> >::evaluator_base<Eigen::Block<Eigen::Matrix<double,-1,1,0,-1,1> const ,-1,1,1> >
PUBLIC	?data@?$MapBase@V?$Block@$$CBV?$Matrix@N$0?0$00$0A@$0?0$00@Eigen@@$0?0$00$00@Eigen@@$0A@@Eigen@@QEBAPEBNXZ ; Eigen::MapBase<Eigen::Block<Eigen::Matrix<double,-1,1,0,-1,1> const ,-1,1,1>,0>::data
PUBLIC	??0?$mapbase_evaluator@V?$Block@$$CBV?$Matrix@N$0?0$00$0A@$0?0$00@Eigen@@$0?0$00$00@Eigen@@V?$Matrix@N$0?0$00$0A@$0?0$00@2@@internal@Eigen@@QEAA@AEBV?$Block@$$CBV?$Matrix@N$0?0$00$0A@$0?0$00@Eigen@@$0?0$00$00@2@@Z ; Eigen::internal::mapbase_evaluator<Eigen::Block<Eigen::Matrix<double,-1,1,0,-1,1> const ,-1,1,1>,Eigen::Matrix<double,-1,1,0,-1,1> >::mapbase_evaluator<Eigen::Block<Eigen::Matrix<double,-1,1,0,-1,1> const ,-1,1,1>,Eigen::Matrix<double,-1,1,0,-1,1> >
PUBLIC	??0?$block_evaluator@$$CBV?$Matrix@N$0?0$00$0A@$0?0$00@Eigen@@$0?0$00$00$00@internal@Eigen@@QEAA@AEBV?$Block@$$CBV?$Matrix@N$0?0$00$0A@$0?0$00@Eigen@@$0?0$00$00@2@@Z ; Eigen::internal::block_evaluator<Eigen::Matrix<double,-1,1,0,-1,1> const ,-1,1,1,1>::block_evaluator<Eigen::Matrix<double,-1,1,0,-1,1> const ,-1,1,1,1>
PUBLIC	??0?$evaluator@V?$Block@$$CBV?$Matrix@N$0?0$00$0A@$0?0$00@Eigen@@$0?0$00$00@Eigen@@@internal@Eigen@@QEAA@AEBV?$Block@$$CBV?$Matrix@N$0?0$00$0A@$0?0$00@Eigen@@$0?0$00$00@2@@Z ; Eigen::internal::evaluator<Eigen::Block<Eigen::Matrix<double,-1,1,0,-1,1> const ,-1,1,1> >::evaluator<Eigen::Block<Eigen::Matrix<double,-1,1,0,-1,1> const ,-1,1,1> >
PUBLIC	?rowStride@?$mapbase_evaluator@V?$Block@$$CBV?$Matrix@N$0?0$0?0$0A@$0?0$0?0@Eigen@@$00$0?0$0A@@Eigen@@V?$Matrix@N$00$0?0$00$00$0?0@2@@internal@Eigen@@IEBA_JXZ ; Eigen::internal::mapbase_evaluator<Eigen::Block<Eigen::Matrix<double,-1,-1,0,-1,-1> const ,1,-1,0>,Eigen::Matrix<double,1,-1,1,1,-1> >::rowStride
PUBLIC	?colStride@?$mapbase_evaluator@V?$Block@$$CBV?$Matrix@N$0?0$0?0$0A@$0?0$0?0@Eigen@@$00$0?0$0A@@Eigen@@V?$Matrix@N$00$0?0$00$00$0?0@2@@internal@Eigen@@IEBA_JXZ ; Eigen::internal::mapbase_evaluator<Eigen::Block<Eigen::Matrix<double,-1,-1,0,-1,-1> const ,1,-1,0>,Eigen::Matrix<double,1,-1,1,1,-1> >::colStride
PUBLIC	?lhs@?$CwiseBinaryOp@U?$scalar_conj_product_op@NN@internal@Eigen@@$$CBV?$Transpose@$$CBV?$Block@$$CBV?$Matrix@N$0?0$0?0$0A@$0?0$0?0@Eigen@@$00$0?0$0A@@Eigen@@@3@$$CBV?$Block@$$CBV?$Matrix@N$0?0$00$0A@$0?0$00@Eigen@@$0?0$00$00@3@@Eigen@@QEBAAEBV?$Transpose@$$CBV?$Block@$$CBV?$Matrix@N$0?0$0?0$0A@$0?0$0?0@Eigen@@$00$0?0$0A@@Eigen@@@2@XZ ; Eigen::CwiseBinaryOp<Eigen::internal::scalar_conj_product_op<double,double>,Eigen::Transpose<Eigen::Block<Eigen::Matrix<double,-1,-1,0,-1,-1> const ,1,-1,0> const > const ,Eigen::Block<Eigen::Matrix<double,-1,1,0,-1,1> const ,-1,1,1> const >::lhs
PUBLIC	?rhs@?$CwiseBinaryOp@U?$scalar_conj_product_op@NN@internal@Eigen@@$$CBV?$Transpose@$$CBV?$Block@$$CBV?$Matrix@N$0?0$0?0$0A@$0?0$0?0@Eigen@@$00$0?0$0A@@Eigen@@@3@$$CBV?$Block@$$CBV?$Matrix@N$0?0$00$0A@$0?0$00@Eigen@@$0?0$00$00@3@@Eigen@@QEBAAEBV?$Block@$$CBV?$Matrix@N$0?0$00$0A@$0?0$00@Eigen@@$0?0$00$00@2@XZ ; Eigen::CwiseBinaryOp<Eigen::internal::scalar_conj_product_op<double,double>,Eigen::Transpose<Eigen::Block<Eigen::Matrix<double,-1,-1,0,-1,-1> const ,1,-1,0> const > const ,Eigen::Block<Eigen::Matrix<double,-1,1,0,-1,1> const ,-1,1,1> const >::rhs
PUBLIC	?functor@?$CwiseBinaryOp@U?$scalar_conj_product_op@NN@internal@Eigen@@$$CBV?$Transpose@$$CBV?$Block@$$CBV?$Matrix@N$0?0$0?0$0A@$0?0$0?0@Eigen@@$00$0?0$0A@@Eigen@@@3@$$CBV?$Block@$$CBV?$Matrix@N$0?0$00$0A@$0?0$00@Eigen@@$0?0$00$00@3@@Eigen@@QEBAAEBU?$scalar_conj_product_op@NN@internal@2@XZ ; Eigen::CwiseBinaryOp<Eigen::internal::scalar_conj_product_op<double,double>,Eigen::Transpose<Eigen::Block<Eigen::Matrix<double,-1,-1,0,-1,-1> const ,1,-1,0> const > const ,Eigen::Block<Eigen::Matrix<double,-1,1,0,-1,1> const ,-1,1,1> const >::functor
PUBLIC	?rowStride@?$mapbase_evaluator@V?$Block@$$CBV?$Block@$$CBV?$Matrix@N$0?0$0?0$0A@$0?0$0?0@Eigen@@$00$0?0$0A@@Eigen@@$00$0?0$00@Eigen@@V?$Matrix@N$00$0?0$00$00$0?0@2@@internal@Eigen@@IEBA_JXZ ; Eigen::internal::mapbase_evaluator<Eigen::Block<Eigen::Block<Eigen::Matrix<double,-1,-1,0,-1,-1> const ,1,-1,0> const ,1,-1,1>,Eigen::Matrix<double,1,-1,1,1,-1> >::rowStride
PUBLIC	?colStride@?$mapbase_evaluator@V?$Block@$$CBV?$Block@$$CBV?$Matrix@N$0?0$0?0$0A@$0?0$0?0@Eigen@@$00$0?0$0A@@Eigen@@$00$0?0$00@Eigen@@V?$Matrix@N$00$0?0$00$00$0?0@2@@internal@Eigen@@IEBA_JXZ ; Eigen::internal::mapbase_evaluator<Eigen::Block<Eigen::Block<Eigen::Matrix<double,-1,-1,0,-1,-1> const ,1,-1,0> const ,1,-1,1>,Eigen::Matrix<double,1,-1,1,1,-1> >::colStride
PUBLIC	??0?$evaluator@$$CBV?$Block@$$CBV?$Matrix@N$0?0$00$0A@$0?0$00@Eigen@@$0?0$00$00@Eigen@@@internal@Eigen@@QEAA@AEBV?$Block@$$CBV?$Matrix@N$0?0$00$0A@$0?0$00@Eigen@@$0?0$00$00@2@@Z ; Eigen::internal::evaluator<Eigen::Block<Eigen::Matrix<double,-1,1,0,-1,1> const ,-1,1,1> const >::evaluator<Eigen::Block<Eigen::Matrix<double,-1,1,0,-1,1> const ,-1,1,1> const >
PUBLIC	?rowStride@?$mapbase_evaluator@V?$Block@$$CBV?$Reshaped@$$CBV?$Matrix@N$0?0$0?0$0A@$0?0$0?0@Eigen@@$0?0$0?0$0A@@Eigen@@$0?0$00$00@Eigen@@V?$Matrix@N$0?0$00$0A@$0?0$00@2@@internal@Eigen@@IEBA_JXZ ; Eigen::internal::mapbase_evaluator<Eigen::Block<Eigen::Reshaped<Eigen::Matrix<double,-1,-1,0,-1,-1> const ,-1,-1,0> const ,-1,1,1>,Eigen::Matrix<double,-1,1,0,-1,1> >::rowStride
PUBLIC	?colStride@?$mapbase_evaluator@V?$Block@$$CBV?$Reshaped@$$CBV?$Matrix@N$0?0$0?0$0A@$0?0$0?0@Eigen@@$0?0$0?0$0A@@Eigen@@$0?0$00$00@Eigen@@V?$Matrix@N$0?0$00$0A@$0?0$00@2@@internal@Eigen@@IEBA_JXZ ; Eigen::internal::mapbase_evaluator<Eigen::Block<Eigen::Reshaped<Eigen::Matrix<double,-1,-1,0,-1,-1> const ,-1,-1,0> const ,-1,1,1>,Eigen::Matrix<double,-1,1,0,-1,1> >::colStride
PUBLIC	?coeff@?$mapbase_evaluator@V?$Block@$$CBV?$Matrix@N$0?0$0?0$0A@$0?0$0?0@Eigen@@$00$0?0$0A@@Eigen@@V?$Matrix@N$00$0?0$00$00$0?0@2@@internal@Eigen@@QEBAN_J0@Z ; Eigen::internal::mapbase_evaluator<Eigen::Block<Eigen::Matrix<double,-1,-1,0,-1,-1> const ,1,-1,0>,Eigen::Matrix<double,1,-1,1,1,-1> >::coeff
PUBLIC	?coeff@?$mapbase_evaluator@V?$Block@$$CBV?$Block@$$CBV?$Matrix@N$0?0$0?0$0A@$0?0$0?0@Eigen@@$00$0?0$0A@@Eigen@@$00$0?0$00@Eigen@@V?$Matrix@N$00$0?0$00$00$0?0@2@@internal@Eigen@@QEBAN_J0@Z ; Eigen::internal::mapbase_evaluator<Eigen::Block<Eigen::Block<Eigen::Matrix<double,-1,-1,0,-1,-1> const ,1,-1,0> const ,1,-1,1>,Eigen::Matrix<double,1,-1,1,1,-1> >::coeff
PUBLIC	?rowStride@?$mapbase_evaluator@V?$Block@$$CBV?$Block@$$CBV?$Reshaped@$$CBV?$Matrix@N$0?0$0?0$0A@$0?0$0?0@Eigen@@$0?0$0?0$0A@@Eigen@@$0?0$00$00@Eigen@@$0?0$00$00@Eigen@@V?$Matrix@N$0?0$00$0A@$0?0$00@2@@internal@Eigen@@IEBA_JXZ ; Eigen::internal::mapbase_evaluator<Eigen::Block<Eigen::Block<Eigen::Reshaped<Eigen::Matrix<double,-1,-1,0,-1,-1> const ,-1,-1,0> const ,-1,1,1> const ,-1,1,1>,Eigen::Matrix<double,-1,1,0,-1,1> >::rowStride
PUBLIC	?colStride@?$mapbase_evaluator@V?$Block@$$CBV?$Block@$$CBV?$Reshaped@$$CBV?$Matrix@N$0?0$0?0$0A@$0?0$0?0@Eigen@@$0?0$0?0$0A@@Eigen@@$0?0$00$00@Eigen@@$0?0$00$00@Eigen@@V?$Matrix@N$0?0$00$0A@$0?0$00@2@@internal@Eigen@@IEBA_JXZ ; Eigen::internal::mapbase_evaluator<Eigen::Block<Eigen::Block<Eigen::Reshaped<Eigen::Matrix<double,-1,-1,0,-1,-1> const ,-1,-1,0> const ,-1,1,1> const ,-1,1,1>,Eigen::Matrix<double,-1,1,0,-1,1> >::colStride
PUBLIC	??0?$evaluator_base@V?$CwiseBinaryOp@U?$scalar_conj_product_op@NN@internal@Eigen@@$$CBV?$Transpose@$$CBV?$Block@$$CBV?$Matrix@N$0?0$0?0$0A@$0?0$0?0@Eigen@@$00$0?0$0A@@Eigen@@@3@$$CBV?$Block@$$CBV?$Matrix@N$0?0$00$0A@$0?0$00@Eigen@@$0?0$00$00@3@@Eigen@@@internal@Eigen@@QEAA@XZ ; Eigen::internal::evaluator_base<Eigen::CwiseBinaryOp<Eigen::internal::scalar_conj_product_op<double,double>,Eigen::Transpose<Eigen::Block<Eigen::Matrix<double,-1,-1,0,-1,-1> const ,1,-1,0> const > const ,Eigen::Block<Eigen::Matrix<double,-1,1,0,-1,1> const ,-1,1,1> const > >::evaluator_base<Eigen::CwiseBinaryOp<Eigen::internal::scalar_conj_product_op<double,double>,Eigen::Transpose<Eigen::Block<Eigen::Matrix<double,-1,-1,0,-1,-1> const ,1,-1,0> const > const ,Eigen::Block<Eigen::Matrix<double,-1,1,0,-1,1> const ,-1,1,1> const > >
PUBLIC	??0Data@?$binary_evaluator@V?$CwiseBinaryOp@U?$scalar_conj_product_op@NN@internal@Eigen@@$$CBV?$Transpose@$$CBV?$Block@$$CBV?$Matrix@N$0?0$0?0$0A@$0?0$0?0@Eigen@@$00$0?0$0A@@Eigen@@@3@$$CBV?$Block@$$CBV?$Matrix@N$0?0$00$0A@$0?0$00@Eigen@@$0?0$00$00@3@@Eigen@@UIndexBased@internal@2@U342@NN@internal@Eigen@@QEAA@AEBV?$CwiseBinaryOp@U?$scalar_conj_product_op@NN@internal@Eigen@@$$CBV?$Transpose@$$CBV?$Block@$$CBV?$Matrix@N$0?0$0?0$0A@$0?0$0?0@Eigen@@$00$0?0$0A@@Eigen@@@3@$$CBV?$Block@$$CBV?$Matrix@N$0?0$00$0A@$0?0$00@Eigen@@$0?0$00$00@3@@3@@Z ; Eigen::internal::binary_evaluator<Eigen::CwiseBinaryOp<Eigen::internal::scalar_conj_product_op<double,double>,Eigen::Transpose<Eigen::Block<Eigen::Matrix<double,-1,-1,0,-1,-1> const ,1,-1,0> const > const ,Eigen::Block<Eigen::Matrix<double,-1,1,0,-1,1> const ,-1,1,1> const >,Eigen::internal::IndexBased,Eigen::internal::IndexBased,double,double>::Data::Data
PUBLIC	?coeff@?$mapbase_evaluator@V?$Block@$$CBV?$Reshaped@$$CBV?$Matrix@N$0?0$0?0$0A@$0?0$0?0@Eigen@@$0?0$0?0$0A@@Eigen@@$0?0$00$00@Eigen@@V?$Matrix@N$0?0$00$0A@$0?0$00@2@@internal@Eigen@@QEBAN_J0@Z ; Eigen::internal::mapbase_evaluator<Eigen::Block<Eigen::Reshaped<Eigen::Matrix<double,-1,-1,0,-1,-1> const ,-1,-1,0> const ,-1,1,1>,Eigen::Matrix<double,-1,1,0,-1,1> >::coeff
PUBLIC	?rowStride@?$mapbase_evaluator@V?$Reshaped@$$CBV?$Matrix@N$0?0$0?0$0A@$0?0$0?0@Eigen@@$0?0$0?0$0A@@Eigen@@V?$Matrix@N$0?0$0?0$0A@$0?0$0?0@2@@internal@Eigen@@IEBA_JXZ ; Eigen::internal::mapbase_evaluator<Eigen::Reshaped<Eigen::Matrix<double,-1,-1,0,-1,-1> const ,-1,-1,0>,Eigen::Matrix<double,-1,-1,0,-1,-1> >::rowStride
PUBLIC	?colStride@?$mapbase_evaluator@V?$Reshaped@$$CBV?$Matrix@N$0?0$0?0$0A@$0?0$0?0@Eigen@@$0?0$0?0$0A@@Eigen@@V?$Matrix@N$0?0$0?0$0A@$0?0$0?0@2@@internal@Eigen@@IEBA_JXZ ; Eigen::internal::mapbase_evaluator<Eigen::Reshaped<Eigen::Matrix<double,-1,-1,0,-1,-1> const ,-1,-1,0>,Eigen::Matrix<double,-1,-1,0,-1,-1> >::colStride
PUBLIC	??R?$scalar_conj_product_op@NN@internal@Eigen@@QEBANAEBN0@Z ; Eigen::internal::scalar_conj_product_op<double,double>::operator()
PUBLIC	??R?$scalar_product_op@NN@internal@Eigen@@QEBANAEBN0@Z ; Eigen::internal::scalar_product_op<double,double>::operator()
PUBLIC	?coeff@?$unary_evaluator@V?$Transpose@$$CBV?$Block@$$CBV?$Block@$$CBV?$Matrix@N$0?0$0?0$0A@$0?0$0?0@Eigen@@$00$0?0$0A@@Eigen@@$00$0?0$00@Eigen@@@Eigen@@UIndexBased@internal@2@N@internal@Eigen@@QEBAN_J0@Z ; Eigen::internal::unary_evaluator<Eigen::Transpose<Eigen::Block<Eigen::Block<Eigen::Matrix<double,-1,-1,0,-1,-1> const ,1,-1,0> const ,1,-1,1> const >,Eigen::internal::IndexBased,double>::coeff
PUBLIC	?func@Data@?$binary_evaluator@V?$CwiseBinaryOp@U?$scalar_conj_product_op@NN@internal@Eigen@@$$CBV?$Transpose@$$CBV?$Block@$$CBV?$Block@$$CBV?$Matrix@N$0?0$0?0$0A@$0?0$0?0@Eigen@@$00$0?0$0A@@Eigen@@$00$0?0$00@Eigen@@@3@$$CBV?$Block@$$CBV?$Reshaped@$$CBV?$Matrix@N$0?0$0?0$0A@$0?0$0?0@Eigen@@$0?0$0?0$0A@@Eigen@@$0?0$00$00@3@@Eigen@@UIndexBased@internal@2@U342@NN@internal@Eigen@@QEBAAEBU?$scalar_conj_product_op@NN@34@XZ ; Eigen::internal::binary_evaluator<Eigen::CwiseBinaryOp<Eigen::internal::scalar_conj_product_op<double,double>,Eigen::Transpose<Eigen::Block<Eigen::Block<Eigen::Matrix<double,-1,-1,0,-1,-1> const ,1,-1,0> const ,1,-1,1> const > const ,Eigen::Block<Eigen::Reshaped<Eigen::Matrix<double,-1,-1,0,-1,-1> const ,-1,-1,0> const ,-1,1,1> const >,Eigen::internal::IndexBased,Eigen::internal::IndexBased,double,double>::Data::func
PUBLIC	?coeff@?$unary_evaluator@V?$Transpose@$$CBV?$Block@$$CBV?$Matrix@N$0?0$0?0$0A@$0?0$0?0@Eigen@@$00$0?0$0A@@Eigen@@@Eigen@@UIndexBased@internal@2@N@internal@Eigen@@QEBAN_J0@Z ; Eigen::internal::unary_evaluator<Eigen::Transpose<Eigen::Block<Eigen::Matrix<double,-1,-1,0,-1,-1> const ,1,-1,0> const >,Eigen::internal::IndexBased,double>::coeff
PUBLIC	?coeff@?$mapbase_evaluator@V?$Block@$$CBV?$Block@$$CBV?$Reshaped@$$CBV?$Matrix@N$0?0$0?0$0A@$0?0$0?0@Eigen@@$0?0$0?0$0A@@Eigen@@$0?0$00$00@Eigen@@$0?0$00$00@Eigen@@V?$Matrix@N$0?0$00$0A@$0?0$00@2@@internal@Eigen@@QEBAN_J0@Z ; Eigen::internal::mapbase_evaluator<Eigen::Block<Eigen::Block<Eigen::Reshaped<Eigen::Matrix<double,-1,-1,0,-1,-1> const ,-1,-1,0> const ,-1,1,1> const ,-1,1,1>,Eigen::Matrix<double,-1,1,0,-1,1> >::coeff
PUBLIC	?func@Data@?$binary_evaluator@V?$CwiseBinaryOp@U?$scalar_conj_product_op@NN@internal@Eigen@@$$CBV?$Transpose@$$CBV?$Block@$$CBV?$Matrix@N$0?0$0?0$0A@$0?0$0?0@Eigen@@$00$0?0$0A@@Eigen@@@3@$$CBV?$Block@$$CBV?$Block@$$CBV?$Reshaped@$$CBV?$Matrix@N$0?0$0?0$0A@$0?0$0?0@Eigen@@$0?0$0?0$0A@@Eigen@@$0?0$00$00@Eigen@@$0?0$00$00@3@@Eigen@@UIndexBased@internal@2@U342@NN@internal@Eigen@@QEBAAEBU?$scalar_conj_product_op@NN@34@XZ ; Eigen::internal::binary_evaluator<Eigen::CwiseBinaryOp<Eigen::internal::scalar_conj_product_op<double,double>,Eigen::Transpose<Eigen::Block<Eigen::Matrix<double,-1,-1,0,-1,-1> const ,1,-1,0> const > const ,Eigen::Block<Eigen::Block<Eigen::Reshaped<Eigen::Matrix<double,-1,-1,0,-1,-1> const ,-1,-1,0> const ,-1,1,1> const ,-1,1,1> const >,Eigen::internal::IndexBased,Eigen::internal::IndexBased,double,double>::Data::func
PUBLIC	?func@Data@?$binary_evaluator@V?$CwiseBinaryOp@U?$scalar_product_op@NN@internal@Eigen@@$$CBV?$Transpose@$$CBV?$Block@$$CBV?$Matrix@N$0?0$0?0$0A@$0?0$0?0@Eigen@@$00$0?0$0A@@Eigen@@@3@$$CBV?$Block@$$CBV?$Reshaped@$$CBV?$Matrix@N$0?0$0?0$0A@$0?0$0?0@Eigen@@$0?0$0?0$0A@@Eigen@@$0?0$00$00@3@@Eigen@@UIndexBased@internal@2@U342@NN@internal@Eigen@@QEBAAEBU?$scalar_product_op@NN@34@XZ ; Eigen::internal::binary_evaluator<Eigen::CwiseBinaryOp<Eigen::internal::scalar_product_op<double,double>,Eigen::Transpose<Eigen::Block<Eigen::Matrix<double,-1,-1,0,-1,-1> const ,1,-1,0> const > const ,Eigen::Block<Eigen::Reshaped<Eigen::Matrix<double,-1,-1,0,-1,-1> const ,-1,-1,0> const ,-1,1,1> const >,Eigen::internal::IndexBased,Eigen::internal::IndexBased,double,double>::Data::func
PUBLIC	??0?$binary_evaluator@V?$CwiseBinaryOp@U?$scalar_conj_product_op@NN@internal@Eigen@@$$CBV?$Transpose@$$CBV?$Block@$$CBV?$Matrix@N$0?0$0?0$0A@$0?0$0?0@Eigen@@$00$0?0$0A@@Eigen@@@3@$$CBV?$Block@$$CBV?$Matrix@N$0?0$00$0A@$0?0$00@Eigen@@$0?0$00$00@3@@Eigen@@UIndexBased@internal@2@U342@NN@internal@Eigen@@QEAA@AEBV?$CwiseBinaryOp@U?$scalar_conj_product_op@NN@internal@Eigen@@$$CBV?$Transpose@$$CBV?$Block@$$CBV?$Matrix@N$0?0$0?0$0A@$0?0$0?0@Eigen@@$00$0?0$0A@@Eigen@@@3@$$CBV?$Block@$$CBV?$Matrix@N$0?0$00$0A@$0?0$00@Eigen@@$0?0$00$00@3@@2@@Z ; Eigen::internal::binary_evaluator<Eigen::CwiseBinaryOp<Eigen::internal::scalar_conj_product_op<double,double>,Eigen::Transpose<Eigen::Block<Eigen::Matrix<double,-1,-1,0,-1,-1> const ,1,-1,0> const > const ,Eigen::Block<Eigen::Matrix<double,-1,1,0,-1,1> const ,-1,1,1> const >,Eigen::internal::IndexBased,Eigen::internal::IndexBased,double,double>::binary_evaluator<Eigen::CwiseBinaryOp<Eigen::internal::scalar_conj_product_op<double,double>,Eigen::Transpose<Eigen::Block<Eigen::Matrix<double,-1,-1,0,-1,-1> const ,1,-1,0> const > const ,Eigen::Block<Eigen::Matrix<double,-1,1,0,-1,1> const ,-1,1,1> const >,Eigen::internal::IndexBased,Eigen::internal::IndexBased,double,double>
PUBLIC	?coeff@?$mapbase_evaluator@V?$Reshaped@$$CBV?$Matrix@N$0?0$0?0$0A@$0?0$0?0@Eigen@@$0?0$0?0$0A@@Eigen@@V?$Matrix@N$0?0$0?0$0A@$0?0$0?0@2@@internal@Eigen@@QEBAN_J0@Z ; Eigen::internal::mapbase_evaluator<Eigen::Reshaped<Eigen::Matrix<double,-1,-1,0,-1,-1> const ,-1,-1,0>,Eigen::Matrix<double,-1,-1,0,-1,-1> >::coeff
PUBLIC	?coeff@?$binary_evaluator@V?$CwiseBinaryOp@U?$scalar_conj_product_op@NN@internal@Eigen@@$$CBV?$Transpose@$$CBV?$Block@$$CBV?$Block@$$CBV?$Matrix@N$0?0$0?0$0A@$0?0$0?0@Eigen@@$00$0?0$0A@@Eigen@@$00$0?0$00@Eigen@@@3@$$CBV?$Block@$$CBV?$Reshaped@$$CBV?$Matrix@N$0?0$0?0$0A@$0?0$0?0@Eigen@@$0?0$0?0$0A@@Eigen@@$0?0$00$00@3@@Eigen@@UIndexBased@internal@2@U342@NN@internal@Eigen@@QEBAN_J0@Z ; Eigen::internal::binary_evaluator<Eigen::CwiseBinaryOp<Eigen::internal::scalar_conj_product_op<double,double>,Eigen::Transpose<Eigen::Block<Eigen::Block<Eigen::Matrix<double,-1,-1,0,-1,-1> const ,1,-1,0> const ,1,-1,1> const > const ,Eigen::Block<Eigen::Reshaped<Eigen::Matrix<double,-1,-1,0,-1,-1> const ,-1,-1,0> const ,-1,1,1> const >,Eigen::internal::IndexBased,Eigen::internal::IndexBased,double,double>::coeff
PUBLIC	?coeff@?$binary_evaluator@V?$CwiseBinaryOp@U?$scalar_conj_product_op@NN@internal@Eigen@@$$CBV?$Transpose@$$CBV?$Block@$$CBV?$Matrix@N$0?0$0?0$0A@$0?0$0?0@Eigen@@$00$0?0$0A@@Eigen@@@3@$$CBV?$Block@$$CBV?$Block@$$CBV?$Reshaped@$$CBV?$Matrix@N$0?0$0?0$0A@$0?0$0?0@Eigen@@$0?0$0?0$0A@@Eigen@@$0?0$00$00@Eigen@@$0?0$00$00@3@@Eigen@@UIndexBased@internal@2@U342@NN@internal@Eigen@@QEBAN_J0@Z ; Eigen::internal::binary_evaluator<Eigen::CwiseBinaryOp<Eigen::internal::scalar_conj_product_op<double,double>,Eigen::Transpose<Eigen::Block<Eigen::Matrix<double,-1,-1,0,-1,-1> const ,1,-1,0> const > const ,Eigen::Block<Eigen::Block<Eigen::Reshaped<Eigen::Matrix<double,-1,-1,0,-1,-1> const ,-1,-1,0> const ,-1,1,1> const ,-1,1,1> const >,Eigen::internal::IndexBased,Eigen::internal::IndexBased,double,double>::coeff
PUBLIC	?coeff@?$binary_evaluator@V?$CwiseBinaryOp@U?$scalar_product_op@NN@internal@Eigen@@$$CBV?$Transpose@$$CBV?$Block@$$CBV?$Matrix@N$0?0$0?0$0A@$0?0$0?0@Eigen@@$00$0?0$0A@@Eigen@@@3@$$CBV?$Block@$$CBV?$Reshaped@$$CBV?$Matrix@N$0?0$0?0$0A@$0?0$0?0@Eigen@@$0?0$0?0$0A@@Eigen@@$0?0$00$00@3@@Eigen@@UIndexBased@internal@2@U342@NN@internal@Eigen@@QEBAN_J0@Z ; Eigen::internal::binary_evaluator<Eigen::CwiseBinaryOp<Eigen::internal::scalar_product_op<double,double>,Eigen::Transpose<Eigen::Block<Eigen::Matrix<double,-1,-1,0,-1,-1> const ,1,-1,0> const > const ,Eigen::Block<Eigen::Reshaped<Eigen::Matrix<double,-1,-1,0,-1,-1> const ,-1,-1,0> const ,-1,1,1> const >,Eigen::internal::IndexBased,Eigen::internal::IndexBased,double,double>::coeff
PUBLIC	??0?$evaluator@V?$CwiseBinaryOp@U?$scalar_conj_product_op@NN@internal@Eigen@@$$CBV?$Transpose@$$CBV?$Block@$$CBV?$Matrix@N$0?0$0?0$0A@$0?0$0?0@Eigen@@$00$0?0$0A@@Eigen@@@3@$$CBV?$Block@$$CBV?$Matrix@N$0?0$00$0A@$0?0$00@Eigen@@$0?0$00$00@3@@Eigen@@@internal@Eigen@@QEAA@AEBV?$CwiseBinaryOp@U?$scalar_conj_product_op@NN@internal@Eigen@@$$CBV?$Transpose@$$CBV?$Block@$$CBV?$Matrix@N$0?0$0?0$0A@$0?0$0?0@Eigen@@$00$0?0$0A@@Eigen@@@3@$$CBV?$Block@$$CBV?$Matrix@N$0?0$00$0A@$0?0$00@Eigen@@$0?0$00$00@3@@2@@Z ; Eigen::internal::evaluator<Eigen::CwiseBinaryOp<Eigen::internal::scalar_conj_product_op<double,double>,Eigen::Transpose<Eigen::Block<Eigen::Matrix<double,-1,-1,0,-1,-1> const ,1,-1,0> const > const ,Eigen::Block<Eigen::Matrix<double,-1,1,0,-1,1> const ,-1,1,1> const > >::evaluator<Eigen::CwiseBinaryOp<Eigen::internal::scalar_conj_product_op<double,double>,Eigen::Transpose<Eigen::Block<Eigen::Matrix<double,-1,-1,0,-1,-1> const ,1,-1,0> const > const ,Eigen::Block<Eigen::Matrix<double,-1,1,0,-1,1> const ,-1,1,1> const > >
PUBLIC	?outerSize@?$DenseBase@V?$CwiseBinaryOp@U?$scalar_conj_product_op@NN@internal@Eigen@@$$CBV?$Transpose@$$CBV?$Block@$$CBV?$Block@$$CBV?$Matrix@N$0?0$0?0$0A@$0?0$0?0@Eigen@@$00$0?0$0A@@Eigen@@$00$0?0$00@Eigen@@@3@$$CBV?$Block@$$CBV?$Reshaped@$$CBV?$Matrix@N$0?0$0?0$0A@$0?0$0?0@Eigen@@$0?0$0?0$0A@@Eigen@@$0?0$00$00@3@@Eigen@@@Eigen@@QEBA_JXZ ; Eigen::DenseBase<Eigen::CwiseBinaryOp<Eigen::internal::scalar_conj_product_op<double,double>,Eigen::Transpose<Eigen::Block<Eigen::Block<Eigen::Matrix<double,-1,-1,0,-1,-1> const ,1,-1,0> const ,1,-1,1> const > const ,Eigen::Block<Eigen::Reshaped<Eigen::Matrix<double,-1,-1,0,-1,-1> const ,-1,-1,0> const ,-1,1,1> const > >::outerSize
PUBLIC	?innerSize@?$DenseBase@V?$CwiseBinaryOp@U?$scalar_conj_product_op@NN@internal@Eigen@@$$CBV?$Transpose@$$CBV?$Block@$$CBV?$Block@$$CBV?$Matrix@N$0?0$0?0$0A@$0?0$0?0@Eigen@@$00$0?0$0A@@Eigen@@$00$0?0$00@Eigen@@@3@$$CBV?$Block@$$CBV?$Reshaped@$$CBV?$Matrix@N$0?0$0?0$0A@$0?0$0?0@Eigen@@$0?0$0?0$0A@@Eigen@@$0?0$00$00@3@@Eigen@@@Eigen@@QEBA_JXZ ; Eigen::DenseBase<Eigen::CwiseBinaryOp<Eigen::internal::scalar_conj_product_op<double,double>,Eigen::Transpose<Eigen::Block<Eigen::Block<Eigen::Matrix<double,-1,-1,0,-1,-1> const ,1,-1,0> const ,1,-1,1> const > const ,Eigen::Block<Eigen::Reshaped<Eigen::Matrix<double,-1,-1,0,-1,-1> const ,-1,-1,0> const ,-1,1,1> const > >::innerSize
PUBLIC	?outerSize@?$DenseBase@V?$CwiseBinaryOp@U?$scalar_conj_product_op@NN@internal@Eigen@@$$CBV?$Transpose@$$CBV?$Block@$$CBV?$Matrix@N$0?0$0?0$0A@$0?0$0?0@Eigen@@$00$0?0$0A@@Eigen@@@3@$$CBV?$Block@$$CBV?$Block@$$CBV?$Reshaped@$$CBV?$Matrix@N$0?0$0?0$0A@$0?0$0?0@Eigen@@$0?0$0?0$0A@@Eigen@@$0?0$00$00@Eigen@@$0?0$00$00@3@@Eigen@@@Eigen@@QEBA_JXZ ; Eigen::DenseBase<Eigen::CwiseBinaryOp<Eigen::internal::scalar_conj_product_op<double,double>,Eigen::Transpose<Eigen::Block<Eigen::Matrix<double,-1,-1,0,-1,-1> const ,1,-1,0> const > const ,Eigen::Block<Eigen::Block<Eigen::Reshaped<Eigen::Matrix<double,-1,-1,0,-1,-1> const ,-1,-1,0> const ,-1,1,1> const ,-1,1,1> const > >::outerSize
PUBLIC	?innerSize@?$DenseBase@V?$CwiseBinaryOp@U?$scalar_conj_product_op@NN@internal@Eigen@@$$CBV?$Transpose@$$CBV?$Block@$$CBV?$Matrix@N$0?0$0?0$0A@$0?0$0?0@Eigen@@$00$0?0$0A@@Eigen@@@3@$$CBV?$Block@$$CBV?$Block@$$CBV?$Reshaped@$$CBV?$Matrix@N$0?0$0?0$0A@$0?0$0?0@Eigen@@$0?0$0?0$0A@@Eigen@@$0?0$00$00@Eigen@@$0?0$00$00@3@@Eigen@@@Eigen@@QEBA_JXZ ; Eigen::DenseBase<Eigen::CwiseBinaryOp<Eigen::internal::scalar_conj_product_op<double,double>,Eigen::Transpose<Eigen::Block<Eigen::Matrix<double,-1,-1,0,-1,-1> const ,1,-1,0> const > const ,Eigen::Block<Eigen::Block<Eigen::Reshaped<Eigen::Matrix<double,-1,-1,0,-1,-1> const ,-1,-1,0> const ,-1,1,1> const ,-1,1,1> const > >::innerSize
PUBLIC	?outerSize@?$DenseBase@V?$CwiseBinaryOp@U?$scalar_product_op@NN@internal@Eigen@@$$CBV?$Transpose@$$CBV?$Block@$$CBV?$Matrix@N$0?0$0?0$0A@$0?0$0?0@Eigen@@$00$0?0$0A@@Eigen@@@3@$$CBV?$Block@$$CBV?$Reshaped@$$CBV?$Matrix@N$0?0$0?0$0A@$0?0$0?0@Eigen@@$0?0$0?0$0A@@Eigen@@$0?0$00$00@3@@Eigen@@@Eigen@@QEBA_JXZ ; Eigen::DenseBase<Eigen::CwiseBinaryOp<Eigen::internal::scalar_product_op<double,double>,Eigen::Transpose<Eigen::Block<Eigen::Matrix<double,-1,-1,0,-1,-1> const ,1,-1,0> const > const ,Eigen::Block<Eigen::Reshaped<Eigen::Matrix<double,-1,-1,0,-1,-1> const ,-1,-1,0> const ,-1,1,1> const > >::outerSize
PUBLIC	?innerSize@?$DenseBase@V?$CwiseBinaryOp@U?$scalar_product_op@NN@internal@Eigen@@$$CBV?$Transpose@$$CBV?$Block@$$CBV?$Matrix@N$0?0$0?0$0A@$0?0$0?0@Eigen@@$00$0?0$0A@@Eigen@@@3@$$CBV?$Block@$$CBV?$Reshaped@$$CBV?$Matrix@N$0?0$0?0$0A@$0?0$0?0@Eigen@@$0?0$0?0$0A@@Eigen@@$0?0$00$00@3@@Eigen@@@Eigen@@QEBA_JXZ ; Eigen::DenseBase<Eigen::CwiseBinaryOp<Eigen::internal::scalar_product_op<double,double>,Eigen::Transpose<Eigen::Block<Eigen::Matrix<double,-1,-1,0,-1,-1> const ,1,-1,0> const > const ,Eigen::Block<Eigen::Reshaped<Eigen::Matrix<double,-1,-1,0,-1,-1> const ,-1,-1,0> const ,-1,1,1> const > >::innerSize
PUBLIC	?coeffByOuterInner@?$redux_evaluator@V?$CwiseBinaryOp@U?$scalar_conj_product_op@NN@internal@Eigen@@$$CBV?$Transpose@$$CBV?$Block@$$CBV?$Block@$$CBV?$Matrix@N$0?0$0?0$0A@$0?0$0?0@Eigen@@$00$0?0$0A@@Eigen@@$00$0?0$00@Eigen@@@3@$$CBV?$Block@$$CBV?$Reshaped@$$CBV?$Matrix@N$0?0$0?0$0A@$0?0$0?0@Eigen@@$0?0$0?0$0A@@Eigen@@$0?0$00$00@3@@Eigen@@@internal@Eigen@@QEBAN_J0@Z ; Eigen::internal::redux_evaluator<Eigen::CwiseBinaryOp<Eigen::internal::scalar_conj_product_op<double,double>,Eigen::Transpose<Eigen::Block<Eigen::Block<Eigen::Matrix<double,-1,-1,0,-1,-1> const ,1,-1,0> const ,1,-1,1> const > const ,Eigen::Block<Eigen::Reshaped<Eigen::Matrix<double,-1,-1,0,-1,-1> const ,-1,-1,0> const ,-1,1,1> const > >::coeffByOuterInner
PUBLIC	?coeffByOuterInner@?$redux_evaluator@V?$CwiseBinaryOp@U?$scalar_conj_product_op@NN@internal@Eigen@@$$CBV?$Transpose@$$CBV?$Block@$$CBV?$Matrix@N$0?0$0?0$0A@$0?0$0?0@Eigen@@$00$0?0$0A@@Eigen@@@3@$$CBV?$Block@$$CBV?$Block@$$CBV?$Reshaped@$$CBV?$Matrix@N$0?0$0?0$0A@$0?0$0?0@Eigen@@$0?0$0?0$0A@@Eigen@@$0?0$00$00@Eigen@@$0?0$00$00@3@@Eigen@@@internal@Eigen@@QEBAN_J0@Z ; Eigen::internal::redux_evaluator<Eigen::CwiseBinaryOp<Eigen::internal::scalar_conj_product_op<double,double>,Eigen::Transpose<Eigen::Block<Eigen::Matrix<double,-1,-1,0,-1,-1> const ,1,-1,0> const > const ,Eigen::Block<Eigen::Block<Eigen::Reshaped<Eigen::Matrix<double,-1,-1,0,-1,-1> const ,-1,-1,0> const ,-1,1,1> const ,-1,1,1> const > >::coeffByOuterInner
PUBLIC	?coeffByOuterInner@?$redux_evaluator@V?$CwiseBinaryOp@U?$scalar_product_op@NN@internal@Eigen@@$$CBV?$Transpose@$$CBV?$Block@$$CBV?$Matrix@N$0?0$0?0$0A@$0?0$0?0@Eigen@@$00$0?0$0A@@Eigen@@@3@$$CBV?$Block@$$CBV?$Reshaped@$$CBV?$Matrix@N$0?0$0?0$0A@$0?0$0?0@Eigen@@$0?0$0?0$0A@@Eigen@@$0?0$00$00@3@@Eigen@@@internal@Eigen@@QEBAN_J0@Z ; Eigen::internal::redux_evaluator<Eigen::CwiseBinaryOp<Eigen::internal::scalar_product_op<double,double>,Eigen::Transpose<Eigen::Block<Eigen::Matrix<double,-1,-1,0,-1,-1> const ,1,-1,0> const > const ,Eigen::Block<Eigen::Reshaped<Eigen::Matrix<double,-1,-1,0,-1,-1> const ,-1,-1,0> const ,-1,1,1> const > >::coeffByOuterInner
PUBLIC	?run@?$Assignment@V?$Block@V?$Matrix@N$0?0$0?0$0A@$0?0$0?0@Eigen@@$0?0$00$00@Eigen@@V?$CwiseBinaryOp@U?$scalar_product_op@NN@internal@Eigen@@$$CBV?$CwiseNullaryOp@U?$scalar_constant_op@N@internal@Eigen@@$$CBV?$Matrix@N$0?0$00$0A@$0?0$00@3@@3@$$CBV?$Map@V?$Matrix@N$0?0$00$0A@$0?0$00@Eigen@@$03V?$Stride@$0A@$0A@@2@@3@@2@U?$add_assign_op@NN@internal@2@UDense2Dense@52@X@internal@Eigen@@SAXAEAV?$Block@V?$Matrix@N$0?0$0?0$0A@$0?0$0?0@Eigen@@$0?0$00$00@3@AEBV?$CwiseBinaryOp@U?$scalar_product_op@NN@internal@Eigen@@$$CBV?$CwiseNullaryOp@U?$scalar_constant_op@N@internal@Eigen@@$$CBV?$Matrix@N$0?0$00$0A@$0?0$00@3@@3@$$CBV?$Map@V?$Matrix@N$0?0$00$0A@$0?0$00@Eigen@@$03V?$Stride@$0A@$0A@@2@@3@@3@AEBU?$add_assign_op@NN@23@@Z ; Eigen::internal::Assignment<Eigen::Block<Eigen::Matrix<double,-1,-1,0,-1,-1>,-1,1,1>,Eigen::CwiseBinaryOp<Eigen::internal::scalar_product_op<double,double>,Eigen::CwiseNullaryOp<Eigen::internal::scalar_constant_op<double>,Eigen::Matrix<double,-1,1,0,-1,1> const > const ,Eigen::Map<Eigen::Matrix<double,-1,1,0,-1,1>,4,Eigen::Stride<0,0> > const >,Eigen::internal::add_assign_op<double,double>,Eigen::internal::Dense2Dense,void>::run
PUBLIC	?run@?$etor_product_packet_impl@$0A@$0?0U?$evaluator@V?$Matrix@N$0?0$0?0$0A@$0?0$0?0@Eigen@@@internal@Eigen@@U?$evaluator@V?$Reshaped@$$CBV?$Matrix@N$0?0$0?0$0A@$0?0$0?0@Eigen@@$0?0$0?0$0A@@Eigen@@@23@U__m256d@@$0A@@internal@Eigen@@SAX_J0AEBU?$evaluator@V?$Matrix@N$0?0$0?0$0A@$0?0$0?0@Eigen@@@23@AEBU?$evaluator@V?$Reshaped@$$CBV?$Matrix@N$0?0$0?0$0A@$0?0$0?0@Eigen@@$0?0$0?0$0A@@Eigen@@@23@0AEAU__m256d@@@Z ; Eigen::internal::etor_product_packet_impl<0,-1,Eigen::internal::evaluator<Eigen::Matrix<double,-1,-1,0,-1,-1> >,Eigen::internal::evaluator<Eigen::Reshaped<Eigen::Matrix<double,-1,-1,0,-1,-1> const ,-1,-1,0> >,__m256d,0>::run
PUBLIC	??1?$evaluator_base@V?$CwiseBinaryOp@U?$scalar_conj_product_op@NN@internal@Eigen@@$$CBV?$Transpose@$$CBV?$Block@$$CBV?$Matrix@N$0?0$0?0$0A@$0?0$0?0@Eigen@@$00$0?0$0A@@Eigen@@@3@$$CBV?$Block@$$CBV?$Matrix@N$0?0$00$0A@$0?0$00@Eigen@@$0?0$00$00@3@@Eigen@@@internal@Eigen@@QEAA@XZ ; Eigen::internal::evaluator_base<Eigen::CwiseBinaryOp<Eigen::internal::scalar_conj_product_op<double,double>,Eigen::Transpose<Eigen::Block<Eigen::Matrix<double,-1,-1,0,-1,-1> const ,1,-1,0> const > const ,Eigen::Block<Eigen::Matrix<double,-1,1,0,-1,1> const ,-1,1,1> const > >::~evaluator_base<Eigen::CwiseBinaryOp<Eigen::internal::scalar_conj_product_op<double,double>,Eigen::Transpose<Eigen::Block<Eigen::Matrix<double,-1,-1,0,-1,-1> const ,1,-1,0> const > const ,Eigen::Block<Eigen::Matrix<double,-1,1,0,-1,1> const ,-1,1,1> const > >
PUBLIC	??1?$evaluator_base@V?$Block@$$CBV?$Matrix@N$0?0$00$0A@$0?0$00@Eigen@@$0?0$00$00@Eigen@@@internal@Eigen@@QEAA@XZ ; Eigen::internal::evaluator_base<Eigen::Block<Eigen::Matrix<double,-1,1,0,-1,1> const ,-1,1,1> >::~evaluator_base<Eigen::Block<Eigen::Matrix<double,-1,1,0,-1,1> const ,-1,1,1> >
PUBLIC	??0?$redux_evaluator@V?$CwiseBinaryOp@U?$scalar_conj_product_op@NN@internal@Eigen@@$$CBV?$Transpose@$$CBV?$Block@$$CBV?$Matrix@N$0?0$0?0$0A@$0?0$0?0@Eigen@@$00$0?0$0A@@Eigen@@@3@$$CBV?$Block@$$CBV?$Matrix@N$0?0$00$0A@$0?0$00@Eigen@@$0?0$00$00@3@@Eigen@@@internal@Eigen@@QEAA@AEBV?$CwiseBinaryOp@U?$scalar_conj_product_op@NN@internal@Eigen@@$$CBV?$Transpose@$$CBV?$Block@$$CBV?$Matrix@N$0?0$0?0$0A@$0?0$0?0@Eigen@@$00$0?0$0A@@Eigen@@@3@$$CBV?$Block@$$CBV?$Matrix@N$0?0$00$0A@$0?0$00@Eigen@@$0?0$00$00@3@@2@@Z ; Eigen::internal::redux_evaluator<Eigen::CwiseBinaryOp<Eigen::internal::scalar_conj_product_op<double,double>,Eigen::Transpose<Eigen::Block<Eigen::Matrix<double,-1,-1,0,-1,-1> const ,1,-1,0> const > const ,Eigen::Block<Eigen::Matrix<double,-1,1,0,-1,1> const ,-1,1,1> const > >::redux_evaluator<Eigen::CwiseBinaryOp<Eigen::internal::scalar_conj_product_op<double,double>,Eigen::Transpose<Eigen::Block<Eigen::Matrix<double,-1,-1,0,-1,-1> const ,1,-1,0> const > const ,Eigen::Block<Eigen::Matrix<double,-1,1,0,-1,1> const ,-1,1,1> const > >
PUBLIC	??1?$mapbase_evaluator@V?$Block@$$CBV?$Matrix@N$0?0$00$0A@$0?0$00@Eigen@@$0?0$00$00@Eigen@@V?$Matrix@N$0?0$00$0A@$0?0$00@2@@internal@Eigen@@QEAA@XZ ; Eigen::internal::mapbase_evaluator<Eigen::Block<Eigen::Matrix<double,-1,1,0,-1,1> const ,-1,1,1>,Eigen::Matrix<double,-1,1,0,-1,1> >::~mapbase_evaluator<Eigen::Block<Eigen::Matrix<double,-1,1,0,-1,1> const ,-1,1,1>,Eigen::Matrix<double,-1,1,0,-1,1> >
PUBLIC	??1?$block_evaluator@$$CBV?$Matrix@N$0?0$00$0A@$0?0$00@Eigen@@$0?0$00$00$00@internal@Eigen@@QEAA@XZ ; Eigen::internal::block_evaluator<Eigen::Matrix<double,-1,1,0,-1,1> const ,-1,1,1,1>::~block_evaluator<Eigen::Matrix<double,-1,1,0,-1,1> const ,-1,1,1,1>
PUBLIC	??1?$evaluator@V?$Block@$$CBV?$Matrix@N$0?0$00$0A@$0?0$00@Eigen@@$0?0$00$00@Eigen@@@internal@Eigen@@QEAA@XZ ; Eigen::internal::evaluator<Eigen::Block<Eigen::Matrix<double,-1,1,0,-1,1> const ,-1,1,1> >::~evaluator<Eigen::Block<Eigen::Matrix<double,-1,1,0,-1,1> const ,-1,1,1> >
PUBLIC	??1?$evaluator@$$CBV?$Block@$$CBV?$Matrix@N$0?0$00$0A@$0?0$00@Eigen@@$0?0$00$00@Eigen@@@internal@Eigen@@QEAA@XZ ; Eigen::internal::evaluator<Eigen::Block<Eigen::Matrix<double,-1,1,0,-1,1> const ,-1,1,1> const >::~evaluator<Eigen::Block<Eigen::Matrix<double,-1,1,0,-1,1> const ,-1,1,1> const >
PUBLIC	??1Data@?$binary_evaluator@V?$CwiseBinaryOp@U?$scalar_conj_product_op@NN@internal@Eigen@@$$CBV?$Transpose@$$CBV?$Block@$$CBV?$Matrix@N$0?0$0?0$0A@$0?0$0?0@Eigen@@$00$0?0$0A@@Eigen@@@3@$$CBV?$Block@$$CBV?$Matrix@N$0?0$00$0A@$0?0$00@Eigen@@$0?0$00$00@3@@Eigen@@UIndexBased@internal@2@U342@NN@internal@Eigen@@QEAA@XZ ; Eigen::internal::binary_evaluator<Eigen::CwiseBinaryOp<Eigen::internal::scalar_conj_product_op<double,double>,Eigen::Transpose<Eigen::Block<Eigen::Matrix<double,-1,-1,0,-1,-1> const ,1,-1,0> const > const ,Eigen::Block<Eigen::Matrix<double,-1,1,0,-1,1> const ,-1,1,1> const >,Eigen::internal::IndexBased,Eigen::internal::IndexBased,double,double>::Data::~Data
PUBLIC	??1?$binary_evaluator@V?$CwiseBinaryOp@U?$scalar_conj_product_op@NN@internal@Eigen@@$$CBV?$Transpose@$$CBV?$Block@$$CBV?$Matrix@N$0?0$0?0$0A@$0?0$0?0@Eigen@@$00$0?0$0A@@Eigen@@@3@$$CBV?$Block@$$CBV?$Matrix@N$0?0$00$0A@$0?0$00@Eigen@@$0?0$00$00@3@@Eigen@@UIndexBased@internal@2@U342@NN@internal@Eigen@@QEAA@XZ ; Eigen::internal::binary_evaluator<Eigen::CwiseBinaryOp<Eigen::internal::scalar_conj_product_op<double,double>,Eigen::Transpose<Eigen::Block<Eigen::Matrix<double,-1,-1,0,-1,-1> const ,1,-1,0> const > const ,Eigen::Block<Eigen::Matrix<double,-1,1,0,-1,1> const ,-1,1,1> const >,Eigen::internal::IndexBased,Eigen::internal::IndexBased,double,double>::~binary_evaluator<Eigen::CwiseBinaryOp<Eigen::internal::scalar_conj_product_op<double,double>,Eigen::Transpose<Eigen::Block<Eigen::Matrix<double,-1,-1,0,-1,-1> const ,1,-1,0> const > const ,Eigen::Block<Eigen::Matrix<double,-1,1,0,-1,1> const ,-1,1,1> const >,Eigen::internal::IndexBased,Eigen::internal::IndexBased,double,double>
PUBLIC	??1?$evaluator@V?$CwiseBinaryOp@U?$scalar_conj_product_op@NN@internal@Eigen@@$$CBV?$Transpose@$$CBV?$Block@$$CBV?$Matrix@N$0?0$0?0$0A@$0?0$0?0@Eigen@@$00$0?0$0A@@Eigen@@@3@$$CBV?$Block@$$CBV?$Matrix@N$0?0$00$0A@$0?0$00@Eigen@@$0?0$00$00@3@@Eigen@@@internal@Eigen@@QEAA@XZ ; Eigen::internal::evaluator<Eigen::CwiseBinaryOp<Eigen::internal::scalar_conj_product_op<double,double>,Eigen::Transpose<Eigen::Block<Eigen::Matrix<double,-1,-1,0,-1,-1> const ,1,-1,0> const > const ,Eigen::Block<Eigen::Matrix<double,-1,1,0,-1,1> const ,-1,1,1> const > >::~evaluator<Eigen::CwiseBinaryOp<Eigen::internal::scalar_conj_product_op<double,double>,Eigen::Transpose<Eigen::Block<Eigen::Matrix<double,-1,-1,0,-1,-1> const ,1,-1,0> const > const ,Eigen::Block<Eigen::Matrix<double,-1,1,0,-1,1> const ,-1,1,1> const > >
PUBLIC	??1?$redux_evaluator@V?$CwiseBinaryOp@U?$scalar_conj_product_op@NN@internal@Eigen@@$$CBV?$Transpose@$$CBV?$Block@$$CBV?$Matrix@N$0?0$0?0$0A@$0?0$0?0@Eigen@@$00$0?0$0A@@Eigen@@@3@$$CBV?$Block@$$CBV?$Matrix@N$0?0$00$0A@$0?0$00@Eigen@@$0?0$00$00@3@@Eigen@@@internal@Eigen@@QEAA@XZ ; Eigen::internal::redux_evaluator<Eigen::CwiseBinaryOp<Eigen::internal::scalar_conj_product_op<double,double>,Eigen::Transpose<Eigen::Block<Eigen::Matrix<double,-1,-1,0,-1,-1> const ,1,-1,0> const > const ,Eigen::Block<Eigen::Matrix<double,-1,1,0,-1,1> const ,-1,1,1> const > >::~redux_evaluator<Eigen::CwiseBinaryOp<Eigen::internal::scalar_conj_product_op<double,double>,Eigen::Transpose<Eigen::Block<Eigen::Matrix<double,-1,-1,0,-1,-1> const ,1,-1,0> const > const ,Eigen::Block<Eigen::Matrix<double,-1,1,0,-1,1> const ,-1,1,1> const > >
PUBLIC	??$redux@U?$scalar_sum_op@NN@internal@Eigen@@@?$DenseBase@V?$CwiseBinaryOp@U?$scalar_conj_product_op@NN@internal@Eigen@@$$CBV?$Transpose@$$CBV?$Block@$$CBV?$Matrix@N$0?0$0?0$0A@$0?0$0?0@Eigen@@$00$0?0$0A@@Eigen@@@3@$$CBV?$Block@$$CBV?$Matrix@N$0?0$00$0A@$0?0$00@Eigen@@$0?0$00$00@3@@Eigen@@@Eigen@@QEBANAEBU?$scalar_sum_op@NN@internal@1@@Z ; Eigen::DenseBase<Eigen::CwiseBinaryOp<Eigen::internal::scalar_conj_product_op<double,double>,Eigen::Transpose<Eigen::Block<Eigen::Matrix<double,-1,-1,0,-1,-1> const ,1,-1,0> const > const ,Eigen::Block<Eigen::Matrix<double,-1,1,0,-1,1> const ,-1,1,1> const > >::redux<Eigen::internal::scalar_sum_op<double,double> >
PUBLIC	??$run@V?$CwiseBinaryOp@U?$scalar_product_op@NN@internal@Eigen@@$$CBV?$Transpose@$$CBV?$Block@$$CBV?$Matrix@N$0?0$0?0$0A@$0?0$0?0@Eigen@@$00$0?0$0A@@Eigen@@@3@$$CBV?$Block@$$CBV?$Reshaped@$$CBV?$Matrix@N$0?0$0?0$0A@$0?0$0?0@Eigen@@$0?0$0?0$0A@@Eigen@@$0?0$00$00@3@@Eigen@@@?$redux_impl@U?$scalar_sum_op@NN@internal@Eigen@@V?$redux_evaluator@V?$CwiseBinaryOp@U?$scalar_product_op@NN@internal@Eigen@@$$CBV?$Transpose@$$CBV?$Block@$$CBV?$Matrix@N$0?0$0?0$0A@$0?0$0?0@Eigen@@$00$0?0$0A@@Eigen@@@3@$$CBV?$Block@$$CBV?$Reshaped@$$CBV?$Matrix@N$0?0$0?0$0A@$0?0$0?0@Eigen@@$0?0$0?0$0A@@Eigen@@$0?0$00$00@3@@Eigen@@@23@$0A@$0A@@internal@Eigen@@SANAEBV?$redux_evaluator@V?$CwiseBinaryOp@U?$scalar_product_op@NN@internal@Eigen@@$$CBV?$Transpose@$$CBV?$Block@$$CBV?$Matrix@N$0?0$0?0$0A@$0?0$0?0@Eigen@@$00$0?0$0A@@Eigen@@@3@$$CBV?$Block@$$CBV?$Reshaped@$$CBV?$Matrix@N$0?0$0?0$0A@$0?0$0?0@Eigen@@$0?0$0?0$0A@@Eigen@@$0?0$00$00@3@@Eigen@@@12@AEBU?$scalar_sum_op@NN@12@AEBV?$CwiseBinaryOp@U?$scalar_product_op@NN@internal@Eigen@@$$CBV?$Transpose@$$CBV?$Block@$$CBV?$Matrix@N$0?0$0?0$0A@$0?0$0?0@Eigen@@$00$0?0$0A@@Eigen@@@3@$$CBV?$Block@$$CBV?$Reshaped@$$CBV?$Matrix@N$0?0$0?0$0A@$0?0$0?0@Eigen@@$0?0$0?0$0A@@Eigen@@$0?0$00$00@3@@2@@Z ; Eigen::internal::redux_impl<Eigen::internal::scalar_sum_op<double,double>,Eigen::internal::redux_evaluator<Eigen::CwiseBinaryOp<Eigen::internal::scalar_product_op<double,double>,Eigen::Transpose<Eigen::Block<Eigen::Matrix<double,-1,-1,0,-1,-1> const ,1,-1,0> const > const ,Eigen::Block<Eigen::Reshaped<Eigen::Matrix<double,-1,-1,0,-1,-1> const ,-1,-1,0> const ,-1,1,1> const > >,0,0>::run<Eigen::CwiseBinaryOp<Eigen::internal::scalar_product_op<double,double>,Eigen::Transpose<Eigen::Block<Eigen::Matrix<double,-1,-1,0,-1,-1> const ,1,-1,0> const > const ,Eigen::Block<Eigen::Reshaped<Eigen::Matrix<double,-1,-1,0,-1,-1> const ,-1,-1,0> const ,-1,1,1> const > >
PUBLIC	??$packet@$0A@U__m256d@@@?$product_evaluator@V?$Product@V?$Matrix@N$0?0$0?0$0A@$0?0$0?0@Eigen@@V?$Reshaped@$$CBV?$Matrix@N$0?0$0?0$0A@$0?0$0?0@Eigen@@$0?0$0?0$0A@@2@$00@Eigen@@$07UDenseShape@2@U32@NN@internal@Eigen@@QEBA?BU__m256d@@_J0@Z ; Eigen::internal::product_evaluator<Eigen::Product<Eigen::Matrix<double,-1,-1,0,-1,-1>,Eigen::Reshaped<Eigen::Matrix<double,-1,-1,0,-1,-1> const ,-1,-1,0>,1>,8,Eigen::DenseShape,Eigen::DenseShape,double,double>::packet<0,__m256d>
PUBLIC	??$run@V?$CwiseBinaryOp@U?$scalar_conj_product_op@NN@internal@Eigen@@$$CBV?$Transpose@$$CBV?$Block@$$CBV?$Matrix@N$0?0$0?0$0A@$0?0$0?0@Eigen@@$00$0?0$0A@@Eigen@@@3@$$CBV?$Block@$$CBV?$Block@$$CBV?$Reshaped@$$CBV?$Matrix@N$0?0$0?0$0A@$0?0$0?0@Eigen@@$0?0$0?0$0A@@Eigen@@$0?0$00$00@Eigen@@$0?0$00$00@3@@Eigen@@@?$redux_impl@U?$scalar_sum_op@NN@internal@Eigen@@V?$redux_evaluator@V?$CwiseBinaryOp@U?$scalar_conj_product_op@NN@internal@Eigen@@$$CBV?$Transpose@$$CBV?$Block@$$CBV?$Matrix@N$0?0$0?0$0A@$0?0$0?0@Eigen@@$00$0?0$0A@@Eigen@@@3@$$CBV?$Block@$$CBV?$Block@$$CBV?$Reshaped@$$CBV?$Matrix@N$0?0$0?0$0A@$0?0$0?0@Eigen@@$0?0$0?0$0A@@Eigen@@$0?0$00$00@Eigen@@$0?0$00$00@3@@Eigen@@@23@$0A@$0A@@internal@Eigen@@SANAEBV?$redux_evaluator@V?$CwiseBinaryOp@U?$scalar_conj_product_op@NN@internal@Eigen@@$$CBV?$Transpose@$$CBV?$Block@$$CBV?$Matrix@N$0?0$0?0$0A@$0?0$0?0@Eigen@@$00$0?0$0A@@Eigen@@@3@$$CBV?$Block@$$CBV?$Block@$$CBV?$Reshaped@$$CBV?$Matrix@N$0?0$0?0$0A@$0?0$0?0@Eigen@@$0?0$0?0$0A@@Eigen@@$0?0$00$00@Eigen@@$0?0$00$00@3@@Eigen@@@12@AEBU?$scalar_sum_op@NN@12@AEBV?$CwiseBinaryOp@U?$scalar_conj_product_op@NN@internal@Eigen@@$$CBV?$Transpose@$$CBV?$Block@$$CBV?$Matrix@N$0?0$0?0$0A@$0?0$0?0@Eigen@@$00$0?0$0A@@Eigen@@@3@$$CBV?$Block@$$CBV?$Block@$$CBV?$Reshaped@$$CBV?$Matrix@N$0?0$0?0$0A@$0?0$0?0@Eigen@@$0?0$0?0$0A@@Eigen@@$0?0$00$00@Eigen@@$0?0$00$00@3@@2@@Z ; Eigen::internal::redux_impl<Eigen::internal::scalar_sum_op<double,double>,Eigen::internal::redux_evaluator<Eigen::CwiseBinaryOp<Eigen::internal::scalar_conj_product_op<double,double>,Eigen::Transpose<Eigen::Block<Eigen::Matrix<double,-1,-1,0,-1,-1> const ,1,-1,0> const > const ,Eigen::Block<Eigen::Block<Eigen::Reshaped<Eigen::Matrix<double,-1,-1,0,-1,-1> const ,-1,-1,0> const ,-1,1,1> const ,-1,1,1> const > >,0,0>::run<Eigen::CwiseBinaryOp<Eigen::internal::scalar_conj_product_op<double,double>,Eigen::Transpose<Eigen::Block<Eigen::Matrix<double,-1,-1,0,-1,-1> const ,1,-1,0> const > const ,Eigen::Block<Eigen::Block<Eigen::Reshaped<Eigen::Matrix<double,-1,-1,0,-1,-1> const ,-1,-1,0> const ,-1,1,1> const ,-1,1,1> const > >
PUBLIC	??$run@V?$CwiseBinaryOp@U?$scalar_conj_product_op@NN@internal@Eigen@@$$CBV?$Transpose@$$CBV?$Block@$$CBV?$Block@$$CBV?$Matrix@N$0?0$0?0$0A@$0?0$0?0@Eigen@@$00$0?0$0A@@Eigen@@$00$0?0$00@Eigen@@@3@$$CBV?$Block@$$CBV?$Reshaped@$$CBV?$Matrix@N$0?0$0?0$0A@$0?0$0?0@Eigen@@$0?0$0?0$0A@@Eigen@@$0?0$00$00@3@@Eigen@@@?$redux_impl@U?$scalar_sum_op@NN@internal@Eigen@@V?$redux_evaluator@V?$CwiseBinaryOp@U?$scalar_conj_product_op@NN@internal@Eigen@@$$CBV?$Transpose@$$CBV?$Block@$$CBV?$Block@$$CBV?$Matrix@N$0?0$0?0$0A@$0?0$0?0@Eigen@@$00$0?0$0A@@Eigen@@$00$0?0$00@Eigen@@@3@$$CBV?$Block@$$CBV?$Reshaped@$$CBV?$Matrix@N$0?0$0?0$0A@$0?0$0?0@Eigen@@$0?0$0?0$0A@@Eigen@@$0?0$00$00@3@@Eigen@@@23@$0A@$0A@@internal@Eigen@@SANAEBV?$redux_evaluator@V?$CwiseBinaryOp@U?$scalar_conj_product_op@NN@internal@Eigen@@$$CBV?$Transpose@$$CBV?$Block@$$CBV?$Block@$$CBV?$Matrix@N$0?0$0?0$0A@$0?0$0?0@Eigen@@$00$0?0$0A@@Eigen@@$00$0?0$00@Eigen@@@3@$$CBV?$Block@$$CBV?$Reshaped@$$CBV?$Matrix@N$0?0$0?0$0A@$0?0$0?0@Eigen@@$0?0$0?0$0A@@Eigen@@$0?0$00$00@3@@Eigen@@@12@AEBU?$scalar_sum_op@NN@12@AEBV?$CwiseBinaryOp@U?$scalar_conj_product_op@NN@internal@Eigen@@$$CBV?$Transpose@$$CBV?$Block@$$CBV?$Block@$$CBV?$Matrix@N$0?0$0?0$0A@$0?0$0?0@Eigen@@$00$0?0$0A@@Eigen@@$00$0?0$00@Eigen@@@3@$$CBV?$Block@$$CBV?$Reshaped@$$CBV?$Matrix@N$0?0$0?0$0A@$0?0$0?0@Eigen@@$0?0$0?0$0A@@Eigen@@$0?0$00$00@3@@2@@Z ; Eigen::internal::redux_impl<Eigen::internal::scalar_sum_op<double,double>,Eigen::internal::redux_evaluator<Eigen::CwiseBinaryOp<Eigen::internal::scalar_conj_product_op<double,double>,Eigen::Transpose<Eigen::Block<Eigen::Block<Eigen::Matrix<double,-1,-1,0,-1,-1> const ,1,-1,0> const ,1,-1,1> const > const ,Eigen::Block<Eigen::Reshaped<Eigen::Matrix<double,-1,-1,0,-1,-1> const ,-1,-1,0> const ,-1,1,1> const > >,0,0>::run<Eigen::CwiseBinaryOp<Eigen::internal::scalar_conj_product_op<double,double>,Eigen::Transpose<Eigen::Block<Eigen::Block<Eigen::Matrix<double,-1,-1,0,-1,-1> const ,1,-1,0> const ,1,-1,1> const > const ,Eigen::Block<Eigen::Reshaped<Eigen::Matrix<double,-1,-1,0,-1,-1> const ,-1,-1,0> const ,-1,1,1> const > >
PUBLIC	??$_set@V?$Map@V?$Matrix@N$0?0$00$0A@$0?0$00@Eigen@@$03V?$Stride@$0A@$0A@@2@@Eigen@@@?$PlainObjectBase@V?$Matrix@N$0?0$00$0A@$0?0$00@Eigen@@@Eigen@@IEAAAEAV?$Matrix@N$0?0$00$0A@$0?0$00@1@AEBV?$DenseBase@V?$Map@V?$Matrix@N$0?0$00$0A@$0?0$00@Eigen@@$03V?$Stride@$0A@$0A@@2@@Eigen@@@1@@Z ; Eigen::PlainObjectBase<Eigen::Matrix<double,-1,1,0,-1,1> >::_set<Eigen::Map<Eigen::Matrix<double,-1,1,0,-1,1>,4,Eigen::Stride<0,0> > >
PUBLIC	??$call_assignment@V?$Matrix@N$0?0$00$0A@$0?0$00@Eigen@@V?$CwiseBinaryOp@U?$scalar_product_op@NN@internal@Eigen@@$$CBV?$CwiseNullaryOp@U?$scalar_constant_op@N@internal@Eigen@@$$CBV?$Matrix@N$0?0$00$0A@$0?0$00@3@@3@$$CBV?$Map@V?$Matrix@N$0?0$00$0A@$0?0$00@Eigen@@$03V?$Stride@$0A@$0A@@2@@3@@2@U?$add_assign_op@NN@internal@2@@internal@Eigen@@YAXAEAV?$Matrix@N$0?0$00$0A@$0?0$00@1@AEBV?$CwiseBinaryOp@U?$scalar_product_op@NN@internal@Eigen@@$$CBV?$CwiseNullaryOp@U?$scalar_constant_op@N@internal@Eigen@@$$CBV?$Matrix@N$0?0$00$0A@$0?0$00@3@@3@$$CBV?$Map@V?$Matrix@N$0?0$00$0A@$0?0$00@Eigen@@$03V?$Stride@$0A@$0A@@2@@3@@1@AEBU?$add_assign_op@NN@01@PEAX@Z ; Eigen::internal::call_assignment<Eigen::Matrix<double,-1,1,0,-1,1>,Eigen::CwiseBinaryOp<Eigen::internal::scalar_product_op<double,double>,Eigen::CwiseNullaryOp<Eigen::internal::scalar_constant_op<double>,Eigen::Matrix<double,-1,1,0,-1,1> const > const ,Eigen::Map<Eigen::Matrix<double,-1,1,0,-1,1>,4,Eigen::Stride<0,0> > const >,Eigen::internal::add_assign_op<double,double> >
PUBLIC	??$call_assignment@V?$Map@V?$Matrix@N$0?0$00$0A@$0?0$00@Eigen@@$03V?$Stride@$0A@$0A@@2@@Eigen@@V?$Matrix@N$0?0$00$0A@$0?0$00@2@@internal@Eigen@@YAXAEAV?$Map@V?$Matrix@N$0?0$00$0A@$0?0$00@Eigen@@$03V?$Stride@$0A@$0A@@2@@1@AEBV?$Matrix@N$0?0$00$0A@$0?0$00@1@@Z ; Eigen::internal::call_assignment<Eigen::Map<Eigen::Matrix<double,-1,1,0,-1,1>,4,Eigen::Stride<0,0> >,Eigen::Matrix<double,-1,1,0,-1,1> >
PUBLIC	??$load@U__m128d@@$0A@@?$blas_data_mapper@$$CBN_J$00$0A@$00@internal@Eigen@@QEBA?AU__m128d@@_J0@Z ; Eigen::internal::blas_data_mapper<double const ,__int64,1,0,1>::load<__m128d,0>
PUBLIC	??$load@U__m256d@@$0A@@?$blas_data_mapper@$$CBN_J$00$0A@$00@internal@Eigen@@QEBA?AU__m256d@@_J0@Z ; Eigen::internal::blas_data_mapper<double const ,__int64,1,0,1>::load<__m256d,0>
PUBLIC	??$call_assignment@V?$Map@V?$Matrix@N$0?0$00$0A@$0?0$00@Eigen@@$0A@V?$Stride@$0A@$0A@@2@@Eigen@@V?$Transpose@$$CBV?$Block@$$CBV?$Matrix@N$0?0$0?0$0A@$0?0$0?0@Eigen@@$00$0?0$0A@@Eigen@@@2@@internal@Eigen@@YAXAEAV?$Map@V?$Matrix@N$0?0$00$0A@$0?0$00@Eigen@@$0A@V?$Stride@$0A@$0A@@2@@1@AEBV?$Transpose@$$CBV?$Block@$$CBV?$Matrix@N$0?0$0?0$0A@$0?0$0?0@Eigen@@$00$0?0$0A@@Eigen@@@1@@Z ; Eigen::internal::call_assignment<Eigen::Map<Eigen::Matrix<double,-1,1,0,-1,1>,0,Eigen::Stride<0,0> >,Eigen::Transpose<Eigen::Block<Eigen::Matrix<double,-1,-1,0,-1,-1> const ,1,-1,0> const > >
PUBLIC	??$call_assignment@V?$Block@V?$Matrix@N$0?0$0?0$0A@$0?0$0?0@Eigen@@$0?0$00$00@Eigen@@V?$Map@V?$Matrix@N$0?0$00$0A@$0?0$00@Eigen@@$03V?$Stride@$0A@$0A@@2@@2@U?$assign_op@NN@internal@2@@internal@Eigen@@YAXAEAV?$Block@V?$Matrix@N$0?0$0?0$0A@$0?0$0?0@Eigen@@$0?0$00$00@1@AEBV?$Map@V?$Matrix@N$0?0$00$0A@$0?0$00@Eigen@@$03V?$Stride@$0A@$0A@@2@@1@AEBU?$assign_op@NN@01@PEAX@Z ; Eigen::internal::call_assignment<Eigen::Block<Eigen::Matrix<double,-1,-1,0,-1,-1>,-1,1,1>,Eigen::Map<Eigen::Matrix<double,-1,1,0,-1,1>,4,Eigen::Stride<0,0> >,Eigen::internal::assign_op<double,double> >
PUBLIC	??$call_assignment_no_alias@V?$Block@V?$Matrix@N$0?0$0?0$0A@$0?0$0?0@Eigen@@$0?0$00$00@Eigen@@V?$CwiseBinaryOp@U?$scalar_product_op@NN@internal@Eigen@@$$CBV?$CwiseNullaryOp@U?$scalar_constant_op@N@internal@Eigen@@$$CBV?$Matrix@N$0?0$00$0A@$0?0$00@3@@3@$$CBV?$Map@V?$Matrix@N$0?0$00$0A@$0?0$00@Eigen@@$03V?$Stride@$0A@$0A@@2@@3@@2@U?$add_assign_op@NN@internal@2@@internal@Eigen@@YAXAEAV?$Block@V?$Matrix@N$0?0$0?0$0A@$0?0$0?0@Eigen@@$0?0$00$00@1@AEBV?$CwiseBinaryOp@U?$scalar_product_op@NN@internal@Eigen@@$$CBV?$CwiseNullaryOp@U?$scalar_constant_op@N@internal@Eigen@@$$CBV?$Matrix@N$0?0$00$0A@$0?0$00@3@@3@$$CBV?$Map@V?$Matrix@N$0?0$00$0A@$0?0$00@Eigen@@$03V?$Stride@$0A@$0A@@2@@3@@1@AEBU?$add_assign_op@NN@01@@Z ; Eigen::internal::call_assignment_no_alias<Eigen::Block<Eigen::Matrix<double,-1,-1,0,-1,-1>,-1,1,1>,Eigen::CwiseBinaryOp<Eigen::internal::scalar_product_op<double,double>,Eigen::CwiseNullaryOp<Eigen::internal::scalar_constant_op<double>,Eigen::Matrix<double,-1,1,0,-1,1> const > const ,Eigen::Map<Eigen::Matrix<double,-1,1,0,-1,1>,4,Eigen::Stride<0,0> > const >,Eigen::internal::add_assign_op<double,double> >
PUBLIC	??$call_assignment@V?$Map@V?$Matrix@N$0?0$00$0A@$0?0$00@Eigen@@$03V?$Stride@$0A@$0A@@2@@Eigen@@V?$Block@V?$Matrix@N$0?0$0?0$0A@$0?0$0?0@Eigen@@$0?0$00$00@2@U?$assign_op@NN@internal@2@@internal@Eigen@@YAXAEAV?$Map@V?$Matrix@N$0?0$00$0A@$0?0$00@Eigen@@$03V?$Stride@$0A@$0A@@2@@1@AEBV?$Block@V?$Matrix@N$0?0$0?0$0A@$0?0$0?0@Eigen@@$0?0$00$00@1@AEBU?$assign_op@NN@01@PEAX@Z ; Eigen::internal::call_assignment<Eigen::Map<Eigen::Matrix<double,-1,1,0,-1,1>,4,Eigen::Stride<0,0> >,Eigen::Block<Eigen::Matrix<double,-1,-1,0,-1,-1>,-1,1,1>,Eigen::internal::assign_op<double,double> >
PUBLIC	??$call_assignment@V?$Matrix@N$0?0$0?0$0A@$0?0$0?0@Eigen@@V?$CwiseNullaryOp@U?$scalar_constant_op@N@internal@Eigen@@V?$Matrix@N$0?0$0?0$0A@$0?0$0?0@3@@2@U?$assign_op@NN@internal@2@@internal@Eigen@@YAXAEAV?$Matrix@N$0?0$0?0$0A@$0?0$0?0@1@AEBV?$CwiseNullaryOp@U?$scalar_constant_op@N@internal@Eigen@@V?$Matrix@N$0?0$0?0$0A@$0?0$0?0@3@@1@AEBU?$assign_op@NN@01@PEAX@Z ; Eigen::internal::call_assignment<Eigen::Matrix<double,-1,-1,0,-1,-1>,Eigen::CwiseNullaryOp<Eigen::internal::scalar_constant_op<double>,Eigen::Matrix<double,-1,-1,0,-1,-1> >,Eigen::internal::assign_op<double,double> >
PUBLIC	??$call_assignment@V?$Matrix@N$0?0$00$0A@$0?0$00@Eigen@@V?$CwiseNullaryOp@U?$scalar_constant_op@N@internal@Eigen@@V?$Matrix@N$0?0$00$0A@$0?0$00@3@@2@@internal@Eigen@@YAXAEAV?$Matrix@N$0?0$00$0A@$0?0$00@1@AEBV?$CwiseNullaryOp@U?$scalar_constant_op@N@internal@Eigen@@V?$Matrix@N$0?0$00$0A@$0?0$00@3@@1@@Z ; Eigen::internal::call_assignment<Eigen::Matrix<double,-1,1,0,-1,1>,Eigen::CwiseNullaryOp<Eigen::internal::scalar_constant_op<double>,Eigen::Matrix<double,-1,1,0,-1,1> > >
PUBLIC	??$?4V?$CwiseNullaryOp@U?$scalar_constant_op@N@internal@Eigen@@V?$Matrix@N$0?0$00$0A@$0?0$00@3@@Eigen@@@?$MatrixBase@V?$Map@V?$Matrix@N$0?0$00$0A@$0?0$00@Eigen@@$03V?$Stride@$0A@$0A@@2@@Eigen@@@Eigen@@QEAAAEAV?$Map@V?$Matrix@N$0?0$00$0A@$0?0$00@Eigen@@$03V?$Stride@$0A@$0A@@2@@1@AEBV?$DenseBase@V?$CwiseNullaryOp@U?$scalar_constant_op@N@internal@Eigen@@V?$Matrix@N$0?0$00$0A@$0?0$00@3@@Eigen@@@1@@Z ; Eigen::MatrixBase<Eigen::Map<Eigen::Matrix<double,-1,1,0,-1,1>,4,Eigen::Stride<0,0> > >::operator=<Eigen::CwiseNullaryOp<Eigen::internal::scalar_constant_op<double>,Eigen::Matrix<double,-1,1,0,-1,1> > >
PUBLIC	?Constant@?$DenseBase@V?$Map@V?$Matrix@N$0?0$00$0A@$0?0$00@Eigen@@$03V?$Stride@$0A@$0A@@2@@Eigen@@@Eigen@@SA?BV?$CwiseNullaryOp@U?$scalar_constant_op@N@internal@Eigen@@V?$Matrix@N$0?0$00$0A@$0?0$00@3@@2@_J0AEBN@Z ; Eigen::DenseBase<Eigen::Map<Eigen::Matrix<double,-1,1,0,-1,1>,4,Eigen::Stride<0,0> > >::Constant
PUBLIC	??0?$evaluator_base@V?$Block@$$CBV?$Matrix@N$0?0$0?0$0A@$0?0$0?0@Eigen@@$00$0?0$0A@@Eigen@@@internal@Eigen@@QEAA@XZ ; Eigen::internal::evaluator_base<Eigen::Block<Eigen::Matrix<double,-1,-1,0,-1,-1> const ,1,-1,0> >::evaluator_base<Eigen::Block<Eigen::Matrix<double,-1,-1,0,-1,-1> const ,1,-1,0> >
PUBLIC	?innerStride@?$BlockImpl_dense@$$CBV?$Block@$$CBV?$Matrix@N$0?0$0?0$0A@$0?0$0?0@Eigen@@$00$0?0$0A@@Eigen@@$00$0?0$00$00@internal@Eigen@@QEBA_JXZ ; Eigen::internal::BlockImpl_dense<Eigen::Block<Eigen::Matrix<double,-1,-1,0,-1,-1> const ,1,-1,0> const ,1,-1,1,1>::innerStride
PUBLIC	?outerStride@?$BlockImpl_dense@$$CBV?$Block@$$CBV?$Matrix@N$0?0$0?0$0A@$0?0$0?0@Eigen@@$00$0?0$0A@@Eigen@@$00$0?0$00$00@internal@Eigen@@QEBA_JXZ ; Eigen::internal::BlockImpl_dense<Eigen::Block<Eigen::Matrix<double,-1,-1,0,-1,-1> const ,1,-1,0> const ,1,-1,1,1>::outerStride
PUBLIC	??0?$evaluator_base@V?$Block@$$CBV?$Block@$$CBV?$Matrix@N$0?0$0?0$0A@$0?0$0?0@Eigen@@$00$0?0$0A@@Eigen@@$00$0?0$00@Eigen@@@internal@Eigen@@QEAA@XZ ; Eigen::internal::evaluator_base<Eigen::Block<Eigen::Block<Eigen::Matrix<double,-1,-1,0,-1,-1> const ,1,-1,0> const ,1,-1,1> >::evaluator_base<Eigen::Block<Eigen::Block<Eigen::Matrix<double,-1,-1,0,-1,-1> const ,1,-1,0> const ,1,-1,1> >
PUBLIC	??0?$mapbase_evaluator@V?$Block@$$CBV?$Matrix@N$0?0$0?0$0A@$0?0$0?0@Eigen@@$00$0?0$0A@@Eigen@@V?$Matrix@N$00$0?0$00$00$0?0@2@@internal@Eigen@@QEAA@AEBV?$Block@$$CBV?$Matrix@N$0?0$0?0$0A@$0?0$0?0@Eigen@@$00$0?0$0A@@2@@Z ; Eigen::internal::mapbase_evaluator<Eigen::Block<Eigen::Matrix<double,-1,-1,0,-1,-1> const ,1,-1,0>,Eigen::Matrix<double,1,-1,1,1,-1> >::mapbase_evaluator<Eigen::Block<Eigen::Matrix<double,-1,-1,0,-1,-1> const ,1,-1,0>,Eigen::Matrix<double,1,-1,1,1,-1> >
PUBLIC	?data@?$MapBase@V?$Block@$$CBV?$Block@$$CBV?$Matrix@N$0?0$0?0$0A@$0?0$0?0@Eigen@@$00$0?0$0A@@Eigen@@$00$0?0$00@Eigen@@$0A@@Eigen@@QEBAPEBNXZ ; Eigen::MapBase<Eigen::Block<Eigen::Block<Eigen::Matrix<double,-1,-1,0,-1,-1> const ,1,-1,0> const ,1,-1,1>,0>::data
PUBLIC	??0?$mapbase_evaluator@V?$Block@$$CBV?$Block@$$CBV?$Matrix@N$0?0$0?0$0A@$0?0$0?0@Eigen@@$00$0?0$0A@@Eigen@@$00$0?0$00@Eigen@@V?$Matrix@N$00$0?0$00$00$0?0@2@@internal@Eigen@@QEAA@AEBV?$Block@$$CBV?$Block@$$CBV?$Matrix@N$0?0$0?0$0A@$0?0$0?0@Eigen@@$00$0?0$0A@@Eigen@@$00$0?0$00@2@@Z ; Eigen::internal::mapbase_evaluator<Eigen::Block<Eigen::Block<Eigen::Matrix<double,-1,-1,0,-1,-1> const ,1,-1,0> const ,1,-1,1>,Eigen::Matrix<double,1,-1,1,1,-1> >::mapbase_evaluator<Eigen::Block<Eigen::Block<Eigen::Matrix<double,-1,-1,0,-1,-1> const ,1,-1,0> const ,1,-1,1>,Eigen::Matrix<double,1,-1,1,1,-1> >
PUBLIC	??0?$block_evaluator@$$CBV?$Matrix@N$0?0$0?0$0A@$0?0$0?0@Eigen@@$00$0?0$0A@$00@internal@Eigen@@QEAA@AEBV?$Block@$$CBV?$Matrix@N$0?0$0?0$0A@$0?0$0?0@Eigen@@$00$0?0$0A@@2@@Z ; Eigen::internal::block_evaluator<Eigen::Matrix<double,-1,-1,0,-1,-1> const ,1,-1,0,1>::block_evaluator<Eigen::Matrix<double,-1,-1,0,-1,-1> const ,1,-1,0,1>
PUBLIC	??0?$block_evaluator@$$CBV?$Block@$$CBV?$Matrix@N$0?0$0?0$0A@$0?0$0?0@Eigen@@$00$0?0$0A@@Eigen@@$00$0?0$00$00@internal@Eigen@@QEAA@AEBV?$Block@$$CBV?$Block@$$CBV?$Matrix@N$0?0$0?0$0A@$0?0$0?0@Eigen@@$00$0?0$0A@@Eigen@@$00$0?0$00@2@@Z ; Eigen::internal::block_evaluator<Eigen::Block<Eigen::Matrix<double,-1,-1,0,-1,-1> const ,1,-1,0> const ,1,-1,1,1>::block_evaluator<Eigen::Block<Eigen::Matrix<double,-1,-1,0,-1,-1> const ,1,-1,0> const ,1,-1,1,1>
PUBLIC	??0?$evaluator_base@V?$Block@$$CBV?$Reshaped@$$CBV?$Matrix@N$0?0$0?0$0A@$0?0$0?0@Eigen@@$0?0$0?0$0A@@Eigen@@$0?0$00$00@Eigen@@@internal@Eigen@@QEAA@XZ ; Eigen::internal::evaluator_base<Eigen::Block<Eigen::Reshaped<Eigen::Matrix<double,-1,-1,0,-1,-1> const ,-1,-1,0> const ,-1,1,1> >::evaluator_base<Eigen::Block<Eigen::Reshaped<Eigen::Matrix<double,-1,-1,0,-1,-1> const ,-1,-1,0> const ,-1,1,1> >
PUBLIC	??0?$evaluator@V?$Block@$$CBV?$Matrix@N$0?0$0?0$0A@$0?0$0?0@Eigen@@$00$0?0$0A@@Eigen@@@internal@Eigen@@QEAA@AEBV?$Block@$$CBV?$Matrix@N$0?0$0?0$0A@$0?0$0?0@Eigen@@$00$0?0$0A@@2@@Z ; Eigen::internal::evaluator<Eigen::Block<Eigen::Matrix<double,-1,-1,0,-1,-1> const ,1,-1,0> >::evaluator<Eigen::Block<Eigen::Matrix<double,-1,-1,0,-1,-1> const ,1,-1,0> >
PUBLIC	?innerStride@?$BlockImpl_dense@$$CBV?$Block@$$CBV?$Reshaped@$$CBV?$Matrix@N$0?0$0?0$0A@$0?0$0?0@Eigen@@$0?0$0?0$0A@@Eigen@@$0?0$00$00@Eigen@@$0?0$00$00$00@internal@Eigen@@QEBA_JXZ ; Eigen::internal::BlockImpl_dense<Eigen::Block<Eigen::Reshaped<Eigen::Matrix<double,-1,-1,0,-1,-1> const ,-1,-1,0> const ,-1,1,1> const ,-1,1,1,1>::innerStride
PUBLIC	?outerStride@?$BlockImpl_dense@$$CBV?$Block@$$CBV?$Reshaped@$$CBV?$Matrix@N$0?0$0?0$0A@$0?0$0?0@Eigen@@$0?0$0?0$0A@@Eigen@@$0?0$00$00@Eigen@@$0?0$00$00$00@internal@Eigen@@QEBA_JXZ ; Eigen::internal::BlockImpl_dense<Eigen::Block<Eigen::Reshaped<Eigen::Matrix<double,-1,-1,0,-1,-1> const ,-1,-1,0> const ,-1,1,1> const ,-1,1,1,1>::outerStride
PUBLIC	??0?$evaluator@V?$Block@$$CBV?$Block@$$CBV?$Matrix@N$0?0$0?0$0A@$0?0$0?0@Eigen@@$00$0?0$0A@@Eigen@@$00$0?0$00@Eigen@@@internal@Eigen@@QEAA@AEBV?$Block@$$CBV?$Block@$$CBV?$Matrix@N$0?0$0?0$0A@$0?0$0?0@Eigen@@$00$0?0$0A@@Eigen@@$00$0?0$00@2@@Z ; Eigen::internal::evaluator<Eigen::Block<Eigen::Block<Eigen::Matrix<double,-1,-1,0,-1,-1> const ,1,-1,0> const ,1,-1,1> >::evaluator<Eigen::Block<Eigen::Block<Eigen::Matrix<double,-1,-1,0,-1,-1> const ,1,-1,0> const ,1,-1,1> >
PUBLIC	??0?$evaluator_base@V?$Block@$$CBV?$Block@$$CBV?$Reshaped@$$CBV?$Matrix@N$0?0$0?0$0A@$0?0$0?0@Eigen@@$0?0$0?0$0A@@Eigen@@$0?0$00$00@Eigen@@$0?0$00$00@Eigen@@@internal@Eigen@@QEAA@XZ ; Eigen::internal::evaluator_base<Eigen::Block<Eigen::Block<Eigen::Reshaped<Eigen::Matrix<double,-1,-1,0,-1,-1> const ,-1,-1,0> const ,-1,1,1> const ,-1,1,1> >::evaluator_base<Eigen::Block<Eigen::Block<Eigen::Reshaped<Eigen::Matrix<double,-1,-1,0,-1,-1> const ,-1,-1,0> const ,-1,1,1> const ,-1,1,1> >
